CPU Disasm
Address  Hex dump          Command                                                   Comments
0012A000     0000           add     byte ptr ds:[eax], al
0012A002     0000           add     byte ptr ds:[eax], al
0012A004     0000           add     byte ptr ds:[eax], al
0012A006     0000           add     byte ptr ds:[eax], al
0012A008     0000           add     byte ptr ds:[eax], al
0012A00A     0000           add     byte ptr ds:[eax], al
0012A00C     0000           add     byte ptr ds:[eax], al
0012A00E     0000           add     byte ptr ds:[eax], al
0012A010     0000           add     byte ptr ds:[eax], al
0012A012     0000           add     byte ptr ds:[eax], al
0012A014     0000           add     byte ptr ds:[eax], al
0012A016     0000           add     byte ptr ds:[eax], al
0012A018     0000           add     byte ptr ds:[eax], al
0012A01A     0000           add     byte ptr ds:[eax], al
0012A01C     0000           add     byte ptr ds:[eax], al
0012A01E     0000           add     byte ptr ds:[eax], al
0012A020     0000           add     byte ptr ds:[eax], al
0012A022     0000           add     byte ptr ds:[eax], al
0012A024     0000           add     byte ptr ds:[eax], al
0012A026     0000           add     byte ptr ds:[eax], al
0012A028     0000           add     byte ptr ds:[eax], al
0012A02A     0000           add     byte ptr ds:[eax], al
0012A02C     0000           add     byte ptr ds:[eax], al
0012A02E     0000           add     byte ptr ds:[eax], al
0012A030     0000           add     byte ptr ds:[eax], al
0012A032     0000           add     byte ptr ds:[eax], al
0012A034     0000           add     byte ptr ds:[eax], al
0012A036     0000           add     byte ptr ds:[eax], al
0012A038     0000           add     byte ptr ds:[eax], al
0012A03A     0000           add     byte ptr ds:[eax], al
0012A03C     0000           add     byte ptr ds:[eax], al
0012A03E     0000           add     byte ptr ds:[eax], al
0012A040     0000           add     byte ptr ds:[eax], al
0012A042     0000           add     byte ptr ds:[eax], al
0012A044     0000           add     byte ptr ds:[eax], al
0012A046     0000           add     byte ptr ds:[eax], al
0012A048     0000           add     byte ptr ds:[eax], al
0012A04A     0000           add     byte ptr ds:[eax], al
0012A04C     0000           add     byte ptr ds:[eax], al
0012A04E     0000           add     byte ptr ds:[eax], al
0012A050     0000           add     byte ptr ds:[eax], al
0012A052     0000           add     byte ptr ds:[eax], al
0012A054     0000           add     byte ptr ds:[eax], al
0012A056     0000           add     byte ptr ds:[eax], al
0012A058     0000           add     byte ptr ds:[eax], al
0012A05A     0000           add     byte ptr ds:[eax], al
0012A05C     0000           add     byte ptr ds:[eax], al
0012A05E     0000           add     byte ptr ds:[eax], al
0012A060     0000           add     byte ptr ds:[eax], al
0012A062     0000           add     byte ptr ds:[eax], al
0012A064     0000           add     byte ptr ds:[eax], al
0012A066     0000           add     byte ptr ds:[eax], al
0012A068     0000           add     byte ptr ds:[eax], al
0012A06A     0000           add     byte ptr ds:[eax], al
0012A06C     0000           add     byte ptr ds:[eax], al
0012A06E     0000           add     byte ptr ds:[eax], al
0012A070     0000           add     byte ptr ds:[eax], al
0012A072     0000           add     byte ptr ds:[eax], al
0012A074     0000           add     byte ptr ds:[eax], al
0012A076     0000           add     byte ptr ds:[eax], al
0012A078     0000           add     byte ptr ds:[eax], al
0012A07A     0000           add     byte ptr ds:[eax], al
0012A07C     0000           add     byte ptr ds:[eax], al
0012A07E     0000           add     byte ptr ds:[eax], al
0012A080     0000           add     byte ptr ds:[eax], al
0012A082     0000           add     byte ptr ds:[eax], al
0012A084     0000           add     byte ptr ds:[eax], al
0012A086     0000           add     byte ptr ds:[eax], al
0012A088     0000           add     byte ptr ds:[eax], al
0012A08A     0000           add     byte ptr ds:[eax], al
0012A08C     0000           add     byte ptr ds:[eax], al
0012A08E     0000           add     byte ptr ds:[eax], al
0012A090     0000           add     byte ptr ds:[eax], al
0012A092     0000           add     byte ptr ds:[eax], al
0012A094     0000           add     byte ptr ds:[eax], al
0012A096     0000           add     byte ptr ds:[eax], al
0012A098     0000           add     byte ptr ds:[eax], al
0012A09A     0000           add     byte ptr ds:[eax], al
0012A09C     0000           add     byte ptr ds:[eax], al
0012A09E     0000           add     byte ptr ds:[eax], al
0012A0A0     0000           add     byte ptr ds:[eax], al
0012A0A2     0000           add     byte ptr ds:[eax], al
0012A0A4     0000           add     byte ptr ds:[eax], al
0012A0A6     0000           add     byte ptr ds:[eax], al
0012A0A8     0000           add     byte ptr ds:[eax], al
0012A0AA     0000           add     byte ptr ds:[eax], al
0012A0AC     0000           add     byte ptr ds:[eax], al
0012A0AE     0000           add     byte ptr ds:[eax], al
0012A0B0     0000           add     byte ptr ds:[eax], al
0012A0B2     0000           add     byte ptr ds:[eax], al
0012A0B4     0000           add     byte ptr ds:[eax], al
0012A0B6     0000           add     byte ptr ds:[eax], al
0012A0B8     0000           add     byte ptr ds:[eax], al
0012A0BA     0000           add     byte ptr ds:[eax], al
0012A0BC     0000           add     byte ptr ds:[eax], al
0012A0BE     0000           add     byte ptr ds:[eax], al
0012A0C0     0000           add     byte ptr ds:[eax], al
0012A0C2     0000           add     byte ptr ds:[eax], al
0012A0C4     0000           add     byte ptr ds:[eax], al
0012A0C6     0000           add     byte ptr ds:[eax], al
0012A0C8     0000           add     byte ptr ds:[eax], al
0012A0CA     0000           add     byte ptr ds:[eax], al
0012A0CC     0000           add     byte ptr ds:[eax], al
0012A0CE     0000           add     byte ptr ds:[eax], al
0012A0D0     0000           add     byte ptr ds:[eax], al
0012A0D2     0000           add     byte ptr ds:[eax], al
0012A0D4     0000           add     byte ptr ds:[eax], al
0012A0D6     0000           add     byte ptr ds:[eax], al
0012A0D8     0000           add     byte ptr ds:[eax], al
0012A0DA     0000           add     byte ptr ds:[eax], al
0012A0DC     0000           add     byte ptr ds:[eax], al
0012A0DE     0000           add     byte ptr ds:[eax], al
0012A0E0     0000           add     byte ptr ds:[eax], al
0012A0E2     0000           add     byte ptr ds:[eax], al
0012A0E4     0000           add     byte ptr ds:[eax], al
0012A0E6     0000           add     byte ptr ds:[eax], al
0012A0E8     0000           add     byte ptr ds:[eax], al
0012A0EA     0000           add     byte ptr ds:[eax], al
0012A0EC     0000           add     byte ptr ds:[eax], al
0012A0EE     0000           add     byte ptr ds:[eax], al
0012A0F0     0000           add     byte ptr ds:[eax], al
0012A0F2     0000           add     byte ptr ds:[eax], al
0012A0F4     0000           add     byte ptr ds:[eax], al
0012A0F6     0000           add     byte ptr ds:[eax], al
0012A0F8     0000           add     byte ptr ds:[eax], al
0012A0FA     0000           add     byte ptr ds:[eax], al
0012A0FC     0000           add     byte ptr ds:[eax], al
0012A0FE     0000           add     byte ptr ds:[eax], al
0012A100     0000           add     byte ptr ds:[eax], al
0012A102     0000           add     byte ptr ds:[eax], al
0012A104     0000           add     byte ptr ds:[eax], al
0012A106     0000           add     byte ptr ds:[eax], al
0012A108     0000           add     byte ptr ds:[eax], al
0012A10A     0000           add     byte ptr ds:[eax], al
0012A10C     0000           add     byte ptr ds:[eax], al
0012A10E     0000           add     byte ptr ds:[eax], al
0012A110     0000           add     byte ptr ds:[eax], al
0012A112     0000           add     byte ptr ds:[eax], al
0012A114     0000           add     byte ptr ds:[eax], al
0012A116     0000           add     byte ptr ds:[eax], al
0012A118     0000           add     byte ptr ds:[eax], al
0012A11A     0000           add     byte ptr ds:[eax], al
0012A11C     0000           add     byte ptr ds:[eax], al
0012A11E     0000           add     byte ptr ds:[eax], al
0012A120     0000           add     byte ptr ds:[eax], al
0012A122     0000           add     byte ptr ds:[eax], al
0012A124     0000           add     byte ptr ds:[eax], al
0012A126     0000           add     byte ptr ds:[eax], al
0012A128     0000           add     byte ptr ds:[eax], al
0012A12A     0000           add     byte ptr ds:[eax], al
0012A12C     0000           add     byte ptr ds:[eax], al
0012A12E     0000           add     byte ptr ds:[eax], al
0012A130     0000           add     byte ptr ds:[eax], al
0012A132     0000           add     byte ptr ds:[eax], al
0012A134     0000           add     byte ptr ds:[eax], al
0012A136     0000           add     byte ptr ds:[eax], al
0012A138     0000           add     byte ptr ds:[eax], al
0012A13A     0000           add     byte ptr ds:[eax], al
0012A13C     0000           add     byte ptr ds:[eax], al
0012A13E     0000           add     byte ptr ds:[eax], al
0012A140     0000           add     byte ptr ds:[eax], al
0012A142     0000           add     byte ptr ds:[eax], al
0012A144     0000           add     byte ptr ds:[eax], al
0012A146     0000           add     byte ptr ds:[eax], al
0012A148     0000           add     byte ptr ds:[eax], al
0012A14A     0000           add     byte ptr ds:[eax], al
0012A14C     0000           add     byte ptr ds:[eax], al
0012A14E     0000           add     byte ptr ds:[eax], al
0012A150     0000           add     byte ptr ds:[eax], al
0012A152     0000           add     byte ptr ds:[eax], al
0012A154     0000           add     byte ptr ds:[eax], al
0012A156     0000           add     byte ptr ds:[eax], al
0012A158     0000           add     byte ptr ds:[eax], al
0012A15A     0000           add     byte ptr ds:[eax], al
0012A15C     0000           add     byte ptr ds:[eax], al
0012A15E     0000           add     byte ptr ds:[eax], al
0012A160     0000           add     byte ptr ds:[eax], al
0012A162     0000           add     byte ptr ds:[eax], al
0012A164     0000           add     byte ptr ds:[eax], al
0012A166     0000           add     byte ptr ds:[eax], al
0012A168     0000           add     byte ptr ds:[eax], al
0012A16A     0000           add     byte ptr ds:[eax], al
0012A16C     0000           add     byte ptr ds:[eax], al
0012A16E     0000           add     byte ptr ds:[eax], al
0012A170     0000           add     byte ptr ds:[eax], al
0012A172     0000           add     byte ptr ds:[eax], al
0012A174     0000           add     byte ptr ds:[eax], al
0012A176     0000           add     byte ptr ds:[eax], al
0012A178     0000           add     byte ptr ds:[eax], al
0012A17A     0000           add     byte ptr ds:[eax], al
0012A17C     0000           add     byte ptr ds:[eax], al
0012A17E     0000           add     byte ptr ds:[eax], al
0012A180     0000           add     byte ptr ds:[eax], al
0012A182     0000           add     byte ptr ds:[eax], al
0012A184     0000           add     byte ptr ds:[eax], al
0012A186     0000           add     byte ptr ds:[eax], al
0012A188     0000           add     byte ptr ds:[eax], al
0012A18A     0000           add     byte ptr ds:[eax], al
0012A18C     0000           add     byte ptr ds:[eax], al
0012A18E     0000           add     byte ptr ds:[eax], al
0012A190     0000           add     byte ptr ds:[eax], al
0012A192     0000           add     byte ptr ds:[eax], al
0012A194     0000           add     byte ptr ds:[eax], al
0012A196     0000           add     byte ptr ds:[eax], al
0012A198     0000           add     byte ptr ds:[eax], al
0012A19A     0000           add     byte ptr ds:[eax], al
0012A19C     0000           add     byte ptr ds:[eax], al
0012A19E     0000           add     byte ptr ds:[eax], al
0012A1A0     0000           add     byte ptr ds:[eax], al
0012A1A2     0000           add     byte ptr ds:[eax], al
0012A1A4     0000           add     byte ptr ds:[eax], al
0012A1A6     0000           add     byte ptr ds:[eax], al
0012A1A8     0000           add     byte ptr ds:[eax], al
0012A1AA     0000           add     byte ptr ds:[eax], al
0012A1AC     0000           add     byte ptr ds:[eax], al
0012A1AE     0000           add     byte ptr ds:[eax], al
0012A1B0     0000           add     byte ptr ds:[eax], al
0012A1B2     0000           add     byte ptr ds:[eax], al
0012A1B4     0000           add     byte ptr ds:[eax], al
0012A1B6     0000           add     byte ptr ds:[eax], al
0012A1B8     0000           add     byte ptr ds:[eax], al
0012A1BA     0000           add     byte ptr ds:[eax], al
0012A1BC     0000           add     byte ptr ds:[eax], al
0012A1BE     0000           add     byte ptr ds:[eax], al
0012A1C0     0000           add     byte ptr ds:[eax], al
0012A1C2     0000           add     byte ptr ds:[eax], al
0012A1C4     0000           add     byte ptr ds:[eax], al
0012A1C6     0000           add     byte ptr ds:[eax], al
0012A1C8     0000           add     byte ptr ds:[eax], al
0012A1CA     0000           add     byte ptr ds:[eax], al
0012A1CC     0000           add     byte ptr ds:[eax], al
0012A1CE     0000           add     byte ptr ds:[eax], al
0012A1D0     0000           add     byte ptr ds:[eax], al
0012A1D2     0000           add     byte ptr ds:[eax], al
0012A1D4     0000           add     byte ptr ds:[eax], al
0012A1D6     0000           add     byte ptr ds:[eax], al
0012A1D8     0000           add     byte ptr ds:[eax], al
0012A1DA     0000           add     byte ptr ds:[eax], al
0012A1DC     0000           add     byte ptr ds:[eax], al
0012A1DE     0000           add     byte ptr ds:[eax], al
0012A1E0     0000           add     byte ptr ds:[eax], al
0012A1E2     0000           add     byte ptr ds:[eax], al
0012A1E4     0000           add     byte ptr ds:[eax], al
0012A1E6     0000           add     byte ptr ds:[eax], al
0012A1E8     0000           add     byte ptr ds:[eax], al
0012A1EA     0000           add     byte ptr ds:[eax], al
0012A1EC     0000           add     byte ptr ds:[eax], al
0012A1EE     0000           add     byte ptr ds:[eax], al
0012A1F0     0000           add     byte ptr ds:[eax], al
0012A1F2     0000           add     byte ptr ds:[eax], al
0012A1F4     0000           add     byte ptr ds:[eax], al
0012A1F6     0000           add     byte ptr ds:[eax], al
0012A1F8     0000           add     byte ptr ds:[eax], al
0012A1FA     0000           add     byte ptr ds:[eax], al
0012A1FC     0000           add     byte ptr ds:[eax], al
0012A1FE     0000           add     byte ptr ds:[eax], al
0012A200     0000           add     byte ptr ds:[eax], al
0012A202     0000           add     byte ptr ds:[eax], al
0012A204     0000           add     byte ptr ds:[eax], al
0012A206     0000           add     byte ptr ds:[eax], al
0012A208     0000           add     byte ptr ds:[eax], al
0012A20A     0000           add     byte ptr ds:[eax], al
0012A20C     0000           add     byte ptr ds:[eax], al
0012A20E     0000           add     byte ptr ds:[eax], al
0012A210     0000           add     byte ptr ds:[eax], al
0012A212     0000           add     byte ptr ds:[eax], al
0012A214     0000           add     byte ptr ds:[eax], al
0012A216     0000           add     byte ptr ds:[eax], al
0012A218     0000           add     byte ptr ds:[eax], al
0012A21A     0000           add     byte ptr ds:[eax], al
0012A21C     0000           add     byte ptr ds:[eax], al
0012A21E     0000           add     byte ptr ds:[eax], al
0012A220     0000           add     byte ptr ds:[eax], al
0012A222     0000           add     byte ptr ds:[eax], al
0012A224     0000           add     byte ptr ds:[eax], al
0012A226     0000           add     byte ptr ds:[eax], al
0012A228     0000           add     byte ptr ds:[eax], al
0012A22A     0000           add     byte ptr ds:[eax], al
0012A22C     0000           add     byte ptr ds:[eax], al
0012A22E     0000           add     byte ptr ds:[eax], al
0012A230     0000           add     byte ptr ds:[eax], al
0012A232     0000           add     byte ptr ds:[eax], al
0012A234     0000           add     byte ptr ds:[eax], al
0012A236     0000           add     byte ptr ds:[eax], al
0012A238     0000           add     byte ptr ds:[eax], al
0012A23A     0000           add     byte ptr ds:[eax], al
0012A23C     0000           add     byte ptr ds:[eax], al
0012A23E     0000           add     byte ptr ds:[eax], al
0012A240     0000           add     byte ptr ds:[eax], al
0012A242     0000           add     byte ptr ds:[eax], al
0012A244     0000           add     byte ptr ds:[eax], al
0012A246     0000           add     byte ptr ds:[eax], al
0012A248     0000           add     byte ptr ds:[eax], al
0012A24A     0000           add     byte ptr ds:[eax], al
0012A24C     0000           add     byte ptr ds:[eax], al
0012A24E     0000           add     byte ptr ds:[eax], al
0012A250     0000           add     byte ptr ds:[eax], al
0012A252     0000           add     byte ptr ds:[eax], al
0012A254     0000           add     byte ptr ds:[eax], al
0012A256     0000           add     byte ptr ds:[eax], al
0012A258     0000           add     byte ptr ds:[eax], al
0012A25A     0000           add     byte ptr ds:[eax], al
0012A25C     0000           add     byte ptr ds:[eax], al
0012A25E     0000           add     byte ptr ds:[eax], al
0012A260     0000           add     byte ptr ds:[eax], al
0012A262     0000           add     byte ptr ds:[eax], al
0012A264     0000           add     byte ptr ds:[eax], al
0012A266     0000           add     byte ptr ds:[eax], al
0012A268     0000           add     byte ptr ds:[eax], al
0012A26A     0000           add     byte ptr ds:[eax], al
0012A26C     0000           add     byte ptr ds:[eax], al
0012A26E     0000           add     byte ptr ds:[eax], al
0012A270     0000           add     byte ptr ds:[eax], al
0012A272     0000           add     byte ptr ds:[eax], al
0012A274     0000           add     byte ptr ds:[eax], al
0012A276     0000           add     byte ptr ds:[eax], al
0012A278     0000           add     byte ptr ds:[eax], al
0012A27A     0000           add     byte ptr ds:[eax], al
0012A27C     0000           add     byte ptr ds:[eax], al
0012A27E     0000           add     byte ptr ds:[eax], al
0012A280     0000           add     byte ptr ds:[eax], al
0012A282     0000           add     byte ptr ds:[eax], al
0012A284     0000           add     byte ptr ds:[eax], al
0012A286     0000           add     byte ptr ds:[eax], al
0012A288     0000           add     byte ptr ds:[eax], al
0012A28A     0000           add     byte ptr ds:[eax], al
0012A28C     0000           add     byte ptr ds:[eax], al
0012A28E     0000           add     byte ptr ds:[eax], al
0012A290     0000           add     byte ptr ds:[eax], al
0012A292     0000           add     byte ptr ds:[eax], al
0012A294     0000           add     byte ptr ds:[eax], al
0012A296     0000           add     byte ptr ds:[eax], al
0012A298     0000           add     byte ptr ds:[eax], al
0012A29A     0000           add     byte ptr ds:[eax], al
0012A29C     0000           add     byte ptr ds:[eax], al
0012A29E     0000           add     byte ptr ds:[eax], al
0012A2A0     0000           add     byte ptr ds:[eax], al
0012A2A2     0000           add     byte ptr ds:[eax], al
0012A2A4     0000           add     byte ptr ds:[eax], al
0012A2A6     0000           add     byte ptr ds:[eax], al
0012A2A8     0000           add     byte ptr ds:[eax], al
0012A2AA     0000           add     byte ptr ds:[eax], al
0012A2AC     0000           add     byte ptr ds:[eax], al
0012A2AE     0000           add     byte ptr ds:[eax], al
0012A2B0     0000           add     byte ptr ds:[eax], al
0012A2B2     0000           add     byte ptr ds:[eax], al
0012A2B4     0000           add     byte ptr ds:[eax], al
0012A2B6     0000           add     byte ptr ds:[eax], al
0012A2B8     0000           add     byte ptr ds:[eax], al
0012A2BA     0000           add     byte ptr ds:[eax], al
0012A2BC     0000           add     byte ptr ds:[eax], al
0012A2BE     0000           add     byte ptr ds:[eax], al
0012A2C0     0000           add     byte ptr ds:[eax], al
0012A2C2     0000           add     byte ptr ds:[eax], al
0012A2C4     0000           add     byte ptr ds:[eax], al
0012A2C6     0000           add     byte ptr ds:[eax], al
0012A2C8     0000           add     byte ptr ds:[eax], al
0012A2CA     0000           add     byte ptr ds:[eax], al
0012A2CC     0000           add     byte ptr ds:[eax], al
0012A2CE     0000           add     byte ptr ds:[eax], al
0012A2D0     0000           add     byte ptr ds:[eax], al
0012A2D2     0000           add     byte ptr ds:[eax], al
0012A2D4     0000           add     byte ptr ds:[eax], al
0012A2D6     0000           add     byte ptr ds:[eax], al
0012A2D8     0000           add     byte ptr ds:[eax], al
0012A2DA     0000           add     byte ptr ds:[eax], al
0012A2DC     0000           add     byte ptr ds:[eax], al
0012A2DE     0000           add     byte ptr ds:[eax], al
0012A2E0     0000           add     byte ptr ds:[eax], al
0012A2E2     0000           add     byte ptr ds:[eax], al
0012A2E4     0000           add     byte ptr ds:[eax], al
0012A2E6     0000           add     byte ptr ds:[eax], al
0012A2E8     0000           add     byte ptr ds:[eax], al
0012A2EA     0000           add     byte ptr ds:[eax], al
0012A2EC     0000           add     byte ptr ds:[eax], al
0012A2EE     0000           add     byte ptr ds:[eax], al
0012A2F0     0000           add     byte ptr ds:[eax], al
0012A2F2     0000           add     byte ptr ds:[eax], al
0012A2F4     0000           add     byte ptr ds:[eax], al
0012A2F6     0000           add     byte ptr ds:[eax], al
0012A2F8     0000           add     byte ptr ds:[eax], al
0012A2FA     0000           add     byte ptr ds:[eax], al
0012A2FC     0000           add     byte ptr ds:[eax], al
0012A2FE     0000           add     byte ptr ds:[eax], al
0012A300     0000           add     byte ptr ds:[eax], al
0012A302     0000           add     byte ptr ds:[eax], al
0012A304     0000           add     byte ptr ds:[eax], al
0012A306     0000           add     byte ptr ds:[eax], al
0012A308     0000           add     byte ptr ds:[eax], al
0012A30A     0000           add     byte ptr ds:[eax], al
0012A30C     0000           add     byte ptr ds:[eax], al
0012A30E     0000           add     byte ptr ds:[eax], al
0012A310     0000           add     byte ptr ds:[eax], al
0012A312     0000           add     byte ptr ds:[eax], al
0012A314     0000           add     byte ptr ds:[eax], al
0012A316     0000           add     byte ptr ds:[eax], al
0012A318     0000           add     byte ptr ds:[eax], al
0012A31A     0000           add     byte ptr ds:[eax], al
0012A31C     0000           add     byte ptr ds:[eax], al
0012A31E     0000           add     byte ptr ds:[eax], al
0012A320     0000           add     byte ptr ds:[eax], al
0012A322     0000           add     byte ptr ds:[eax], al
0012A324     0000           add     byte ptr ds:[eax], al
0012A326     0000           add     byte ptr ds:[eax], al
0012A328     0000           add     byte ptr ds:[eax], al
0012A32A     0000           add     byte ptr ds:[eax], al
0012A32C     0000           add     byte ptr ds:[eax], al
0012A32E     0000           add     byte ptr ds:[eax], al
0012A330     0000           add     byte ptr ds:[eax], al
0012A332     0000           add     byte ptr ds:[eax], al
0012A334     0000           add     byte ptr ds:[eax], al
0012A336     0000           add     byte ptr ds:[eax], al
0012A338     0000           add     byte ptr ds:[eax], al
0012A33A     0000           add     byte ptr ds:[eax], al
0012A33C     0000           add     byte ptr ds:[eax], al
0012A33E     0000           add     byte ptr ds:[eax], al
0012A340     0000           add     byte ptr ds:[eax], al
0012A342     0000           add     byte ptr ds:[eax], al
0012A344     0000           add     byte ptr ds:[eax], al
0012A346     0000           add     byte ptr ds:[eax], al
0012A348     0000           add     byte ptr ds:[eax], al
0012A34A     0000           add     byte ptr ds:[eax], al
0012A34C     0000           add     byte ptr ds:[eax], al
0012A34E     0000           add     byte ptr ds:[eax], al
0012A350     0000           add     byte ptr ds:[eax], al
0012A352     0000           add     byte ptr ds:[eax], al
0012A354     0000           add     byte ptr ds:[eax], al
0012A356     0000           add     byte ptr ds:[eax], al
0012A358     0000           add     byte ptr ds:[eax], al
0012A35A     0000           add     byte ptr ds:[eax], al
0012A35C     0000           add     byte ptr ds:[eax], al
0012A35E     0000           add     byte ptr ds:[eax], al
0012A360     0000           add     byte ptr ds:[eax], al
0012A362     0000           add     byte ptr ds:[eax], al
0012A364     0000           add     byte ptr ds:[eax], al
0012A366     0000           add     byte ptr ds:[eax], al
0012A368     0000           add     byte ptr ds:[eax], al
0012A36A     0000           add     byte ptr ds:[eax], al
0012A36C     0000           add     byte ptr ds:[eax], al
0012A36E     0000           add     byte ptr ds:[eax], al
0012A370     0000           add     byte ptr ds:[eax], al
0012A372     0000           add     byte ptr ds:[eax], al
0012A374     0000           add     byte ptr ds:[eax], al
0012A376     0000           add     byte ptr ds:[eax], al
0012A378     0000           add     byte ptr ds:[eax], al
0012A37A     0000           add     byte ptr ds:[eax], al
0012A37C     0000           add     byte ptr ds:[eax], al
0012A37E     0000           add     byte ptr ds:[eax], al
0012A380     0000           add     byte ptr ds:[eax], al
0012A382     0000           add     byte ptr ds:[eax], al
0012A384     0000           add     byte ptr ds:[eax], al
0012A386     0000           add     byte ptr ds:[eax], al
0012A388     0000           add     byte ptr ds:[eax], al
0012A38A     0000           add     byte ptr ds:[eax], al
0012A38C     0000           add     byte ptr ds:[eax], al
0012A38E     0000           add     byte ptr ds:[eax], al
0012A390     0000           add     byte ptr ds:[eax], al
0012A392     0000           add     byte ptr ds:[eax], al
0012A394     0000           add     byte ptr ds:[eax], al
0012A396     0000           add     byte ptr ds:[eax], al
0012A398     0000           add     byte ptr ds:[eax], al
0012A39A     0000           add     byte ptr ds:[eax], al
0012A39C     0000           add     byte ptr ds:[eax], al
0012A39E     0000           add     byte ptr ds:[eax], al
0012A3A0     0000           add     byte ptr ds:[eax], al
0012A3A2     0000           add     byte ptr ds:[eax], al
0012A3A4     0000           add     byte ptr ds:[eax], al
0012A3A6     0000           add     byte ptr ds:[eax], al
0012A3A8     0000           add     byte ptr ds:[eax], al
0012A3AA     0000           add     byte ptr ds:[eax], al
0012A3AC     0000           add     byte ptr ds:[eax], al
0012A3AE     0000           add     byte ptr ds:[eax], al
0012A3B0     0000           add     byte ptr ds:[eax], al
0012A3B2     0000           add     byte ptr ds:[eax], al
0012A3B4     0000           add     byte ptr ds:[eax], al
0012A3B6     0000           add     byte ptr ds:[eax], al
0012A3B8     0000           add     byte ptr ds:[eax], al
0012A3BA     0000           add     byte ptr ds:[eax], al
0012A3BC     0000           add     byte ptr ds:[eax], al
0012A3BE     0000           add     byte ptr ds:[eax], al
0012A3C0     0000           add     byte ptr ds:[eax], al
0012A3C2     0000           add     byte ptr ds:[eax], al
0012A3C4     0000           add     byte ptr ds:[eax], al
0012A3C6     0000           add     byte ptr ds:[eax], al
0012A3C8     0000           add     byte ptr ds:[eax], al
0012A3CA     0000           add     byte ptr ds:[eax], al
0012A3CC     0000           add     byte ptr ds:[eax], al
0012A3CE     0000           add     byte ptr ds:[eax], al
0012A3D0     0000           add     byte ptr ds:[eax], al
0012A3D2     0000           add     byte ptr ds:[eax], al
0012A3D4     0000           add     byte ptr ds:[eax], al
0012A3D6     0000           add     byte ptr ds:[eax], al
0012A3D8     0000           add     byte ptr ds:[eax], al
0012A3DA     0000           add     byte ptr ds:[eax], al
0012A3DC     0000           add     byte ptr ds:[eax], al
0012A3DE     0000           add     byte ptr ds:[eax], al
0012A3E0     0000           add     byte ptr ds:[eax], al
0012A3E2     0000           add     byte ptr ds:[eax], al
0012A3E4     0000           add     byte ptr ds:[eax], al
0012A3E6     0000           add     byte ptr ds:[eax], al
0012A3E8     0000           add     byte ptr ds:[eax], al
0012A3EA     0000           add     byte ptr ds:[eax], al
0012A3EC     0000           add     byte ptr ds:[eax], al
0012A3EE     0000           add     byte ptr ds:[eax], al
0012A3F0     0000           add     byte ptr ds:[eax], al
0012A3F2     0000           add     byte ptr ds:[eax], al
0012A3F4     0000           add     byte ptr ds:[eax], al
0012A3F6     0000           add     byte ptr ds:[eax], al
0012A3F8     0000           add     byte ptr ds:[eax], al
0012A3FA     0000           add     byte ptr ds:[eax], al
0012A3FC     0000           add     byte ptr ds:[eax], al
0012A3FE     0000           add     byte ptr ds:[eax], al
0012A400     0000           add     byte ptr ds:[eax], al
0012A402     0000           add     byte ptr ds:[eax], al
0012A404     0000           add     byte ptr ds:[eax], al
0012A406     0000           add     byte ptr ds:[eax], al
0012A408     0000           add     byte ptr ds:[eax], al
0012A40A     0000           add     byte ptr ds:[eax], al
0012A40C     0000           add     byte ptr ds:[eax], al
0012A40E     0000           add     byte ptr ds:[eax], al
0012A410     0000           add     byte ptr ds:[eax], al
0012A412     0000           add     byte ptr ds:[eax], al
0012A414     0000           add     byte ptr ds:[eax], al
0012A416     0000           add     byte ptr ds:[eax], al
0012A418     0000           add     byte ptr ds:[eax], al
0012A41A     0000           add     byte ptr ds:[eax], al
0012A41C     0000           add     byte ptr ds:[eax], al
0012A41E     0000           add     byte ptr ds:[eax], al
0012A420     0000           add     byte ptr ds:[eax], al
0012A422     0000           add     byte ptr ds:[eax], al
0012A424     0000           add     byte ptr ds:[eax], al
0012A426     0000           add     byte ptr ds:[eax], al
0012A428     0000           add     byte ptr ds:[eax], al
0012A42A     0000           add     byte ptr ds:[eax], al
0012A42C     0000           add     byte ptr ds:[eax], al
0012A42E     0000           add     byte ptr ds:[eax], al
0012A430     0000           add     byte ptr ds:[eax], al
0012A432     0000           add     byte ptr ds:[eax], al
0012A434     0000           add     byte ptr ds:[eax], al
0012A436     0000           add     byte ptr ds:[eax], al
0012A438     0000           add     byte ptr ds:[eax], al
0012A43A     0000           add     byte ptr ds:[eax], al
0012A43C     0000           add     byte ptr ds:[eax], al
0012A43E     0000           add     byte ptr ds:[eax], al
0012A440     0000           add     byte ptr ds:[eax], al
0012A442     0000           add     byte ptr ds:[eax], al
0012A444     0000           add     byte ptr ds:[eax], al
0012A446     0000           add     byte ptr ds:[eax], al
0012A448     0000           add     byte ptr ds:[eax], al
0012A44A     0000           add     byte ptr ds:[eax], al
0012A44C     0000           add     byte ptr ds:[eax], al
0012A44E     0000           add     byte ptr ds:[eax], al
0012A450     0000           add     byte ptr ds:[eax], al
0012A452     0000           add     byte ptr ds:[eax], al
0012A454     0000           add     byte ptr ds:[eax], al
0012A456     0000           add     byte ptr ds:[eax], al
0012A458     0000           add     byte ptr ds:[eax], al
0012A45A     0000           add     byte ptr ds:[eax], al
0012A45C     0000           add     byte ptr ds:[eax], al
0012A45E     0000           add     byte ptr ds:[eax], al
0012A460     0000           add     byte ptr ds:[eax], al
0012A462     0000           add     byte ptr ds:[eax], al
0012A464     0000           add     byte ptr ds:[eax], al
0012A466     0000           add     byte ptr ds:[eax], al
0012A468     0000           add     byte ptr ds:[eax], al
0012A46A     0000           add     byte ptr ds:[eax], al
0012A46C     0000           add     byte ptr ds:[eax], al
0012A46E     0000           add     byte ptr ds:[eax], al
0012A470     0000           add     byte ptr ds:[eax], al
0012A472     0000           add     byte ptr ds:[eax], al
0012A474     0000           add     byte ptr ds:[eax], al
0012A476     0000           add     byte ptr ds:[eax], al
0012A478     0000           add     byte ptr ds:[eax], al
0012A47A     0000           add     byte ptr ds:[eax], al
0012A47C     0000           add     byte ptr ds:[eax], al
0012A47E     0000           add     byte ptr ds:[eax], al
0012A480     0000           add     byte ptr ds:[eax], al
0012A482     0000           add     byte ptr ds:[eax], al
0012A484     0000           add     byte ptr ds:[eax], al
0012A486     0000           add     byte ptr ds:[eax], al
0012A488     0000           add     byte ptr ds:[eax], al
0012A48A     0000           add     byte ptr ds:[eax], al
0012A48C     0000           add     byte ptr ds:[eax], al
0012A48E     0000           add     byte ptr ds:[eax], al
0012A490     0000           add     byte ptr ds:[eax], al
0012A492     0000           add     byte ptr ds:[eax], al
0012A494     0000           add     byte ptr ds:[eax], al
0012A496     0000           add     byte ptr ds:[eax], al
0012A498     0000           add     byte ptr ds:[eax], al
0012A49A     0000           add     byte ptr ds:[eax], al
0012A49C     0000           add     byte ptr ds:[eax], al
0012A49E     0000           add     byte ptr ds:[eax], al
0012A4A0     0000           add     byte ptr ds:[eax], al
0012A4A2     0000           add     byte ptr ds:[eax], al
0012A4A4     0000           add     byte ptr ds:[eax], al
0012A4A6     0000           add     byte ptr ds:[eax], al
0012A4A8     0000           add     byte ptr ds:[eax], al
0012A4AA     0000           add     byte ptr ds:[eax], al
0012A4AC     0000           add     byte ptr ds:[eax], al
0012A4AE     0000           add     byte ptr ds:[eax], al
0012A4B0     0000           add     byte ptr ds:[eax], al
0012A4B2     0000           add     byte ptr ds:[eax], al
0012A4B4     0000           add     byte ptr ds:[eax], al
0012A4B6     0000           add     byte ptr ds:[eax], al
0012A4B8     0000           add     byte ptr ds:[eax], al
0012A4BA     0000           add     byte ptr ds:[eax], al
0012A4BC     0000           add     byte ptr ds:[eax], al
0012A4BE     0000           add     byte ptr ds:[eax], al
0012A4C0     0000           add     byte ptr ds:[eax], al
0012A4C2     0000           add     byte ptr ds:[eax], al
0012A4C4     0000           add     byte ptr ds:[eax], al
0012A4C6     0000           add     byte ptr ds:[eax], al
0012A4C8     0000           add     byte ptr ds:[eax], al
0012A4CA     0000           add     byte ptr ds:[eax], al
0012A4CC     0000           add     byte ptr ds:[eax], al
0012A4CE     0000           add     byte ptr ds:[eax], al
0012A4D0     0000           add     byte ptr ds:[eax], al
0012A4D2     0000           add     byte ptr ds:[eax], al
0012A4D4     0000           add     byte ptr ds:[eax], al
0012A4D6     0000           add     byte ptr ds:[eax], al
0012A4D8     0000           add     byte ptr ds:[eax], al
0012A4DA     0000           add     byte ptr ds:[eax], al
0012A4DC     0000           add     byte ptr ds:[eax], al
0012A4DE     0000           add     byte ptr ds:[eax], al
0012A4E0     0000           add     byte ptr ds:[eax], al
0012A4E2     0000           add     byte ptr ds:[eax], al
0012A4E4     0000           add     byte ptr ds:[eax], al
0012A4E6     0000           add     byte ptr ds:[eax], al
0012A4E8     0000           add     byte ptr ds:[eax], al
0012A4EA     0000           add     byte ptr ds:[eax], al
0012A4EC     0000           add     byte ptr ds:[eax], al
0012A4EE     0000           add     byte ptr ds:[eax], al
0012A4F0     0000           add     byte ptr ds:[eax], al
0012A4F2     0000           add     byte ptr ds:[eax], al
0012A4F4     0000           add     byte ptr ds:[eax], al
0012A4F6     0000           add     byte ptr ds:[eax], al
0012A4F8     0000           add     byte ptr ds:[eax], al
0012A4FA     0000           add     byte ptr ds:[eax], al
0012A4FC     0000           add     byte ptr ds:[eax], al
0012A4FE     0000           add     byte ptr ds:[eax], al
0012A500     0000           add     byte ptr ds:[eax], al
0012A502     0000           add     byte ptr ds:[eax], al
0012A504     0000           add     byte ptr ds:[eax], al
0012A506     0000           add     byte ptr ds:[eax], al
0012A508     0000           add     byte ptr ds:[eax], al
0012A50A     0000           add     byte ptr ds:[eax], al
0012A50C     0000           add     byte ptr ds:[eax], al
0012A50E     0000           add     byte ptr ds:[eax], al
0012A510     0000           add     byte ptr ds:[eax], al
0012A512     0000           add     byte ptr ds:[eax], al
0012A514     0000           add     byte ptr ds:[eax], al
0012A516     0000           add     byte ptr ds:[eax], al
0012A518     0000           add     byte ptr ds:[eax], al
0012A51A     0000           add     byte ptr ds:[eax], al
0012A51C     0000           add     byte ptr ds:[eax], al
0012A51E     0000           add     byte ptr ds:[eax], al
0012A520     0000           add     byte ptr ds:[eax], al
0012A522     0000           add     byte ptr ds:[eax], al
0012A524     0000           add     byte ptr ds:[eax], al
0012A526     0000           add     byte ptr ds:[eax], al
0012A528     0000           add     byte ptr ds:[eax], al
0012A52A     0000           add     byte ptr ds:[eax], al
0012A52C     0000           add     byte ptr ds:[eax], al
0012A52E     0000           add     byte ptr ds:[eax], al
0012A530     0000           add     byte ptr ds:[eax], al
0012A532     0000           add     byte ptr ds:[eax], al
0012A534     0000           add     byte ptr ds:[eax], al
0012A536     0000           add     byte ptr ds:[eax], al
0012A538     0000           add     byte ptr ds:[eax], al
0012A53A     0000           add     byte ptr ds:[eax], al
0012A53C     0000           add     byte ptr ds:[eax], al
0012A53E     0000           add     byte ptr ds:[eax], al
0012A540     0000           add     byte ptr ds:[eax], al
0012A542     0000           add     byte ptr ds:[eax], al
0012A544     0000           add     byte ptr ds:[eax], al
0012A546     0000           add     byte ptr ds:[eax], al
0012A548     0000           add     byte ptr ds:[eax], al
0012A54A     0000           add     byte ptr ds:[eax], al
0012A54C     0000           add     byte ptr ds:[eax], al
0012A54E     0000           add     byte ptr ds:[eax], al
0012A550     0000           add     byte ptr ds:[eax], al
0012A552     0000           add     byte ptr ds:[eax], al
0012A554     0000           add     byte ptr ds:[eax], al
0012A556     0000           add     byte ptr ds:[eax], al
0012A558     0000           add     byte ptr ds:[eax], al
0012A55A     0000           add     byte ptr ds:[eax], al
0012A55C     0000           add     byte ptr ds:[eax], al
0012A55E     0000           add     byte ptr ds:[eax], al
0012A560     0000           add     byte ptr ds:[eax], al
0012A562     0000           add     byte ptr ds:[eax], al
0012A564     0000           add     byte ptr ds:[eax], al
0012A566     0000           add     byte ptr ds:[eax], al
0012A568     0000           add     byte ptr ds:[eax], al
0012A56A     0000           add     byte ptr ds:[eax], al
0012A56C     0000           add     byte ptr ds:[eax], al
0012A56E     0000           add     byte ptr ds:[eax], al
0012A570     0000           add     byte ptr ds:[eax], al
0012A572     0000           add     byte ptr ds:[eax], al
0012A574     0000           add     byte ptr ds:[eax], al
0012A576     0000           add     byte ptr ds:[eax], al
0012A578     0000           add     byte ptr ds:[eax], al
0012A57A     0000           add     byte ptr ds:[eax], al
0012A57C     0000           add     byte ptr ds:[eax], al
0012A57E     0000           add     byte ptr ds:[eax], al
0012A580     0000           add     byte ptr ds:[eax], al
0012A582     0000           add     byte ptr ds:[eax], al
0012A584     0000           add     byte ptr ds:[eax], al
0012A586     0000           add     byte ptr ds:[eax], al
0012A588     0000           add     byte ptr ds:[eax], al
0012A58A     0000           add     byte ptr ds:[eax], al
0012A58C     0000           add     byte ptr ds:[eax], al
0012A58E     0000           add     byte ptr ds:[eax], al
0012A590     0000           add     byte ptr ds:[eax], al
0012A592     0000           add     byte ptr ds:[eax], al
0012A594     0000           add     byte ptr ds:[eax], al
0012A596     0000           add     byte ptr ds:[eax], al
0012A598     0000           add     byte ptr ds:[eax], al
0012A59A     0000           add     byte ptr ds:[eax], al
0012A59C     0000           add     byte ptr ds:[eax], al
0012A59E     0000           add     byte ptr ds:[eax], al
0012A5A0     0000           add     byte ptr ds:[eax], al
0012A5A2     0000           add     byte ptr ds:[eax], al
0012A5A4     0000           add     byte ptr ds:[eax], al
0012A5A6     0000           add     byte ptr ds:[eax], al
0012A5A8     0000           add     byte ptr ds:[eax], al
0012A5AA     0000           add     byte ptr ds:[eax], al
0012A5AC     0000           add     byte ptr ds:[eax], al
0012A5AE     0000           add     byte ptr ds:[eax], al
0012A5B0     0000           add     byte ptr ds:[eax], al
0012A5B2     0000           add     byte ptr ds:[eax], al
0012A5B4     0000           add     byte ptr ds:[eax], al
0012A5B6     0000           add     byte ptr ds:[eax], al
0012A5B8     0000           add     byte ptr ds:[eax], al
0012A5BA     0000           add     byte ptr ds:[eax], al
0012A5BC     0000           add     byte ptr ds:[eax], al
0012A5BE     0000           add     byte ptr ds:[eax], al
0012A5C0     0000           add     byte ptr ds:[eax], al
0012A5C2     0000           add     byte ptr ds:[eax], al
0012A5C4     0000           add     byte ptr ds:[eax], al
0012A5C6     0000           add     byte ptr ds:[eax], al
0012A5C8     0000           add     byte ptr ds:[eax], al
0012A5CA     0000           add     byte ptr ds:[eax], al
0012A5CC     0000           add     byte ptr ds:[eax], al
0012A5CE     0000           add     byte ptr ds:[eax], al
0012A5D0     0000           add     byte ptr ds:[eax], al
0012A5D2     0000           add     byte ptr ds:[eax], al
0012A5D4     0000           add     byte ptr ds:[eax], al
0012A5D6     0000           add     byte ptr ds:[eax], al
0012A5D8     0000           add     byte ptr ds:[eax], al
0012A5DA     0000           add     byte ptr ds:[eax], al
0012A5DC     0000           add     byte ptr ds:[eax], al
0012A5DE     0000           add     byte ptr ds:[eax], al
0012A5E0     0000           add     byte ptr ds:[eax], al
0012A5E2     0000           add     byte ptr ds:[eax], al
0012A5E4     0000           add     byte ptr ds:[eax], al
0012A5E6     0000           add     byte ptr ds:[eax], al
0012A5E8     0000           add     byte ptr ds:[eax], al
0012A5EA     0000           add     byte ptr ds:[eax], al
0012A5EC     0000           add     byte ptr ds:[eax], al
0012A5EE     0000           add     byte ptr ds:[eax], al
0012A5F0     0000           add     byte ptr ds:[eax], al
0012A5F2     0000           add     byte ptr ds:[eax], al
0012A5F4     0000           add     byte ptr ds:[eax], al
0012A5F6     0000           add     byte ptr ds:[eax], al
0012A5F8     0000           add     byte ptr ds:[eax], al
0012A5FA     0000           add     byte ptr ds:[eax], al
0012A5FC     0000           add     byte ptr ds:[eax], al
0012A5FE     0000           add     byte ptr ds:[eax], al
0012A600     0000           add     byte ptr ds:[eax], al
0012A602     0000           add     byte ptr ds:[eax], al
0012A604     0000           add     byte ptr ds:[eax], al
0012A606     0000           add     byte ptr ds:[eax], al
0012A608     0000           add     byte ptr ds:[eax], al
0012A60A     0000           add     byte ptr ds:[eax], al
0012A60C     0000           add     byte ptr ds:[eax], al
0012A60E     0000           add     byte ptr ds:[eax], al
0012A610     0000           add     byte ptr ds:[eax], al
0012A612     0000           add     byte ptr ds:[eax], al
0012A614     0000           add     byte ptr ds:[eax], al
0012A616     0000           add     byte ptr ds:[eax], al
0012A618     0000           add     byte ptr ds:[eax], al
0012A61A     0000           add     byte ptr ds:[eax], al
0012A61C     0000           add     byte ptr ds:[eax], al
0012A61E     0000           add     byte ptr ds:[eax], al
0012A620     0000           add     byte ptr ds:[eax], al
0012A622     0000           add     byte ptr ds:[eax], al
0012A624     0000           add     byte ptr ds:[eax], al
0012A626     0000           add     byte ptr ds:[eax], al
0012A628     0000           add     byte ptr ds:[eax], al
0012A62A     0000           add     byte ptr ds:[eax], al
0012A62C     0000           add     byte ptr ds:[eax], al
0012A62E     0000           add     byte ptr ds:[eax], al
0012A630     0000           add     byte ptr ds:[eax], al
0012A632     0000           add     byte ptr ds:[eax], al
0012A634     0000           add     byte ptr ds:[eax], al
0012A636     0000           add     byte ptr ds:[eax], al
0012A638     0000           add     byte ptr ds:[eax], al
0012A63A     0000           add     byte ptr ds:[eax], al
0012A63C     0000           add     byte ptr ds:[eax], al
0012A63E     0000           add     byte ptr ds:[eax], al
0012A640     0000           add     byte ptr ds:[eax], al
0012A642     0000           add     byte ptr ds:[eax], al
0012A644     0000           add     byte ptr ds:[eax], al
0012A646     0000           add     byte ptr ds:[eax], al
0012A648     0000           add     byte ptr ds:[eax], al
0012A64A     0000           add     byte ptr ds:[eax], al
0012A64C     0000           add     byte ptr ds:[eax], al
0012A64E     0000           add     byte ptr ds:[eax], al
0012A650     0000           add     byte ptr ds:[eax], al
0012A652     0000           add     byte ptr ds:[eax], al
0012A654     0000           add     byte ptr ds:[eax], al
0012A656     0000           add     byte ptr ds:[eax], al
0012A658     0000           add     byte ptr ds:[eax], al
0012A65A     0000           add     byte ptr ds:[eax], al
0012A65C     0000           add     byte ptr ds:[eax], al
0012A65E     0000           add     byte ptr ds:[eax], al
0012A660     0000           add     byte ptr ds:[eax], al
0012A662     0000           add     byte ptr ds:[eax], al
0012A664     0000           add     byte ptr ds:[eax], al
0012A666     0000           add     byte ptr ds:[eax], al
0012A668     0000           add     byte ptr ds:[eax], al
0012A66A     0000           add     byte ptr ds:[eax], al
0012A66C     0000           add     byte ptr ds:[eax], al
0012A66E     0000           add     byte ptr ds:[eax], al
0012A670     0000           add     byte ptr ds:[eax], al
0012A672     0000           add     byte ptr ds:[eax], al
0012A674     0000           add     byte ptr ds:[eax], al
0012A676     0000           add     byte ptr ds:[eax], al
0012A678     0000           add     byte ptr ds:[eax], al
0012A67A     0000           add     byte ptr ds:[eax], al
0012A67C     0000           add     byte ptr ds:[eax], al
0012A67E     0000           add     byte ptr ds:[eax], al
0012A680     0000           add     byte ptr ds:[eax], al
0012A682     0000           add     byte ptr ds:[eax], al
0012A684     0000           add     byte ptr ds:[eax], al
0012A686     0000           add     byte ptr ds:[eax], al
0012A688     0000           add     byte ptr ds:[eax], al
0012A68A     0000           add     byte ptr ds:[eax], al
0012A68C     0000           add     byte ptr ds:[eax], al
0012A68E     0000           add     byte ptr ds:[eax], al
0012A690     0000           add     byte ptr ds:[eax], al
0012A692     0000           add     byte ptr ds:[eax], al
0012A694     0000           add     byte ptr ds:[eax], al
0012A696     0000           add     byte ptr ds:[eax], al
0012A698     0000           add     byte ptr ds:[eax], al
0012A69A     0000           add     byte ptr ds:[eax], al
0012A69C     0000           add     byte ptr ds:[eax], al
0012A69E     0000           add     byte ptr ds:[eax], al
0012A6A0     0000           add     byte ptr ds:[eax], al
0012A6A2     0000           add     byte ptr ds:[eax], al
0012A6A4     0000           add     byte ptr ds:[eax], al
0012A6A6     0000           add     byte ptr ds:[eax], al
0012A6A8     0000           add     byte ptr ds:[eax], al
0012A6AA     0000           add     byte ptr ds:[eax], al
0012A6AC     0000           add     byte ptr ds:[eax], al
0012A6AE     0000           add     byte ptr ds:[eax], al
0012A6B0     0000           add     byte ptr ds:[eax], al
0012A6B2     0000           add     byte ptr ds:[eax], al
0012A6B4     0000           add     byte ptr ds:[eax], al
0012A6B6     0000           add     byte ptr ds:[eax], al
0012A6B8     0000           add     byte ptr ds:[eax], al
0012A6BA     0000           add     byte ptr ds:[eax], al
0012A6BC     0000           add     byte ptr ds:[eax], al
0012A6BE     0000           add     byte ptr ds:[eax], al
0012A6C0     0000           add     byte ptr ds:[eax], al
0012A6C2     0000           add     byte ptr ds:[eax], al
0012A6C4     0000           add     byte ptr ds:[eax], al
0012A6C6     0000           add     byte ptr ds:[eax], al
0012A6C8     0000           add     byte ptr ds:[eax], al
0012A6CA     0000           add     byte ptr ds:[eax], al
0012A6CC     0000           add     byte ptr ds:[eax], al
0012A6CE     0000           add     byte ptr ds:[eax], al
0012A6D0     0000           add     byte ptr ds:[eax], al
0012A6D2     0000           add     byte ptr ds:[eax], al
0012A6D4     0000           add     byte ptr ds:[eax], al
0012A6D6     0000           add     byte ptr ds:[eax], al
0012A6D8     0000           add     byte ptr ds:[eax], al
0012A6DA     0000           add     byte ptr ds:[eax], al
0012A6DC     0000           add     byte ptr ds:[eax], al
0012A6DE     0000           add     byte ptr ds:[eax], al
0012A6E0     0000           add     byte ptr ds:[eax], al
0012A6E2     0000           add     byte ptr ds:[eax], al
0012A6E4     0000           add     byte ptr ds:[eax], al
0012A6E6     0000           add     byte ptr ds:[eax], al
0012A6E8     0000           add     byte ptr ds:[eax], al
0012A6EA     0000           add     byte ptr ds:[eax], al
0012A6EC     0000           add     byte ptr ds:[eax], al
0012A6EE     0000           add     byte ptr ds:[eax], al
0012A6F0     0000           add     byte ptr ds:[eax], al
0012A6F2     0000           add     byte ptr ds:[eax], al
0012A6F4     0000           add     byte ptr ds:[eax], al
0012A6F6     0000           add     byte ptr ds:[eax], al
0012A6F8     0000           add     byte ptr ds:[eax], al
0012A6FA     0000           add     byte ptr ds:[eax], al
0012A6FC     0000           add     byte ptr ds:[eax], al
0012A6FE     0000           add     byte ptr ds:[eax], al
0012A700     0000           add     byte ptr ds:[eax], al
0012A702     0000           add     byte ptr ds:[eax], al
0012A704     0000           add     byte ptr ds:[eax], al
0012A706     0000           add     byte ptr ds:[eax], al
0012A708     0000           add     byte ptr ds:[eax], al
0012A70A     0000           add     byte ptr ds:[eax], al
0012A70C     0000           add     byte ptr ds:[eax], al
0012A70E     0000           add     byte ptr ds:[eax], al
0012A710     0000           add     byte ptr ds:[eax], al
0012A712     0000           add     byte ptr ds:[eax], al
0012A714     0000           add     byte ptr ds:[eax], al
0012A716     0000           add     byte ptr ds:[eax], al
0012A718     0000           add     byte ptr ds:[eax], al
0012A71A     0000           add     byte ptr ds:[eax], al
0012A71C     0000           add     byte ptr ds:[eax], al
0012A71E     0000           add     byte ptr ds:[eax], al
0012A720     0000           add     byte ptr ds:[eax], al
0012A722     0000           add     byte ptr ds:[eax], al
0012A724     0000           add     byte ptr ds:[eax], al
0012A726     0000           add     byte ptr ds:[eax], al
0012A728     0000           add     byte ptr ds:[eax], al
0012A72A     0000           add     byte ptr ds:[eax], al
0012A72C     0000           add     byte ptr ds:[eax], al
0012A72E     0000           add     byte ptr ds:[eax], al
0012A730     0000           add     byte ptr ds:[eax], al
0012A732     0000           add     byte ptr ds:[eax], al
0012A734     0000           add     byte ptr ds:[eax], al
0012A736     0000           add     byte ptr ds:[eax], al
0012A738     0000           add     byte ptr ds:[eax], al
0012A73A     0000           add     byte ptr ds:[eax], al
0012A73C     0000           add     byte ptr ds:[eax], al
0012A73E     0000           add     byte ptr ds:[eax], al
0012A740     0000           add     byte ptr ds:[eax], al
0012A742     0000           add     byte ptr ds:[eax], al
0012A744     0000           add     byte ptr ds:[eax], al
0012A746     0000           add     byte ptr ds:[eax], al
0012A748     0000           add     byte ptr ds:[eax], al
0012A74A     0000           add     byte ptr ds:[eax], al
0012A74C     0000           add     byte ptr ds:[eax], al
0012A74E     0000           add     byte ptr ds:[eax], al
0012A750     0000           add     byte ptr ds:[eax], al
0012A752     0000           add     byte ptr ds:[eax], al
0012A754     0000           add     byte ptr ds:[eax], al
0012A756     0000           add     byte ptr ds:[eax], al
0012A758     0000           add     byte ptr ds:[eax], al
0012A75A     0000           add     byte ptr ds:[eax], al
0012A75C     0000           add     byte ptr ds:[eax], al
0012A75E     0000           add     byte ptr ds:[eax], al
0012A760     0000           add     byte ptr ds:[eax], al
0012A762     0000           add     byte ptr ds:[eax], al
0012A764     0000           add     byte ptr ds:[eax], al
0012A766     0000           add     byte ptr ds:[eax], al
0012A768     0000           add     byte ptr ds:[eax], al
0012A76A     0000           add     byte ptr ds:[eax], al
0012A76C     0000           add     byte ptr ds:[eax], al
0012A76E     0000           add     byte ptr ds:[eax], al
0012A770     0000           add     byte ptr ds:[eax], al
0012A772     0000           add     byte ptr ds:[eax], al
0012A774     0000           add     byte ptr ds:[eax], al
0012A776     0000           add     byte ptr ds:[eax], al
0012A778     0000           add     byte ptr ds:[eax], al
0012A77A     0000           add     byte ptr ds:[eax], al
0012A77C     0000           add     byte ptr ds:[eax], al
0012A77E     0000           add     byte ptr ds:[eax], al
0012A780     0000           add     byte ptr ds:[eax], al
0012A782     0000           add     byte ptr ds:[eax], al
0012A784     0000           add     byte ptr ds:[eax], al
0012A786     0000           add     byte ptr ds:[eax], al
0012A788     0000           add     byte ptr ds:[eax], al
0012A78A     0000           add     byte ptr ds:[eax], al
0012A78C     0000           add     byte ptr ds:[eax], al
0012A78E     0000           add     byte ptr ds:[eax], al
0012A790     0000           add     byte ptr ds:[eax], al
0012A792     0000           add     byte ptr ds:[eax], al
0012A794     0000           add     byte ptr ds:[eax], al
0012A796     0000           add     byte ptr ds:[eax], al
0012A798     0000           add     byte ptr ds:[eax], al
0012A79A     0000           add     byte ptr ds:[eax], al
0012A79C     0000           add     byte ptr ds:[eax], al
0012A79E     0000           add     byte ptr ds:[eax], al
0012A7A0     0000           add     byte ptr ds:[eax], al
0012A7A2     0000           add     byte ptr ds:[eax], al
0012A7A4     0000           add     byte ptr ds:[eax], al
0012A7A6     0000           add     byte ptr ds:[eax], al
0012A7A8     0000           add     byte ptr ds:[eax], al
0012A7AA     0000           add     byte ptr ds:[eax], al
0012A7AC     0000           add     byte ptr ds:[eax], al
0012A7AE     0000           add     byte ptr ds:[eax], al
0012A7B0     0000           add     byte ptr ds:[eax], al
0012A7B2     0000           add     byte ptr ds:[eax], al
0012A7B4     0000           add     byte ptr ds:[eax], al
0012A7B6     0000           add     byte ptr ds:[eax], al
0012A7B8     0000           add     byte ptr ds:[eax], al
0012A7BA     0000           add     byte ptr ds:[eax], al
0012A7BC     0000           add     byte ptr ds:[eax], al
0012A7BE     0000           add     byte ptr ds:[eax], al
0012A7C0     0000           add     byte ptr ds:[eax], al
0012A7C2     0000           add     byte ptr ds:[eax], al
0012A7C4     0000           add     byte ptr ds:[eax], al
0012A7C6     0000           add     byte ptr ds:[eax], al
0012A7C8     0000           add     byte ptr ds:[eax], al
0012A7CA     0000           add     byte ptr ds:[eax], al
0012A7CC     0000           add     byte ptr ds:[eax], al
0012A7CE     0000           add     byte ptr ds:[eax], al
0012A7D0     0000           add     byte ptr ds:[eax], al
0012A7D2     0000           add     byte ptr ds:[eax], al
0012A7D4     0000           add     byte ptr ds:[eax], al
0012A7D6     0000           add     byte ptr ds:[eax], al
0012A7D8     0000           add     byte ptr ds:[eax], al
0012A7DA     0000           add     byte ptr ds:[eax], al
0012A7DC     0000           add     byte ptr ds:[eax], al
0012A7DE     0000           add     byte ptr ds:[eax], al
0012A7E0     0000           add     byte ptr ds:[eax], al
0012A7E2     0000           add     byte ptr ds:[eax], al
0012A7E4     0000           add     byte ptr ds:[eax], al
0012A7E6     0000           add     byte ptr ds:[eax], al
0012A7E8     0000           add     byte ptr ds:[eax], al
0012A7EA     0000           add     byte ptr ds:[eax], al
0012A7EC     0000           add     byte ptr ds:[eax], al
0012A7EE     0000           add     byte ptr ds:[eax], al
0012A7F0     0000           add     byte ptr ds:[eax], al
0012A7F2     0000           add     byte ptr ds:[eax], al
0012A7F4     0000           add     byte ptr ds:[eax], al
0012A7F6     0000           add     byte ptr ds:[eax], al
0012A7F8     0000           add     byte ptr ds:[eax], al
0012A7FA     0000           add     byte ptr ds:[eax], al
0012A7FC     0000           add     byte ptr ds:[eax], al
0012A7FE     0000           add     byte ptr ds:[eax], al
0012A800     0000           add     byte ptr ds:[eax], al
0012A802     0000           add     byte ptr ds:[eax], al
0012A804     0000           add     byte ptr ds:[eax], al
0012A806     0000           add     byte ptr ds:[eax], al
0012A808     0000           add     byte ptr ds:[eax], al
0012A80A     0000           add     byte ptr ds:[eax], al
0012A80C     0000           add     byte ptr ds:[eax], al
0012A80E     0000           add     byte ptr ds:[eax], al
0012A810     0000           add     byte ptr ds:[eax], al
0012A812     0000           add     byte ptr ds:[eax], al
0012A814     0000           add     byte ptr ds:[eax], al
0012A816     0000           add     byte ptr ds:[eax], al
0012A818     0000           add     byte ptr ds:[eax], al
0012A81A     0000           add     byte ptr ds:[eax], al
0012A81C     0000           add     byte ptr ds:[eax], al
0012A81E     0000           add     byte ptr ds:[eax], al
0012A820     0000           add     byte ptr ds:[eax], al
0012A822     0000           add     byte ptr ds:[eax], al
0012A824     0000           add     byte ptr ds:[eax], al
0012A826     0000           add     byte ptr ds:[eax], al
0012A828     0000           add     byte ptr ds:[eax], al
0012A82A     0000           add     byte ptr ds:[eax], al
0012A82C     0000           add     byte ptr ds:[eax], al
0012A82E     0000           add     byte ptr ds:[eax], al
0012A830     0000           add     byte ptr ds:[eax], al
0012A832     0000           add     byte ptr ds:[eax], al
0012A834     0000           add     byte ptr ds:[eax], al
0012A836     0000           add     byte ptr ds:[eax], al
0012A838     0000           add     byte ptr ds:[eax], al
0012A83A     0000           add     byte ptr ds:[eax], al
0012A83C     44             inc     esp
0012A83D     87947C 7F1E91  xchg    dword ptr ss:[edi*2+esp+ntdll.7C911E7F], edx
0012A844     FC             cld
0012A845     B8 12000000    mov     eax, 12
0012A84A     0000           add     byte ptr ds:[eax], al
0012A84C     0136           add     dword ptr ds:[esi], esi
0012A84E     9C             pushfd
0012A84F     0000           add     byte ptr ds:[eax], al
0012A851     0000           add     byte ptr ds:[eax], al
0012A853     0000           add     byte ptr ds:[eax], al
0012A855     0000           add     byte ptr ds:[eax], al
0012A857     0000           add     byte ptr ds:[eax], al
0012A859     0000           add     byte ptr ds:[eax], al
0012A85B     0000           add     byte ptr ds:[eax], al
0012A85D     0000           add     byte ptr ds:[eax], al
0012A85F     0000           add     byte ptr ds:[eax], al
0012A861     0000           add     byte ptr ds:[eax], al
0012A863     0000           add     byte ptr ds:[eax], al
0012A865     0000           add     byte ptr ds:[eax], al
0012A867     0000           add     byte ptr ds:[eax], al
0012A869     0000           add     byte ptr ds:[eax], al
0012A86B     0000           add     byte ptr ds:[eax], al
0012A86D     0000           add     byte ptr ds:[eax], al
0012A86F     0000           add     byte ptr ds:[eax], al
0012A871     0000           add     byte ptr ds:[eax], al
0012A873     0000           add     byte ptr ds:[eax], al
0012A875     0000           add     byte ptr ds:[eax], al
0012A877     0000           add     byte ptr ds:[eax], al
0012A879     0000           add     byte ptr ds:[eax], al
0012A87B     0000           add     byte ptr ds:[eax], al
0012A87D     0000           add     byte ptr ds:[eax], al
0012A87F     0000           add     byte ptr ds:[eax], al
0012A881     0000           add     byte ptr ds:[eax], al
0012A883     0000           add     byte ptr ds:[eax], al
0012A885     0000           add     byte ptr ds:[eax], al
0012A887     0000           add     byte ptr ds:[eax], al
0012A889     0000           add     byte ptr ds:[eax], al
0012A88B     0000           add     byte ptr ds:[eax], al
0012A88D     0000           add     byte ptr ds:[eax], al
0012A88F     0000           add     byte ptr ds:[eax], al
0012A891     0000           add     byte ptr ds:[eax], al
0012A893     0000           add     byte ptr ds:[eax], al
0012A895     0000           add     byte ptr ds:[eax], al
0012A897     0000           add     byte ptr ds:[eax], al
0012A899     0000           add     byte ptr ds:[eax], al
0012A89B     0000           add     byte ptr ds:[eax], al
0012A89D     0000           add     byte ptr ds:[eax], al
0012A89F     0000           add     byte ptr ds:[eax], al
0012A8A1     0000           add     byte ptr ds:[eax], al
0012A8A3     0000           add     byte ptr ds:[eax], al
0012A8A5     0000           add     byte ptr ds:[eax], al
0012A8A7     0000           add     byte ptr ds:[eax], al
0012A8A9     0000           add     byte ptr ds:[eax], al
0012A8AB     0000           add     byte ptr ds:[eax], al
0012A8AD     0000           add     byte ptr ds:[eax], al
0012A8AF     0000           add     byte ptr ds:[eax], al
0012A8B1     0000           add     byte ptr ds:[eax], al
0012A8B3     0000           add     byte ptr ds:[eax], al
0012A8B5     0000           add     byte ptr ds:[eax], al
0012A8B7     0000           add     byte ptr ds:[eax], al
0012A8B9     0000           add     byte ptr ds:[eax], al
0012A8BB     0000           add     byte ptr ds:[eax], al
0012A8BD     0000           add     byte ptr ds:[eax], al
0012A8BF     0000           add     byte ptr ds:[eax], al
0012A8C1     0000           add     byte ptr ds:[eax], al
0012A8C3     0000           add     byte ptr ds:[eax], al
0012A8C5     0000           add     byte ptr ds:[eax], al
0012A8C7     0000           add     byte ptr ds:[eax], al
0012A8C9     0000           add     byte ptr ds:[eax], al
0012A8CB     0000           add     byte ptr ds:[eax], al
0012A8CD     0000           add     byte ptr ds:[eax], al
0012A8CF     0000           add     byte ptr ds:[eax], al
0012A8D1     0000           add     byte ptr ds:[eax], al
0012A8D3     0000           add     byte ptr ds:[eax], al
0012A8D5     0000           add     byte ptr ds:[eax], al
0012A8D7     0000           add     byte ptr ds:[eax], al
0012A8D9     0000           add     byte ptr ds:[eax], al
0012A8DB     0000           add     byte ptr ds:[eax], al
0012A8DD     0000           add     byte ptr ds:[eax], al
0012A8DF     0000           add     byte ptr ds:[eax], al
0012A8E1     0000           add     byte ptr ds:[eax], al
0012A8E3     0001           add     byte ptr ds:[ecx], al
0012A8E5     0095 00000000  add     byte ptr ss:[ebp], dl
0012A8EB     0000           add     byte ptr ds:[eax], al
0012A8ED     0000           add     byte ptr ds:[eax], al
0012A8EF     0000           add     byte ptr ds:[eax], al
0012A8F1     0000           add     byte ptr ds:[eax], al
0012A8F3     0000           add     byte ptr ds:[eax], al
0012A8F5     0000           add     byte ptr ds:[eax], al
0012A8F7     0000           add     byte ptr ds:[eax], al
0012A8F9     0000           add     byte ptr ds:[eax], al
0012A8FB     0000           add     byte ptr ds:[eax], al
0012A8FD     0000           add     byte ptr ds:[eax], al
0012A8FF     0000           add     byte ptr ds:[eax], al
0012A901     0000           add     byte ptr ds:[eax], al
0012A903     0000           add     byte ptr ds:[eax], al
0012A905     0000           add     byte ptr ds:[eax], al
0012A907     0000           add     byte ptr ds:[eax], al
0012A909     0000           add     byte ptr ds:[eax], al
0012A90B     0000           add     byte ptr ds:[eax], al
0012A90D     0000           add     byte ptr ds:[eax], al
0012A90F     0000           add     byte ptr ds:[eax], al
0012A911     0000           add     byte ptr ds:[eax], al
0012A913     0000           add     byte ptr ds:[eax], al
0012A915     0000           add     byte ptr ds:[eax], al
0012A917     0000           add     byte ptr ds:[eax], al
0012A919     0000           add     byte ptr ds:[eax], al
0012A91B     0000           add     byte ptr ds:[eax], al
0012A91D     0000           add     byte ptr ds:[eax], al
0012A91F     0000           add     byte ptr ds:[eax], al
0012A921     0000           add     byte ptr ds:[eax], al
0012A923     0000           add     byte ptr ds:[eax], al
0012A925     0000           add     byte ptr ds:[eax], al
0012A927     0000           add     byte ptr ds:[eax], al
0012A929     0000           add     byte ptr ds:[eax], al
0012A92B     0000           add     byte ptr ds:[eax], al
0012A92D     0000           add     byte ptr ds:[eax], al
0012A92F     0000           add     byte ptr ds:[eax], al
0012A931     0000           add     byte ptr ds:[eax], al
0012A933     0000           add     byte ptr ds:[eax], al
0012A935     0000           add     byte ptr ds:[eax], al
0012A937     0000           add     byte ptr ds:[eax], al
0012A939     0000           add     byte ptr ds:[eax], al
0012A93B     0000           add     byte ptr ds:[eax], al
0012A93D     0000           add     byte ptr ds:[eax], al
0012A93F     0000           add     byte ptr ds:[eax], al
0012A941     0000           add     byte ptr ds:[eax], al
0012A943     0000           add     byte ptr ds:[eax], al
0012A945     0000           add     byte ptr ds:[eax], al
0012A947     0000           add     byte ptr ds:[eax], al
0012A949     0000           add     byte ptr ds:[eax], al
0012A94B     0000           add     byte ptr ds:[eax], al
0012A94D     0000           add     byte ptr ds:[eax], al
0012A94F     0000           add     byte ptr ds:[eax], al
0012A951     0000           add     byte ptr ds:[eax], al
0012A953     0000           add     byte ptr ds:[eax], al
0012A955     0000           add     byte ptr ds:[eax], al
0012A957     0000           add     byte ptr ds:[eax], al
0012A959     0000           add     byte ptr ds:[eax], al
0012A95B     0000           add     byte ptr ds:[eax], al
0012A95D     0000           add     byte ptr ds:[eax], al
0012A95F     0000           add     byte ptr ds:[eax], al
0012A961     0000           add     byte ptr ds:[eax], al
0012A963     0000           add     byte ptr ds:[eax], al
0012A965     0000           add     byte ptr ds:[eax], al
0012A967     0000           add     byte ptr ds:[eax], al
0012A969     0000           add     byte ptr ds:[eax], al
0012A96B     0000           add     byte ptr ds:[eax], al
0012A96D     0000           add     byte ptr ds:[eax], al
0012A96F     0000           add     byte ptr ds:[eax], al
0012A971     0000           add     byte ptr ds:[eax], al
0012A973     0000           add     byte ptr ds:[eax], al
0012A975     0000           add     byte ptr ds:[eax], al
0012A977     0000           add     byte ptr ds:[eax], al
0012A979     0000           add     byte ptr ds:[eax], al
0012A97B     0000           add     byte ptr ds:[eax], al
0012A97D     0000           add     byte ptr ds:[eax], al
0012A97F     0000           add     byte ptr ds:[eax], al
0012A981     0000           add     byte ptr ds:[eax], al
0012A983     0000           add     byte ptr ds:[eax], al
0012A985     0000           add     byte ptr ds:[eax], al
0012A987     0000           add     byte ptr ds:[eax], al
0012A989     0000           add     byte ptr ds:[eax], al
0012A98B     0000           add     byte ptr ds:[eax], al
0012A98D     0000           add     byte ptr ds:[eax], al
0012A98F     0000           add     byte ptr ds:[eax], al
0012A991     0000           add     byte ptr ds:[eax], al
0012A993     0000           add     byte ptr ds:[eax], al
0012A995     0000           add     byte ptr ds:[eax], al
0012A997     0000           add     byte ptr ds:[eax], al
0012A999     0000           add     byte ptr ds:[eax], al
0012A99B     0000           add     byte ptr ds:[eax], al
0012A99D     0000           add     byte ptr ds:[eax], al
0012A99F     0000           add     byte ptr ds:[eax], al
0012A9A1     0000           add     byte ptr ds:[eax], al
0012A9A3     0000           add     byte ptr ds:[eax], al
0012A9A5     0000           add     byte ptr ds:[eax], al
0012A9A7     0000           add     byte ptr ds:[eax], al
0012A9A9     0000           add     byte ptr ds:[eax], al
0012A9AB     0000           add     byte ptr ds:[eax], al
0012A9AD     0000           add     byte ptr ds:[eax], al
0012A9AF     0000           add     byte ptr ds:[eax], al
0012A9B1     0000           add     byte ptr ds:[eax], al
0012A9B3     0000           add     byte ptr ds:[eax], al
0012A9B5     0000           add     byte ptr ds:[eax], al
0012A9B7     0000           add     byte ptr ds:[eax], al
0012A9B9     0000           add     byte ptr ds:[eax], al
0012A9BB     0000           add     byte ptr ds:[eax], al
0012A9BD     0000           add     byte ptr ds:[eax], al
0012A9BF     0000           add     byte ptr ds:[eax], al
0012A9C1     0000           add     byte ptr ds:[eax], al
0012A9C3     0000           add     byte ptr ds:[eax], al
0012A9C5     0000           add     byte ptr ds:[eax], al
0012A9C7     0000           add     byte ptr ds:[eax], al
0012A9C9     0000           add     byte ptr ds:[eax], al
0012A9CB     0000           add     byte ptr ds:[eax], al
0012A9CD     0000           add     byte ptr ds:[eax], al
0012A9CF     0000           add     byte ptr ds:[eax], al
0012A9D1     0000           add     byte ptr ds:[eax], al
0012A9D3     0000           add     byte ptr ds:[eax], al
0012A9D5     0000           add     byte ptr ds:[eax], al
0012A9D7     0000           add     byte ptr ds:[eax], al
0012A9D9     0000           add     byte ptr ds:[eax], al
0012A9DB     0000           add     byte ptr ds:[eax], al
0012A9DD     0000           add     byte ptr ds:[eax], al
0012A9DF     0000           add     byte ptr ds:[eax], al
0012A9E1     0000           add     byte ptr ds:[eax], al
0012A9E3     0000           add     byte ptr ds:[eax], al
0012A9E5     0000           add     byte ptr ds:[eax], al
0012A9E7     0000           add     byte ptr ds:[eax], al
0012A9E9     0000           add     byte ptr ds:[eax], al
0012A9EB     0000           add     byte ptr ds:[eax], al
0012A9ED     0000           add     byte ptr ds:[eax], al
0012A9EF     0000           add     byte ptr ds:[eax], al
0012A9F1     0000           add     byte ptr ds:[eax], al
0012A9F3     0000           add     byte ptr ds:[eax], al
0012A9F5     0000           add     byte ptr ds:[eax], al
0012A9F7     0000           add     byte ptr ds:[eax], al
0012A9F9     0000           add     byte ptr ds:[eax], al
0012A9FB     0000           add     byte ptr ds:[eax], al
0012A9FD     0000           add     byte ptr ds:[eax], al
0012A9FF     0000           add     byte ptr ds:[eax], al
0012AA01     0000           add     byte ptr ds:[eax], al
0012AA03     0000           add     byte ptr ds:[eax], al
0012AA05     0000           add     byte ptr ds:[eax], al
0012AA07     0000           add     byte ptr ds:[eax], al
0012AA09     0000           add     byte ptr ds:[eax], al
0012AA0B     0000           add     byte ptr ds:[eax], al
0012AA0D     0000           add     byte ptr ds:[eax], al
0012AA0F     0000           add     byte ptr ds:[eax], al
0012AA11     0000           add     byte ptr ds:[eax], al
0012AA13     0000           add     byte ptr ds:[eax], al
0012AA15     0000           add     byte ptr ds:[eax], al
0012AA17     0000           add     byte ptr ds:[eax], al
0012AA19     0000           add     byte ptr ds:[eax], al
0012AA1B     0000           add     byte ptr ds:[eax], al
0012AA1D     0000           add     byte ptr ds:[eax], al
0012AA1F     0000           add     byte ptr ds:[eax], al
0012AA21     0000           add     byte ptr ds:[eax], al
0012AA23     0000           add     byte ptr ds:[eax], al
0012AA25     0000           add     byte ptr ds:[eax], al
0012AA27     0000           add     byte ptr ds:[eax], al
0012AA29     0000           add     byte ptr ds:[eax], al
0012AA2B     0000           add     byte ptr ds:[eax], al
0012AA2D     0000           add     byte ptr ds:[eax], al
0012AA2F     0000           add     byte ptr ds:[eax], al
0012AA31     0000           add     byte ptr ds:[eax], al
0012AA33     0000           add     byte ptr ds:[eax], al
0012AA35     0000           add     byte ptr ds:[eax], al
0012AA37     0000           add     byte ptr ds:[eax], al
0012AA39     0000           add     byte ptr ds:[eax], al
0012AA3B     0000           add     byte ptr ds:[eax], al
0012AA3D     0000           add     byte ptr ds:[eax], al
0012AA3F     0000           add     byte ptr ds:[eax], al
0012AA41     0000           add     byte ptr ds:[eax], al
0012AA43     0000           add     byte ptr ds:[eax], al
0012AA45     0000           add     byte ptr ds:[eax], al
0012AA47     0000           add     byte ptr ds:[eax], al
0012AA49     0000           add     byte ptr ds:[eax], al
0012AA4B     0000           add     byte ptr ds:[eax], al
0012AA4D     0000           add     byte ptr ds:[eax], al
0012AA4F     0000           add     byte ptr ds:[eax], al
0012AA51     0000           add     byte ptr ds:[eax], al
0012AA53     0000           add     byte ptr ds:[eax], al
0012AA55     0000           add     byte ptr ds:[eax], al
0012AA57     0000           add     byte ptr ds:[eax], al
0012AA59     0000           add     byte ptr ds:[eax], al
0012AA5B     0000           add     byte ptr ds:[eax], al
0012AA5D     0000           add     byte ptr ds:[eax], al
0012AA5F     0000           add     byte ptr ds:[eax], al
0012AA61     0000           add     byte ptr ds:[eax], al
0012AA63     0000           add     byte ptr ds:[eax], al
0012AA65     0000           add     byte ptr ds:[eax], al
0012AA67     0000           add     byte ptr ds:[eax], al
0012AA69     0000           add     byte ptr ds:[eax], al
0012AA6B     0000           add     byte ptr ds:[eax], al
0012AA6D     0000           add     byte ptr ds:[eax], al
0012AA6F     0000           add     byte ptr ds:[eax], al
0012AA71     0000           add     byte ptr ds:[eax], al
0012AA73     0000           add     byte ptr ds:[eax], al
0012AA75     0000           add     byte ptr ds:[eax], al
0012AA77     0000           add     byte ptr ds:[eax], al
0012AA79     0000           add     byte ptr ds:[eax], al
0012AA7B     0000           add     byte ptr ds:[eax], al
0012AA7D     0000           add     byte ptr ds:[eax], al
0012AA7F     0000           add     byte ptr ds:[eax], al
0012AA81     0000           add     byte ptr ds:[eax], al
0012AA83     0000           add     byte ptr ds:[eax], al
0012AA85     0000           add     byte ptr ds:[eax], al
0012AA87     0000           add     byte ptr ds:[eax], al
0012AA89     0000           add     byte ptr ds:[eax], al
0012AA8B     0000           add     byte ptr ds:[eax], al
0012AA8D     0000           add     byte ptr ds:[eax], al
0012AA8F     0000           add     byte ptr ds:[eax], al
0012AA91     0000           add     byte ptr ds:[eax], al
0012AA93     0000           add     byte ptr ds:[eax], al
0012AA95     0000           add     byte ptr ds:[eax], al
0012AA97     0000           add     byte ptr ds:[eax], al
0012AA99     0000           add     byte ptr ds:[eax], al
0012AA9B     0000           add     byte ptr ds:[eax], al
0012AA9D     0000           add     byte ptr ds:[eax], al
0012AA9F     0000           add     byte ptr ds:[eax], al
0012AAA1     0000           add     byte ptr ds:[eax], al
0012AAA3     0000           add     byte ptr ds:[eax], al
0012AAA5     0000           add     byte ptr ds:[eax], al
0012AAA7     0000           add     byte ptr ds:[eax], al
0012AAA9     0000           add     byte ptr ds:[eax], al
0012AAAB     0000           add     byte ptr ds:[eax], al
0012AAAD     0000           add     byte ptr ds:[eax], al
0012AAAF     0000           add     byte ptr ds:[eax], al
0012AAB1     0000           add     byte ptr ds:[eax], al
0012AAB3     0000           add     byte ptr ds:[eax], al
0012AAB5     0000           add     byte ptr ds:[eax], al
0012AAB7     0000           add     byte ptr ds:[eax], al
0012AAB9     0000           add     byte ptr ds:[eax], al
0012AABB     0000           add     byte ptr ds:[eax], al
0012AABD     0000           add     byte ptr ds:[eax], al
0012AABF     0000           add     byte ptr ds:[eax], al
0012AAC1     0000           add     byte ptr ds:[eax], al
0012AAC3     0000           add     byte ptr ds:[eax], al
0012AAC5     0000           add     byte ptr ds:[eax], al
0012AAC7     0000           add     byte ptr ds:[eax], al
0012AAC9     0000           add     byte ptr ds:[eax], al
0012AACB     0000           add     byte ptr ds:[eax], al
0012AACD     0000           add     byte ptr ds:[eax], al
0012AACF     0000           add     byte ptr ds:[eax], al
0012AAD1     0000           add     byte ptr ds:[eax], al
0012AAD3     0000           add     byte ptr ds:[eax], al
0012AAD5     0000           add     byte ptr ds:[eax], al
0012AAD7     0000           add     byte ptr ds:[eax], al
0012AAD9     0000           add     byte ptr ds:[eax], al
0012AADB     0000           add     byte ptr ds:[eax], al
0012AADD     0000           add     byte ptr ds:[eax], al
0012AADF     0000           add     byte ptr ds:[eax], al
0012AAE1     0000           add     byte ptr ds:[eax], al
0012AAE3     0000           add     byte ptr ds:[eax], al
0012AAE5     0000           add     byte ptr ds:[eax], al
0012AAE7     0000           add     byte ptr ds:[eax], al
0012AAE9     0000           add     byte ptr ds:[eax], al
0012AAEB     0000           add     byte ptr ds:[eax], al
0012AAED     0000           add     byte ptr ds:[eax], al
0012AAEF     0000           add     byte ptr ds:[eax], al
0012AAF1     0000           add     byte ptr ds:[eax], al
0012AAF3     0000           add     byte ptr ds:[eax], al
0012AAF5     0000           add     byte ptr ds:[eax], al
0012AAF7     0000           add     byte ptr ds:[eax], al
0012AAF9     0000           add     byte ptr ds:[eax], al
0012AAFB     0000           add     byte ptr ds:[eax], al
0012AAFD     0000           add     byte ptr ds:[eax], al
0012AAFF     0000           add     byte ptr ds:[eax], al
0012AB01     0000           add     byte ptr ds:[eax], al
0012AB03     0000           add     byte ptr ds:[eax], al
0012AB05     0000           add     byte ptr ds:[eax], al
0012AB07     0000           add     byte ptr ds:[eax], al
0012AB09     0000           add     byte ptr ds:[eax], al
0012AB0B     0000           add     byte ptr ds:[eax], al
0012AB0D     0000           add     byte ptr ds:[eax], al
0012AB0F     0000           add     byte ptr ds:[eax], al
0012AB11     0000           add     byte ptr ds:[eax], al
0012AB13     0000           add     byte ptr ds:[eax], al
0012AB15     0000           add     byte ptr ds:[eax], al
0012AB17     0000           add     byte ptr ds:[eax], al
0012AB19     0000           add     byte ptr ds:[eax], al
0012AB1B     0000           add     byte ptr ds:[eax], al
0012AB1D     0000           add     byte ptr ds:[eax], al
0012AB1F     0000           add     byte ptr ds:[eax], al
0012AB21     0000           add     byte ptr ds:[eax], al
0012AB23     0000           add     byte ptr ds:[eax], al
0012AB25     0000           add     byte ptr ds:[eax], al
0012AB27     0000           add     byte ptr ds:[eax], al
0012AB29     0000           add     byte ptr ds:[eax], al
0012AB2B     0000           add     byte ptr ds:[eax], al
0012AB2D     0000           add     byte ptr ds:[eax], al
0012AB2F     0000           add     byte ptr ds:[eax], al
0012AB31     0000           add     byte ptr ds:[eax], al
0012AB33     0000           add     byte ptr ds:[eax], al
0012AB35     0000           add     byte ptr ds:[eax], al
0012AB37     0000           add     byte ptr ds:[eax], al
0012AB39     0000           add     byte ptr ds:[eax], al
0012AB3B     0000           add     byte ptr ds:[eax], al
0012AB3D     0000           add     byte ptr ds:[eax], al
0012AB3F     0000           add     byte ptr ds:[eax], al
0012AB41     0000           add     byte ptr ds:[eax], al
0012AB43     0000           add     byte ptr ds:[eax], al
0012AB45     0000           add     byte ptr ds:[eax], al
0012AB47     0000           add     byte ptr ds:[eax], al
0012AB49     0000           add     byte ptr ds:[eax], al
0012AB4B     0000           add     byte ptr ds:[eax], al
0012AB4D     0000           add     byte ptr ds:[eax], al
0012AB4F     0000           add     byte ptr ds:[eax], al
0012AB51     0000           add     byte ptr ds:[eax], al
0012AB53     0000           add     byte ptr ds:[eax], al
0012AB55     0000           add     byte ptr ds:[eax], al
0012AB57     0000           add     byte ptr ds:[eax], al
0012AB59     0000           add     byte ptr ds:[eax], al
0012AB5B     0000           add     byte ptr ds:[eax], al
0012AB5D     0000           add     byte ptr ds:[eax], al
0012AB5F     0000           add     byte ptr ds:[eax], al
0012AB61     0000           add     byte ptr ds:[eax], al
0012AB63     0000           add     byte ptr ds:[eax], al
0012AB65     0000           add     byte ptr ds:[eax], al
0012AB67     0000           add     byte ptr ds:[eax], al
0012AB69     0000           add     byte ptr ds:[eax], al
0012AB6B     0000           add     byte ptr ds:[eax], al
0012AB6D     0000           add     byte ptr ds:[eax], al
0012AB6F     0000           add     byte ptr ds:[eax], al
0012AB71     0000           add     byte ptr ds:[eax], al
0012AB73     0000           add     byte ptr ds:[eax], al
0012AB75     0000           add     byte ptr ds:[eax], al
0012AB77     0000           add     byte ptr ds:[eax], al
0012AB79     0000           add     byte ptr ds:[eax], al
0012AB7B     0000           add     byte ptr ds:[eax], al
0012AB7D     0000           add     byte ptr ds:[eax], al
0012AB7F     0000           add     byte ptr ds:[eax], al
0012AB81     0000           add     byte ptr ds:[eax], al
0012AB83     0000           add     byte ptr ds:[eax], al
0012AB85     0000           add     byte ptr ds:[eax], al
0012AB87     0000           add     byte ptr ds:[eax], al
0012AB89     0000           add     byte ptr ds:[eax], al
0012AB8B     0000           add     byte ptr ds:[eax], al
0012AB8D     0000           add     byte ptr ds:[eax], al
0012AB8F     0000           add     byte ptr ds:[eax], al
0012AB91     0000           add     byte ptr ds:[eax], al
0012AB93     0000           add     byte ptr ds:[eax], al
0012AB95     0000           add     byte ptr ds:[eax], al
0012AB97     0000           add     byte ptr ds:[eax], al
0012AB99     0000           add     byte ptr ds:[eax], al
0012AB9B     0000           add     byte ptr ds:[eax], al
0012AB9D     0000           add     byte ptr ds:[eax], al
0012AB9F     0000           add     byte ptr ds:[eax], al
0012ABA1     0000           add     byte ptr ds:[eax], al
0012ABA3     0000           add     byte ptr ds:[eax], al
0012ABA5     0000           add     byte ptr ds:[eax], al
0012ABA7     0000           add     byte ptr ds:[eax], al
0012ABA9     0000           add     byte ptr ds:[eax], al
0012ABAB     0000           add     byte ptr ds:[eax], al
0012ABAD     0000           add     byte ptr ds:[eax], al
0012ABAF     0000           add     byte ptr ds:[eax], al
0012ABB1     0000           add     byte ptr ds:[eax], al
0012ABB3     0000           add     byte ptr ds:[eax], al
0012ABB5     0000           add     byte ptr ds:[eax], al
0012ABB7     0000           add     byte ptr ds:[eax], al
0012ABB9     0000           add     byte ptr ds:[eax], al
0012ABBB     0000           add     byte ptr ds:[eax], al
0012ABBD     0000           add     byte ptr ds:[eax], al
0012ABBF     0000           add     byte ptr ds:[eax], al
0012ABC1     0000           add     byte ptr ds:[eax], al
0012ABC3     0000           add     byte ptr ds:[eax], al
0012ABC5     0000           add     byte ptr ds:[eax], al
0012ABC7     0000           add     byte ptr ds:[eax], al
0012ABC9     0000           add     byte ptr ds:[eax], al
0012ABCB     0000           add     byte ptr ds:[eax], al
0012ABCD     0000           add     byte ptr ds:[eax], al
0012ABCF     0000           add     byte ptr ds:[eax], al
0012ABD1     0000           add     byte ptr ds:[eax], al
0012ABD3     0000           add     byte ptr ds:[eax], al
0012ABD5     0000           add     byte ptr ds:[eax], al
0012ABD7     0000           add     byte ptr ds:[eax], al
0012ABD9     0000           add     byte ptr ds:[eax], al
0012ABDB     0000           add     byte ptr ds:[eax], al
0012ABDD     0000           add     byte ptr ds:[eax], al
0012ABDF     0000           add     byte ptr ds:[eax], al
0012ABE1     0000           add     byte ptr ds:[eax], al
0012ABE3     0000           add     byte ptr ds:[eax], al
0012ABE5     0000           add     byte ptr ds:[eax], al
0012ABE7     0000           add     byte ptr ds:[eax], al
0012ABE9     0000           add     byte ptr ds:[eax], al
0012ABEB     0000           add     byte ptr ds:[eax], al
0012ABED     0000           add     byte ptr ds:[eax], al
0012ABEF     0000           add     byte ptr ds:[eax], al
0012ABF1     0000           add     byte ptr ds:[eax], al
0012ABF3     0000           add     byte ptr ds:[eax], al
0012ABF5     0000           add     byte ptr ds:[eax], al
0012ABF7     0000           add     byte ptr ds:[eax], al
0012ABF9     0000           add     byte ptr ds:[eax], al
0012ABFB     0000           add     byte ptr ds:[eax], al
0012ABFD     0000           add     byte ptr ds:[eax], al
0012ABFF     0000           add     byte ptr ds:[eax], al
0012AC01     0000           add     byte ptr ds:[eax], al
0012AC03     0000           add     byte ptr ds:[eax], al
0012AC05     0000           add     byte ptr ds:[eax], al
0012AC07     0000           add     byte ptr ds:[eax], al
0012AC09     0000           add     byte ptr ds:[eax], al
0012AC0B     0000           add     byte ptr ds:[eax], al
0012AC0D     0000           add     byte ptr ds:[eax], al
0012AC0F     0000           add     byte ptr ds:[eax], al
0012AC11     0000           add     byte ptr ds:[eax], al
0012AC13     0000           add     byte ptr ds:[eax], al
0012AC15     0000           add     byte ptr ds:[eax], al
0012AC17     0000           add     byte ptr ds:[eax], al
0012AC19     0000           add     byte ptr ds:[eax], al
0012AC1B     0000           add     byte ptr ds:[eax], al
0012AC1D     0000           add     byte ptr ds:[eax], al
0012AC1F     0000           add     byte ptr ds:[eax], al
0012AC21     0000           add     byte ptr ds:[eax], al
0012AC23     0000           add     byte ptr ds:[eax], al
0012AC25     0000           add     byte ptr ds:[eax], al
0012AC27     0000           add     byte ptr ds:[eax], al
0012AC29     0000           add     byte ptr ds:[eax], al
0012AC2B     0000           add     byte ptr ds:[eax], al
0012AC2D     0000           add     byte ptr ds:[eax], al
0012AC2F     0000           add     byte ptr ds:[eax], al
0012AC31     0000           add     byte ptr ds:[eax], al
0012AC33     0000           add     byte ptr ds:[eax], al
0012AC35     0000           add     byte ptr ds:[eax], al
0012AC37     0000           add     byte ptr ds:[eax], al
0012AC39     0000           add     byte ptr ds:[eax], al
0012AC3B     0000           add     byte ptr ds:[eax], al
0012AC3D     0000           add     byte ptr ds:[eax], al
0012AC3F     0000           add     byte ptr ds:[eax], al
0012AC41     0000           add     byte ptr ds:[eax], al
0012AC43     0000           add     byte ptr ds:[eax], al
0012AC45     0000           add     byte ptr ds:[eax], al
0012AC47     0000           add     byte ptr ds:[eax], al
0012AC49     0000           add     byte ptr ds:[eax], al
0012AC4B     0000           add     byte ptr ds:[eax], al
0012AC4D     0000           add     byte ptr ds:[eax], al
0012AC4F     0000           add     byte ptr ds:[eax], al
0012AC51     0000           add     byte ptr ds:[eax], al
0012AC53     0000           add     byte ptr ds:[eax], al
0012AC55     0000           add     byte ptr ds:[eax], al
0012AC57     0000           add     byte ptr ds:[eax], al
0012AC59     0000           add     byte ptr ds:[eax], al
0012AC5B     0000           add     byte ptr ds:[eax], al
0012AC5D     0000           add     byte ptr ds:[eax], al
0012AC5F     0000           add     byte ptr ds:[eax], al
0012AC61     0000           add     byte ptr ds:[eax], al
0012AC63     0000           add     byte ptr ds:[eax], al
0012AC65     0000           add     byte ptr ds:[eax], al
0012AC67     0000           add     byte ptr ds:[eax], al
0012AC69     0000           add     byte ptr ds:[eax], al
0012AC6B     0000           add     byte ptr ds:[eax], al
0012AC6D     0000           add     byte ptr ds:[eax], al
0012AC6F     0000           add     byte ptr ds:[eax], al
0012AC71     0000           add     byte ptr ds:[eax], al
0012AC73     0000           add     byte ptr ds:[eax], al
0012AC75     0000           add     byte ptr ds:[eax], al
0012AC77     0000           add     byte ptr ds:[eax], al
0012AC79     0000           add     byte ptr ds:[eax], al
0012AC7B     0000           add     byte ptr ds:[eax], al
0012AC7D     0000           add     byte ptr ds:[eax], al
0012AC7F     0000           add     byte ptr ds:[eax], al
0012AC81     0000           add     byte ptr ds:[eax], al
0012AC83     0000           add     byte ptr ds:[eax], al
0012AC85     0000           add     byte ptr ds:[eax], al
0012AC87     0000           add     byte ptr ds:[eax], al
0012AC89     0000           add     byte ptr ds:[eax], al
0012AC8B     0000           add     byte ptr ds:[eax], al
0012AC8D     0000           add     byte ptr ds:[eax], al
0012AC8F     0000           add     byte ptr ds:[eax], al
0012AC91     0000           add     byte ptr ds:[eax], al
0012AC93     0000           add     byte ptr ds:[eax], al
0012AC95     0000           add     byte ptr ds:[eax], al
0012AC97     0000           add     byte ptr ds:[eax], al
0012AC99     0000           add     byte ptr ds:[eax], al
0012AC9B     0000           add     byte ptr ds:[eax], al
0012AC9D     0000           add     byte ptr ds:[eax], al
0012AC9F     0000           add     byte ptr ds:[eax], al
0012ACA1     0000           add     byte ptr ds:[eax], al
0012ACA3     0000           add     byte ptr ds:[eax], al
0012ACA5     0000           add     byte ptr ds:[eax], al
0012ACA7     0000           add     byte ptr ds:[eax], al
0012ACA9     0000           add     byte ptr ds:[eax], al
0012ACAB     0000           add     byte ptr ds:[eax], al
0012ACAD     0000           add     byte ptr ds:[eax], al
0012ACAF     0000           add     byte ptr ds:[eax], al
0012ACB1     0000           add     byte ptr ds:[eax], al
0012ACB3     0000           add     byte ptr ds:[eax], al
0012ACB5     0000           add     byte ptr ds:[eax], al
0012ACB7     0000           add     byte ptr ds:[eax], al
0012ACB9     0000           add     byte ptr ds:[eax], al
0012ACBB     0000           add     byte ptr ds:[eax], al
0012ACBD     0000           add     byte ptr ds:[eax], al
0012ACBF     0000           add     byte ptr ds:[eax], al
0012ACC1     0000           add     byte ptr ds:[eax], al
0012ACC3     0000           add     byte ptr ds:[eax], al
0012ACC5     0000           add     byte ptr ds:[eax], al
0012ACC7     0000           add     byte ptr ds:[eax], al
0012ACC9     0000           add     byte ptr ds:[eax], al
0012ACCB     0000           add     byte ptr ds:[eax], al
0012ACCD     0000           add     byte ptr ds:[eax], al
0012ACCF     0000           add     byte ptr ds:[eax], al
0012ACD1     0000           add     byte ptr ds:[eax], al
0012ACD3     0000           add     byte ptr ds:[eax], al
0012ACD5     0000           add     byte ptr ds:[eax], al
0012ACD7     0000           add     byte ptr ds:[eax], al
0012ACD9     0000           add     byte ptr ds:[eax], al
0012ACDB     0000           add     byte ptr ds:[eax], al
0012ACDD     0000           add     byte ptr ds:[eax], al
0012ACDF     0000           add     byte ptr ds:[eax], al
0012ACE1     0000           add     byte ptr ds:[eax], al
0012ACE3     0000           add     byte ptr ds:[eax], al
0012ACE5     0000           add     byte ptr ds:[eax], al
0012ACE7     0000           add     byte ptr ds:[eax], al
0012ACE9     0000           add     byte ptr ds:[eax], al
0012ACEB     0000           add     byte ptr ds:[eax], al
0012ACED     0000           add     byte ptr ds:[eax], al
0012ACEF     0000           add     byte ptr ds:[eax], al
0012ACF1     0000           add     byte ptr ds:[eax], al
0012ACF3     0000           add     byte ptr ds:[eax], al
0012ACF5     0000           add     byte ptr ds:[eax], al
0012ACF7     0000           add     byte ptr ds:[eax], al
0012ACF9     0000           add     byte ptr ds:[eax], al
0012ACFB     0000           add     byte ptr ds:[eax], al
0012ACFD     0000           add     byte ptr ds:[eax], al
0012ACFF     0000           add     byte ptr ds:[eax], al
0012AD01     0000           add     byte ptr ds:[eax], al
0012AD03     0000           add     byte ptr ds:[eax], al
0012AD05     0000           add     byte ptr ds:[eax], al
0012AD07     0000           add     byte ptr ds:[eax], al
0012AD09     0000           add     byte ptr ds:[eax], al
0012AD0B     0000           add     byte ptr ds:[eax], al
0012AD0D     0000           add     byte ptr ds:[eax], al
0012AD0F     0000           add     byte ptr ds:[eax], al
0012AD11     0000           add     byte ptr ds:[eax], al
0012AD13     0000           add     byte ptr ds:[eax], al
0012AD15     0000           add     byte ptr ds:[eax], al
0012AD17     0000           add     byte ptr ds:[eax], al
0012AD19     0000           add     byte ptr ds:[eax], al
0012AD1B     0000           add     byte ptr ds:[eax], al
0012AD1D     0000           add     byte ptr ds:[eax], al
0012AD1F     0000           add     byte ptr ds:[eax], al
0012AD21     0000           add     byte ptr ds:[eax], al
0012AD23     0000           add     byte ptr ds:[eax], al
0012AD25     0000           add     byte ptr ds:[eax], al
0012AD27     0000           add     byte ptr ds:[eax], al
0012AD29     0000           add     byte ptr ds:[eax], al
0012AD2B     0000           add     byte ptr ds:[eax], al
0012AD2D     0000           add     byte ptr ds:[eax], al
0012AD2F     0000           add     byte ptr ds:[eax], al
0012AD31     0000           add     byte ptr ds:[eax], al
0012AD33     0000           add     byte ptr ds:[eax], al
0012AD35     0000           add     byte ptr ds:[eax], al
0012AD37     0000           add     byte ptr ds:[eax], al
0012AD39     0000           add     byte ptr ds:[eax], al
0012AD3B     0000           add     byte ptr ds:[eax], al
0012AD3D     0000           add     byte ptr ds:[eax], al
0012AD3F     0000           add     byte ptr ds:[eax], al
0012AD41     0000           add     byte ptr ds:[eax], al
0012AD43     0000           add     byte ptr ds:[eax], al
0012AD45     0000           add     byte ptr ds:[eax], al
0012AD47     0000           add     byte ptr ds:[eax], al
0012AD49     0000           add     byte ptr ds:[eax], al
0012AD4B     0000           add     byte ptr ds:[eax], al
0012AD4D     0000           add     byte ptr ds:[eax], al
0012AD4F     0000           add     byte ptr ds:[eax], al
0012AD51     0000           add     byte ptr ds:[eax], al
0012AD53     0000           add     byte ptr ds:[eax], al
0012AD55     0000           add     byte ptr ds:[eax], al
0012AD57     0000           add     byte ptr ds:[eax], al
0012AD59     0000           add     byte ptr ds:[eax], al
0012AD5B     0000           add     byte ptr ds:[eax], al
0012AD5D     0000           add     byte ptr ds:[eax], al
0012AD5F     0000           add     byte ptr ds:[eax], al
0012AD61     0000           add     byte ptr ds:[eax], al
0012AD63     0000           add     byte ptr ds:[eax], al
0012AD65     0000           add     byte ptr ds:[eax], al
0012AD67     0000           add     byte ptr ds:[eax], al
0012AD69     0000           add     byte ptr ds:[eax], al
0012AD6B     0000           add     byte ptr ds:[eax], al
0012AD6D     0000           add     byte ptr ds:[eax], al
0012AD6F     0000           add     byte ptr ds:[eax], al
0012AD71     0000           add     byte ptr ds:[eax], al
0012AD73     0000           add     byte ptr ds:[eax], al
0012AD75     0000           add     byte ptr ds:[eax], al
0012AD77     0000           add     byte ptr ds:[eax], al
0012AD79     0000           add     byte ptr ds:[eax], al
0012AD7B     0000           add     byte ptr ds:[eax], al
0012AD7D     0000           add     byte ptr ds:[eax], al
0012AD7F     0000           add     byte ptr ds:[eax], al
0012AD81     0000           add     byte ptr ds:[eax], al
0012AD83     0000           add     byte ptr ds:[eax], al
0012AD85     0000           add     byte ptr ds:[eax], al
0012AD87     0000           add     byte ptr ds:[eax], al
0012AD89     0000           add     byte ptr ds:[eax], al
0012AD8B     0000           add     byte ptr ds:[eax], al
0012AD8D     0000           add     byte ptr ds:[eax], al
0012AD8F     0000           add     byte ptr ds:[eax], al
0012AD91     0000           add     byte ptr ds:[eax], al
0012AD93     0000           add     byte ptr ds:[eax], al
0012AD95     0000           add     byte ptr ds:[eax], al
0012AD97     0000           add     byte ptr ds:[eax], al
0012AD99     0000           add     byte ptr ds:[eax], al
0012AD9B     0000           add     byte ptr ds:[eax], al
0012AD9D     0000           add     byte ptr ds:[eax], al
0012AD9F     0000           add     byte ptr ds:[eax], al
0012ADA1     0000           add     byte ptr ds:[eax], al
0012ADA3     0000           add     byte ptr ds:[eax], al
0012ADA5     0000           add     byte ptr ds:[eax], al
0012ADA7     0000           add     byte ptr ds:[eax], al
0012ADA9     0000           add     byte ptr ds:[eax], al
0012ADAB     0000           add     byte ptr ds:[eax], al
0012ADAD     0000           add     byte ptr ds:[eax], al
0012ADAF     0000           add     byte ptr ds:[eax], al
0012ADB1     0000           add     byte ptr ds:[eax], al
0012ADB3     0000           add     byte ptr ds:[eax], al
0012ADB5     0000           add     byte ptr ds:[eax], al
0012ADB7     0000           add     byte ptr ds:[eax], al
0012ADB9     0000           add     byte ptr ds:[eax], al
0012ADBB     0000           add     byte ptr ds:[eax], al
0012ADBD     0000           add     byte ptr ds:[eax], al
0012ADBF     0000           add     byte ptr ds:[eax], al
0012ADC1     0000           add     byte ptr ds:[eax], al
0012ADC3     0000           add     byte ptr ds:[eax], al
0012ADC5     0000           add     byte ptr ds:[eax], al
0012ADC7     0000           add     byte ptr ds:[eax], al
0012ADC9     0000           add     byte ptr ds:[eax], al
0012ADCB     0000           add     byte ptr ds:[eax], al
0012ADCD     0000           add     byte ptr ds:[eax], al
0012ADCF     0000           add     byte ptr ds:[eax], al
0012ADD1     0000           add     byte ptr ds:[eax], al
0012ADD3     0000           add     byte ptr ds:[eax], al
0012ADD5     0000           add     byte ptr ds:[eax], al
0012ADD7     0000           add     byte ptr ds:[eax], al
0012ADD9     0000           add     byte ptr ds:[eax], al
0012ADDB     0000           add     byte ptr ds:[eax], al
0012ADDD     0000           add     byte ptr ds:[eax], al
0012ADDF     0000           add     byte ptr ds:[eax], al
0012ADE1     0000           add     byte ptr ds:[eax], al
0012ADE3     0000           add     byte ptr ds:[eax], al
0012ADE5     0000           add     byte ptr ds:[eax], al
0012ADE7     0000           add     byte ptr ds:[eax], al
0012ADE9     0000           add     byte ptr ds:[eax], al
0012ADEB     0000           add     byte ptr ds:[eax], al
0012ADED     0000           add     byte ptr ds:[eax], al
0012ADEF     0000           add     byte ptr ds:[eax], al
0012ADF1     0000           add     byte ptr ds:[eax], al
0012ADF3     0000           add     byte ptr ds:[eax], al
0012ADF5     0000           add     byte ptr ds:[eax], al
0012ADF7     0000           add     byte ptr ds:[eax], al
0012ADF9     0000           add     byte ptr ds:[eax], al
0012ADFB     0000           add     byte ptr ds:[eax], al
0012ADFD     0000           add     byte ptr ds:[eax], al
0012ADFF     0000           add     byte ptr ds:[eax], al
0012AE01     0000           add     byte ptr ds:[eax], al
0012AE03     0000           add     byte ptr ds:[eax], al
0012AE05     0000           add     byte ptr ds:[eax], al
0012AE07     0000           add     byte ptr ds:[eax], al
0012AE09     0000           add     byte ptr ds:[eax], al
0012AE0B     0000           add     byte ptr ds:[eax], al
0012AE0D     0000           add     byte ptr ds:[eax], al
0012AE0F     0000           add     byte ptr ds:[eax], al
0012AE11     0000           add     byte ptr ds:[eax], al
0012AE13     0000           add     byte ptr ds:[eax], al
0012AE15     0000           add     byte ptr ds:[eax], al
0012AE17     0000           add     byte ptr ds:[eax], al
0012AE19     0000           add     byte ptr ds:[eax], al
0012AE1B     0000           add     byte ptr ds:[eax], al
0012AE1D     0000           add     byte ptr ds:[eax], al
0012AE1F     0000           add     byte ptr ds:[eax], al
0012AE21     0000           add     byte ptr ds:[eax], al
0012AE23     0000           add     byte ptr ds:[eax], al
0012AE25     0000           add     byte ptr ds:[eax], al
0012AE27     0000           add     byte ptr ds:[eax], al
0012AE29     0000           add     byte ptr ds:[eax], al
0012AE2B     0000           add     byte ptr ds:[eax], al
0012AE2D     0000           add     byte ptr ds:[eax], al
0012AE2F     0000           add     byte ptr ds:[eax], al
0012AE31     0000           add     byte ptr ds:[eax], al
0012AE33     0000           add     byte ptr ds:[eax], al
0012AE35     0000           add     byte ptr ds:[eax], al
0012AE37     0000           add     byte ptr ds:[eax], al
0012AE39     0000           add     byte ptr ds:[eax], al
0012AE3B     0000           add     byte ptr ds:[eax], al
0012AE3D     0000           add     byte ptr ds:[eax], al
0012AE3F     0000           add     byte ptr ds:[eax], al
0012AE41     0000           add     byte ptr ds:[eax], al
0012AE43     0000           add     byte ptr ds:[eax], al
0012AE45     0000           add     byte ptr ds:[eax], al
0012AE47     0000           add     byte ptr ds:[eax], al
0012AE49     0000           add     byte ptr ds:[eax], al
0012AE4B     0000           add     byte ptr ds:[eax], al
0012AE4D     0000           add     byte ptr ds:[eax], al
0012AE4F     0000           add     byte ptr ds:[eax], al
0012AE51     0000           add     byte ptr ds:[eax], al
0012AE53     0000           add     byte ptr ds:[eax], al
0012AE55     0000           add     byte ptr ds:[eax], al
0012AE57     0000           add     byte ptr ds:[eax], al
0012AE59     0000           add     byte ptr ds:[eax], al
0012AE5B     0000           add     byte ptr ds:[eax], al
0012AE5D     0000           add     byte ptr ds:[eax], al
0012AE5F     0000           add     byte ptr ds:[eax], al
0012AE61     0000           add     byte ptr ds:[eax], al
0012AE63     0000           add     byte ptr ds:[eax], al
0012AE65     0000           add     byte ptr ds:[eax], al
0012AE67     0000           add     byte ptr ds:[eax], al
0012AE69     0000           add     byte ptr ds:[eax], al
0012AE6B     0000           add     byte ptr ds:[eax], al
0012AE6D     0000           add     byte ptr ds:[eax], al
0012AE6F     0000           add     byte ptr ds:[eax], al
0012AE71     0000           add     byte ptr ds:[eax], al
0012AE73     0000           add     byte ptr ds:[eax], al
0012AE75     0000           add     byte ptr ds:[eax], al
0012AE77     0000           add     byte ptr ds:[eax], al
0012AE79     0000           add     byte ptr ds:[eax], al
0012AE7B     0000           add     byte ptr ds:[eax], al
0012AE7D     0000           add     byte ptr ds:[eax], al
0012AE7F     0000           add     byte ptr ds:[eax], al
0012AE81     0000           add     byte ptr ds:[eax], al
0012AE83     0000           add     byte ptr ds:[eax], al
0012AE85     0000           add     byte ptr ds:[eax], al
0012AE87     0000           add     byte ptr ds:[eax], al
0012AE89     0000           add     byte ptr ds:[eax], al
0012AE8B     0000           add     byte ptr ds:[eax], al
0012AE8D     0000           add     byte ptr ds:[eax], al
0012AE8F     0000           add     byte ptr ds:[eax], al
0012AE91     0000           add     byte ptr ds:[eax], al
0012AE93     0000           add     byte ptr ds:[eax], al
0012AE95     0000           add     byte ptr ds:[eax], al
0012AE97     0000           add     byte ptr ds:[eax], al
0012AE99     0000           add     byte ptr ds:[eax], al
0012AE9B     0000           add     byte ptr ds:[eax], al
0012AE9D     0000           add     byte ptr ds:[eax], al
0012AE9F     0000           add     byte ptr ds:[eax], al
0012AEA1     0000           add     byte ptr ds:[eax], al
0012AEA3     0000           add     byte ptr ds:[eax], al
0012AEA5     0000           add     byte ptr ds:[eax], al
0012AEA7     0000           add     byte ptr ds:[eax], al
0012AEA9     0000           add     byte ptr ds:[eax], al
0012AEAB     0000           add     byte ptr ds:[eax], al
0012AEAD     0000           add     byte ptr ds:[eax], al
0012AEAF     0000           add     byte ptr ds:[eax], al
0012AEB1     0000           add     byte ptr ds:[eax], al
0012AEB3     0000           add     byte ptr ds:[eax], al
0012AEB5     0000           add     byte ptr ds:[eax], al
0012AEB7     0000           add     byte ptr ds:[eax], al
0012AEB9     0000           add     byte ptr ds:[eax], al
0012AEBB     0000           add     byte ptr ds:[eax], al
0012AEBD     0000           add     byte ptr ds:[eax], al
0012AEBF     0000           add     byte ptr ds:[eax], al
0012AEC1     0000           add     byte ptr ds:[eax], al
0012AEC3     0000           add     byte ptr ds:[eax], al
0012AEC5     0000           add     byte ptr ds:[eax], al
0012AEC7     0000           add     byte ptr ds:[eax], al
0012AEC9     0000           add     byte ptr ds:[eax], al
0012AECB     0000           add     byte ptr ds:[eax], al
0012AECD     0000           add     byte ptr ds:[eax], al
0012AECF     0000           add     byte ptr ds:[eax], al
0012AED1     0000           add     byte ptr ds:[eax], al
0012AED3     0000           add     byte ptr ds:[eax], al
0012AED5     0000           add     byte ptr ds:[eax], al
0012AED7     0000           add     byte ptr ds:[eax], al
0012AED9     0000           add     byte ptr ds:[eax], al
0012AEDB     0000           add     byte ptr ds:[eax], al
0012AEDD     0000           add     byte ptr ds:[eax], al
0012AEDF     0000           add     byte ptr ds:[eax], al
0012AEE1     0000           add     byte ptr ds:[eax], al
0012AEE3     0000           add     byte ptr ds:[eax], al
0012AEE5     0000           add     byte ptr ds:[eax], al
0012AEE7     0000           add     byte ptr ds:[eax], al
0012AEE9     0000           add     byte ptr ds:[eax], al
0012AEEB     0000           add     byte ptr ds:[eax], al
0012AEED     0000           add     byte ptr ds:[eax], al
0012AEEF     0000           add     byte ptr ds:[eax], al
0012AEF1     0000           add     byte ptr ds:[eax], al
0012AEF3     0000           add     byte ptr ds:[eax], al
0012AEF5     0000           add     byte ptr ds:[eax], al
0012AEF7     0000           add     byte ptr ds:[eax], al
0012AEF9     0000           add     byte ptr ds:[eax], al
0012AEFB     0000           add     byte ptr ds:[eax], al
0012AEFD     0000           add     byte ptr ds:[eax], al
0012AEFF     0000           add     byte ptr ds:[eax], al
0012AF01     0000           add     byte ptr ds:[eax], al
0012AF03     0000           add     byte ptr ds:[eax], al
0012AF05     0000           add     byte ptr ds:[eax], al
0012AF07     0000           add     byte ptr ds:[eax], al
0012AF09     0000           add     byte ptr ds:[eax], al
0012AF0B     0000           add     byte ptr ds:[eax], al
0012AF0D     0000           add     byte ptr ds:[eax], al
0012AF0F     0000           add     byte ptr ds:[eax], al
0012AF11     0000           add     byte ptr ds:[eax], al
0012AF13     0000           add     byte ptr ds:[eax], al
0012AF15     0000           add     byte ptr ds:[eax], al
0012AF17     0000           add     byte ptr ds:[eax], al
0012AF19     0000           add     byte ptr ds:[eax], al
0012AF1B     0000           add     byte ptr ds:[eax], al
0012AF1D     0000           add     byte ptr ds:[eax], al
0012AF1F     0000           add     byte ptr ds:[eax], al
0012AF21     0000           add     byte ptr ds:[eax], al
0012AF23     0000           add     byte ptr ds:[eax], al
0012AF25     0000           add     byte ptr ds:[eax], al
0012AF27     0000           add     byte ptr ds:[eax], al
0012AF29     0000           add     byte ptr ds:[eax], al
0012AF2B     0000           add     byte ptr ds:[eax], al
0012AF2D     0000           add     byte ptr ds:[eax], al
0012AF2F     0000           add     byte ptr ds:[eax], al
0012AF31     0000           add     byte ptr ds:[eax], al
0012AF33     0000           add     byte ptr ds:[eax], al
0012AF35     0000           add     byte ptr ds:[eax], al
0012AF37     0000           add     byte ptr ds:[eax], al
0012AF39     0000           add     byte ptr ds:[eax], al
0012AF3B     0000           add     byte ptr ds:[eax], al
0012AF3D     0000           add     byte ptr ds:[eax], al
0012AF3F     0000           add     byte ptr ds:[eax], al
0012AF41     0000           add     byte ptr ds:[eax], al
0012AF43     0000           add     byte ptr ds:[eax], al
0012AF45     0000           add     byte ptr ds:[eax], al
0012AF47     0000           add     byte ptr ds:[eax], al
0012AF49     0000           add     byte ptr ds:[eax], al
0012AF4B     0000           add     byte ptr ds:[eax], al
0012AF4D     0000           add     byte ptr ds:[eax], al
0012AF4F     0000           add     byte ptr ds:[eax], al
0012AF51     0000           add     byte ptr ds:[eax], al
0012AF53     0000           add     byte ptr ds:[eax], al
0012AF55     0000           add     byte ptr ds:[eax], al
0012AF57     0000           add     byte ptr ds:[eax], al
0012AF59     0000           add     byte ptr ds:[eax], al
0012AF5B     0000           add     byte ptr ds:[eax], al
0012AF5D     0000           add     byte ptr ds:[eax], al
0012AF5F     0000           add     byte ptr ds:[eax], al
0012AF61     0000           add     byte ptr ds:[eax], al
0012AF63     0000           add     byte ptr ds:[eax], al
0012AF65     0000           add     byte ptr ds:[eax], al
0012AF67     0000           add     byte ptr ds:[eax], al
0012AF69     0000           add     byte ptr ds:[eax], al
0012AF6B     0000           add     byte ptr ds:[eax], al
0012AF6D     0000           add     byte ptr ds:[eax], al
0012AF6F     0000           add     byte ptr ds:[eax], al
0012AF71     0000           add     byte ptr ds:[eax], al
0012AF73     0000           add     byte ptr ds:[eax], al
0012AF75     0000           add     byte ptr ds:[eax], al
0012AF77     0000           add     byte ptr ds:[eax], al
0012AF79     0000           add     byte ptr ds:[eax], al
0012AF7B     0000           add     byte ptr ds:[eax], al
0012AF7D     0000           add     byte ptr ds:[eax], al
0012AF7F     0000           add     byte ptr ds:[eax], al
0012AF81     0000           add     byte ptr ds:[eax], al
0012AF83     0000           add     byte ptr ds:[eax], al
0012AF85     0000           add     byte ptr ds:[eax], al
0012AF87     0000           add     byte ptr ds:[eax], al
0012AF89     0000           add     byte ptr ds:[eax], al
0012AF8B     0000           add     byte ptr ds:[eax], al
0012AF8D     0000           add     byte ptr ds:[eax], al
0012AF8F     0000           add     byte ptr ds:[eax], al
0012AF91     0000           add     byte ptr ds:[eax], al
0012AF93     0000           add     byte ptr ds:[eax], al
0012AF95     0000           add     byte ptr ds:[eax], al
0012AF97     0000           add     byte ptr ds:[eax], al
0012AF99     0000           add     byte ptr ds:[eax], al
0012AF9B     0000           add     byte ptr ds:[eax], al
0012AF9D     0000           add     byte ptr ds:[eax], al
0012AF9F     0000           add     byte ptr ds:[eax], al
0012AFA1     0000           add     byte ptr ds:[eax], al
0012AFA3     0000           add     byte ptr ds:[eax], al
0012AFA5     0000           add     byte ptr ds:[eax], al
0012AFA7     0000           add     byte ptr ds:[eax], al
0012AFA9     0000           add     byte ptr ds:[eax], al
0012AFAB     0000           add     byte ptr ds:[eax], al
0012AFAD     0000           add     byte ptr ds:[eax], al
0012AFAF     0000           add     byte ptr ds:[eax], al
0012AFB1     001400         add     byte ptr ds:[eax+eax], dl
0012AFB4     21B7 947CE0B1  and     dword ptr ds:[edi+B1E07C94], esi
0012AFBA     1200           adc     al, byte ptr ds:[eax]
0012AFBC     68 9F917CFA    push    FA7C919F
0012AFC1     9F             lahf
0012AFC2     91             xchg    eax, ecx
0012AFC3     7C 1A          jl      short 0012AFDF
0012AFC5     0200           add     al, byte ptr ds:[eax]
0012AFC7     0000           add     byte ptr ds:[eax], al
0012AFC9     001400         add     byte ptr ds:[eax+eax], dl
0012AFCC     0100           add     dword ptr ds:[eax], eax
0012AFCE     0000           add     byte ptr ds:[eax], al
0012AFD0     0000           add     byte ptr ds:[eax], al
0012AFD2     0000           add     byte ptr ds:[eax], al
0012AFD4     0000           add     byte ptr ds:[eax], al
0012AFD6     0000           add     byte ptr ds:[eax], al
0012AFD8     0000           add     byte ptr ds:[eax], al
0012AFDA     0000           add     byte ptr ds:[eax], al
0012AFDC     0000           add     byte ptr ds:[eax], al
0012AFDE     0000           add     byte ptr ds:[eax], al
0012AFE0     0000           add     byte ptr ds:[eax], al
0012AFE2     0000           add     byte ptr ds:[eax], al
0012AFE4     B0 07          mov     al, 7
0012AFE6     0000           add     byte ptr ds:[eax], al
0012AFE8     0000           add     byte ptr ds:[eax], al
0012AFEA     0000           add     byte ptr ds:[eax], al
0012AFEC     78 7A          js      short 0012B068
0012AFEE     14 00          adc     al, 0
0012AFF0     0000           add     byte ptr ds:[eax], al
0012AFF2     0000           add     byte ptr ds:[eax], al
0012AFF4     1E             push    ds
0012AFF5     0000           add     byte ptr ds:[eax], al
0012AFF7     0000           add     byte ptr ds:[eax], al
0012AFF9     0000           add     byte ptr ds:[eax], al
0012AFFB     0078 01        add     byte ptr ds:[eax+1], bh
0012AFFE     14 00          adc     al, 0
0012B000     0000           add     byte ptr ds:[eax], al
0012B002     0000           add     byte ptr ds:[eax], al
0012B004     0000           add     byte ptr ds:[eax], al
0012B006     0000           add     byte ptr ds:[eax], al
0012B008     0000           add     byte ptr ds:[eax], al
0012B00A     0000           add     byte ptr ds:[eax], al
0012B00C     0000           add     byte ptr ds:[eax], al
0012B00E     0000           add     byte ptr ds:[eax], al
0012B010     0000           add     byte ptr ds:[eax], al
0012B012     0000           add     byte ptr ds:[eax], al
0012B014     0000           add     byte ptr ds:[eax], al
0012B016     0000           add     byte ptr ds:[eax], al
0012B018     0000           add     byte ptr ds:[eax], al
0012B01A     0000           add     byte ptr ds:[eax], al
0012B01C     0000           add     byte ptr ds:[eax], al
0012B01E     0000           add     byte ptr ds:[eax], al
0012B020     40             inc     eax
0012B021     06             push    es
0012B022     14 00          adc     al, 0
0012B024     0000           add     byte ptr ds:[eax], al
0012B026     0000           add     byte ptr ds:[eax], al
0012B028     0000           add     byte ptr ds:[eax], al
0012B02A     0000           add     byte ptr ds:[eax], al
0012B02C     0000           add     byte ptr ds:[eax], al
0012B02E     0000           add     byte ptr ds:[eax], al
0012B030     0000           add     byte ptr ds:[eax], al
0012B032     0000           add     byte ptr ds:[eax], al
0012B034     0000           add     byte ptr ds:[eax], al
0012B036     0000           add     byte ptr ds:[eax], al
0012B038     0000           add     byte ptr ds:[eax], al
0012B03A     0000           add     byte ptr ds:[eax], al
0012B03C     0000           add     byte ptr ds:[eax], al
0012B03E     0000           add     byte ptr ds:[eax], al
0012B040     0000           add     byte ptr ds:[eax], al
0012B042     0000           add     byte ptr ds:[eax], al
0012B044     0000           add     byte ptr ds:[eax], al
0012B046     0000           add     byte ptr ds:[eax], al
0012B048     0000           add     byte ptr ds:[eax], al
0012B04A     0000           add     byte ptr ds:[eax], al
0012B04C     0000           add     byte ptr ds:[eax], al
0012B04E     0000           add     byte ptr ds:[eax], al
0012B050     0000           add     byte ptr ds:[eax], al
0012B052     0000           add     byte ptr ds:[eax], al
0012B054     0000           add     byte ptr ds:[eax], al
0012B056     0000           add     byte ptr ds:[eax], al
0012B058     0000           add     byte ptr ds:[eax], al
0012B05A     0000           add     byte ptr ds:[eax], al
0012B05C     0000           add     byte ptr ds:[eax], al
0012B05E     0000           add     byte ptr ds:[eax], al
0012B060     0000           add     byte ptr ds:[eax], al
0012B062     0000           add     byte ptr ds:[eax], al
0012B064     0000           add     byte ptr ds:[eax], al
0012B066     0000           add     byte ptr ds:[eax], al
0012B068     0000           add     byte ptr ds:[eax], al
0012B06A     0000           add     byte ptr ds:[eax], al
0012B06C     0000           add     byte ptr ds:[eax], al
0012B06E     0000           add     byte ptr ds:[eax], al
0012B070     0000           add     byte ptr ds:[eax], al
0012B072     0000           add     byte ptr ds:[eax], al
0012B074     0000           add     byte ptr ds:[eax], al
0012B076     0000           add     byte ptr ds:[eax], al
0012B078     0000           add     byte ptr ds:[eax], al
0012B07A     0000           add     byte ptr ds:[eax], al
0012B07C     78 01          js      short 0012B07F
0012B07E     14 00          adc     al, 0
0012B080     0000           add     byte ptr ds:[eax], al
0012B082     0000           add     byte ptr ds:[eax], al
0012B084     0000           add     byte ptr ds:[eax], al
0012B086     0000           add     byte ptr ds:[eax], al
0012B088     0000           add     byte ptr ds:[eax], al
0012B08A     0000           add     byte ptr ds:[eax], al
0012B08C     0000           add     byte ptr ds:[eax], al
0012B08E     0000           add     byte ptr ds:[eax], al
0012B090     0000           add     byte ptr ds:[eax], al
0012B092     0000           add     byte ptr ds:[eax], al
0012B094     0000           add     byte ptr ds:[eax], al
0012B096     0000           add     byte ptr ds:[eax], al
0012B098     78 01          js      short 0012B09B
0012B09A     14 00          adc     al, 0
0012B09C     807A 14 00     cmp     byte ptr ds:[edx+14], 0
0012B0A0     0000           add     byte ptr ds:[eax], al
0012B0A2     0000           add     byte ptr ds:[eax], al
0012B0A4     0000           add     byte ptr ds:[eax], al
0012B0A6     0000           add     byte ptr ds:[eax], al
0012B0A8     0000           add     byte ptr ds:[eax], al
0012B0AA     0000           add     byte ptr ds:[eax], al
0012B0AC     0000           add     byte ptr ds:[eax], al
0012B0AE     0000           add     byte ptr ds:[eax], al
0012B0B0     0000           add     byte ptr ds:[eax], al
0012B0B2     0000           add     byte ptr ds:[eax], al
0012B0B4     0000           add     byte ptr ds:[eax], al
0012B0B6     0000           add     byte ptr ds:[eax], al
0012B0B8     0000           add     byte ptr ds:[eax], al
0012B0BA     0000           add     byte ptr ds:[eax], al
0012B0BC     0000           add     byte ptr ds:[eax], al
0012B0BE     0000           add     byte ptr ds:[eax], al
0012B0C0     0000           add     byte ptr ds:[eax], al
0012B0C2     0000           add     byte ptr ds:[eax], al
0012B0C4     0000           add     byte ptr ds:[eax], al
0012B0C6     0000           add     byte ptr ds:[eax], al
0012B0C8     0000           add     byte ptr ds:[eax], al
0012B0CA     0000           add     byte ptr ds:[eax], al
0012B0CC     0000           add     byte ptr ds:[eax], al
0012B0CE     0000           add     byte ptr ds:[eax], al
0012B0D0     0000           add     byte ptr ds:[eax], al
0012B0D2     0000           add     byte ptr ds:[eax], al
0012B0D4     0000           add     byte ptr ds:[eax], al
0012B0D6     0000           add     byte ptr ds:[eax], al
0012B0D8     0000           add     byte ptr ds:[eax], al
0012B0DA     0000           add     byte ptr ds:[eax], al
0012B0DC     0000           add     byte ptr ds:[eax], al
0012B0DE     0000           add     byte ptr ds:[eax], al
0012B0E0     0000           add     byte ptr ds:[eax], al
0012B0E2     0000           add     byte ptr ds:[eax], al
0012B0E4     0000           add     byte ptr ds:[eax], al
0012B0E6     0000           add     byte ptr ds:[eax], al
0012B0E8     0000           add     byte ptr ds:[eax], al
0012B0EA     0000           add     byte ptr ds:[eax], al
0012B0EC     0000           add     byte ptr ds:[eax], al
0012B0EE     0000           add     byte ptr ds:[eax], al
0012B0F0     0000           add     byte ptr ds:[eax], al
0012B0F2     0000           add     byte ptr ds:[eax], al
0012B0F4     0000           add     byte ptr ds:[eax], al
0012B0F6     0000           add     byte ptr ds:[eax], al
0012B0F8     0000           add     byte ptr ds:[eax], al
0012B0FA     0000           add     byte ptr ds:[eax], al
0012B0FC     0000           add     byte ptr ds:[eax], al
0012B0FE     0000           add     byte ptr ds:[eax], al
0012B100     0000           add     byte ptr ds:[eax], al
0012B102     0000           add     byte ptr ds:[eax], al
0012B104     0000           add     byte ptr ds:[eax], al
0012B106     0000           add     byte ptr ds:[eax], al
0012B108     0000           add     byte ptr ds:[eax], al
0012B10A     0000           add     byte ptr ds:[eax], al
0012B10C     0800           or      byte ptr ds:[eax], al
0012B10E     0000           add     byte ptr ds:[eax], al
0012B110     0000           add     byte ptr ds:[eax], al
0012B112     0000           add     byte ptr ds:[eax], al
0012B114     70 7A          jo      short 0012B190
0012B116     14 00          adc     al, 0
0012B118     0000           add     byte ptr ds:[eax], al
0012B11A     0000           add     byte ptr ds:[eax], al
0012B11C     0000           add     byte ptr ds:[eax], al
0012B11E     0000           add     byte ptr ds:[eax], al
0012B120     0000           add     byte ptr ds:[eax], al
0012B122     0000           add     byte ptr ds:[eax], al
0012B124     0000           add     byte ptr ds:[eax], al
0012B126     0000           add     byte ptr ds:[eax], al
0012B128     0000           add     byte ptr ds:[eax], al
0012B12A     0000           add     byte ptr ds:[eax], al
0012B12C     0000           add     byte ptr ds:[eax], al
0012B12E     0000           add     byte ptr ds:[eax], al
0012B130     B1 00          mov     cl, 0
0012B132     0000           add     byte ptr ds:[eax], al
0012B134     0000           add     byte ptr ds:[eax], al
0012B136     0000           add     byte ptr ds:[eax], al
0012B138     0000           add     byte ptr ds:[eax], al
0012B13A     0000           add     byte ptr ds:[eax], al
0012B13C     B0 07          mov     al, 7
0012B13E     0000           add     byte ptr ds:[eax], al
0012B140     0000           add     byte ptr ds:[eax], al
0012B142     0000           add     byte ptr ds:[eax], al
0012B144     0000           add     byte ptr ds:[eax], al
0012B146     0000           add     byte ptr ds:[eax], al
0012B148     0000           add     byte ptr ds:[eax], al
0012B14A     0000           add     byte ptr ds:[eax], al
0012B14C     78 01          js      short 0012B14F
0012B14E     14 00          adc     al, 0
0012B150     78 01          js      short 0012B153
0012B152     14 00          adc     al, 0
0012B154     0000           add     byte ptr ds:[eax], al
0012B156     0000           add     byte ptr ds:[eax], al
0012B158     0000           add     byte ptr ds:[eax], al
0012B15A     25 0021B794    and     eax, 94B72100
0012B15F   ^ 7C 88          jl      short 0012B0E9
0012B161     B3 12          mov     bl, 12
0012B163     0068 9F        add     byte ptr ds:[eax-61], ch
0012B166     91             xchg    eax, ecx
0012B167   ^ 7C FA          jl      short 0012B163
0012B169     9F             lahf
0012B16A     91             xchg    eax, ecx
0012B16B   ^ 7C 98          jl      short 0012B105
0012B16D     0000           add     byte ptr ds:[eax], al
0012B16F     0000           add     byte ptr ds:[eax], al
0012B171     0025 00010000  add     byte ptr ds:[100], ah
0012B177     0000           add     byte ptr ds:[eax], al
0012B179     0000           add     byte ptr ds:[eax], al
0012B17B     0000           add     byte ptr ds:[eax], al
0012B17D     0000           add     byte ptr ds:[eax], al
0012B17F     0000           add     byte ptr ds:[eax], al
0012B181     0000           add     byte ptr ds:[eax], al
0012B183     0000           add     byte ptr ds:[eax], al
0012B185     0000           add     byte ptr ds:[eax], al
0012B187     0040 78        add     byte ptr ds:[eax+78], al
0012B18A     14 00          adc     al, 0
0012B18C     70 29          jo      short 0012B1B7
0012B18E     0000           add     byte ptr ds:[eax], al
0012B190     0000           add     byte ptr ds:[eax], al
0012B192     0000           add     byte ptr ds:[eax], al
0012B194     3007           xor     byte ptr ds:[edi], al
0012B196     25 00000000    and     eax, 00000000
0012B19B     0018           add     byte ptr ds:[eax], bl
0012B19D     0000           add     byte ptr ds:[eax], al
0012B19F     0000           add     byte ptr ds:[eax], al
0012B1A1     0000           add     byte ptr ds:[eax], al
0012B1A3     0078 01        add     byte ptr ds:[eax+1], bh
0012B1A6     25 00000000    and     eax, 00000000
0012B1AB     0000           add     byte ptr ds:[eax], al
0012B1AD     0000           add     byte ptr ds:[eax], al
0012B1AF     0000           add     byte ptr ds:[eax], al
0012B1B1     0000           add     byte ptr ds:[eax], al
0012B1B3     0068 01        add     byte ptr ds:[eax+1], ch
0012B1B6     14 00          adc     al, 0
0012B1B8     0000           add     byte ptr ds:[eax], al
0012B1BA     0300           add     eax, dword ptr ds:[eax]
0012B1BC     78 01          js      short 0012B1BF
0012B1BE     14 00          adc     al, 0
0012B1C0     3802           cmp     byte ptr ds:[edx], al
0012B1C2     0000           add     byte ptr ds:[eax], al
0012B1C4     0000           add     byte ptr ds:[eax], al
0012B1C6     14 00          adc     al, 0
0012B1C8     40             inc     eax
0012B1C9     06             push    es
0012B1CA     25 00000000    and     eax, 00000000
0012B1CF     0054B2 12      add     byte ptr ds:[esi*4+edx+12], dl
0012B1D3     0020           add     byte ptr ds:[eax], ah
0012B1D5     E9 907C00A0    jmp     A0132E6A
0012B1DA     91             xchg    eax, ecx
0012B1DB     7C FF          jl      short 0012B1DC
0012B1DD     FF             db FF                                                    ; Unknown command
0012B1DE     FF             db FF                                                    ; Unknown command
0012B1DF     FF             db FF                                                    ; Unknown command
0012B1E0     FA             cli
0012B1E1     9F             lahf
0012B1E2     91             xchg    eax, ecx
0012B1E3     7C 64          jl      short 0012B249
0012B1E5     B2 12          mov     dl, 12
0012B1E7     0090 FD967C08  add     byte ptr ds:[eax+87C96FD], dl
0012B1ED     06             push    es
0012B1EE     14 00          adc     al, 0
0012B1F0   ^ 74 FD          je      short 0012B1EF
0012B1F2     96             xchg    eax, esi
0012B1F3     7C 00          jl      short 0012B1F5
0012B1F5     001400         add     byte ptr ds:[eax+eax], dl
0012B1F8     0000           add     byte ptr ds:[eax], al
0012B1FA     0000           add     byte ptr ds:[eax], al
0012B1FC     0000           add     byte ptr ds:[eax], al
0012B1FE     14 00          adc     al, 0
0012B200     0000           add     byte ptr ds:[eax], al
0012B202     0000           add     byte ptr ds:[eax], al
0012B204     0000           add     byte ptr ds:[eax], al
0012B206     0000           add     byte ptr ds:[eax], al
0012B208     0000           add     byte ptr ds:[eax], al
0012B20A     0000           add     byte ptr ds:[eax], al
0012B20C     0000           add     byte ptr ds:[eax], al
0012B20E     0000           add     byte ptr ds:[eax], al
0012B210     0000           add     byte ptr ds:[eax], al
0012B212     0000           add     byte ptr ds:[eax], al
0012B214     0000           add     byte ptr ds:[eax], al
0012B216     0000           add     byte ptr ds:[eax], al
0012B218     0000           add     byte ptr ds:[eax], al
0012B21A     0000           add     byte ptr ds:[eax], al
0012B21C     0000           add     byte ptr ds:[eax], al
0012B21E     0000           add     byte ptr ds:[eax], al
0012B220     0000           add     byte ptr ds:[eax], al
0012B222     0000           add     byte ptr ds:[eax], al
0012B224     78 01          js      short 0012B227
0012B226     25 00000000    and     eax, 00000000
0012B22B     0070 7A        add     byte ptr ds:[eax+7A], dh
0012B22E     14 00          adc     al, 0
0012B230     40             inc     eax
0012B231     78 14          js      short 0012B247
0012B233     0038           add     byte ptr ds:[eax], bh
0012B235     0200           add     al, byte ptr ds:[eax]
0012B237     0000           add     byte ptr ds:[eax], al
0012B239     001400         add     byte ptr ds:[eax+eax], dl
0012B23C     0000           add     byte ptr ds:[eax], al
0012B23E     0000           add     byte ptr ds:[eax], al
0012B240     78 01          js      short 0012B243
0012B242     25 00380725    and     eax, 25073800
0012B247     0000           add     byte ptr ds:[eax], al
0012B249     0000           add     byte ptr ds:[eax], al
0012B24B     01F4           add     esp, esi
0012B24D     B1 12          mov     cl, 12
0012B24F     0000           add     byte ptr ds:[eax], al
0012B251     0000           add     byte ptr ds:[eax], al
0012B253     0084B4 120020  add     byte ptr ss:[esi*4+esp+E9200012], al
0012B25A     90             nop
0012B25B   ^ 7C 98          jl      short 0012B1F5
0012B25D     FD             std
0012B25E     96             xchg    eax, esi
0012B25F     7C FF          jl      short 0012B260
0012B261     FF             db FF                                                    ; Unknown command
0012B262     FF             db FF                                                    ; Unknown command
0012B263     FF74FD 96      push    dword ptr ss:[edi*8+ebp-6A]
0012B267     7C 44          jl      short 0012B2AD
0012B269     B2 94          mov     dl, 94
0012B26B     7C 00          jl      short 0012B26D
0012B26D     001400         add     byte ptr ds:[eax+eax], dl
0012B270     61             popad
0012B271     0100           add     dword ptr ds:[eax], eax
0012B273     50             push    eax
0012B274     FA             cli
0012B275     9F             lahf
0012B276     91             xchg    eax, ecx
0012B277     7C 00          jl      short 0012B279
0012B279     0000           add     byte ptr ds:[eax], al
0012B27B     00D8           add     al, bl
0012B27D     BA 12000000    mov     edx, 12
0012B282     14 00          adc     al, 0
0012B284     0000           add     byte ptr ds:[eax], al
0012B286     0000           add     byte ptr ds:[eax], al
0012B288     0000           add     byte ptr ds:[eax], al
0012B28A     0000           add     byte ptr ds:[eax], al
0012B28C     0000           add     byte ptr ds:[eax], al
0012B28E     0000           add     byte ptr ds:[eax], al
0012B290     0000           add     byte ptr ds:[eax], al
0012B292     0000           add     byte ptr ds:[eax], al
0012B294     0000           add     byte ptr ds:[eax], al
0012B296     0000           add     byte ptr ds:[eax], al
0012B298     0000           add     byte ptr ds:[eax], al
0012B29A     0000           add     byte ptr ds:[eax], al
0012B29C     0000           add     byte ptr ds:[eax], al
0012B29E     0000           add     byte ptr ds:[eax], al
0012B2A0     0000           add     byte ptr ds:[eax], al
0012B2A2     0000           add     byte ptr ds:[eax], al
0012B2A4     0000           add     byte ptr ds:[eax], al
0012B2A6     0000           add     byte ptr ds:[eax], al
0012B2A8     0000           add     byte ptr ds:[eax], al
0012B2AA     0000           add     byte ptr ds:[eax], al
0012B2AC     0000           add     byte ptr ds:[eax], al
0012B2AE     0000           add     byte ptr ds:[eax], al
0012B2B0     0000           add     byte ptr ds:[eax], al
0012B2B2     0000           add     byte ptr ds:[eax], al
0012B2B4     D000           rol     byte ptr ds:[eax], 1
0012B2B6     0000           add     byte ptr ds:[eax], al
0012B2B8     0000           add     byte ptr ds:[eax], al
0012B2BA     0000           add     byte ptr ds:[eax], al
0012B2BC     2807           sub     byte ptr ds:[edi], al
0012B2BE     25 00000000    and     eax, 00000000
0012B2C3     0000           add     byte ptr ds:[eax], al
0012B2C5     0000           add     byte ptr ds:[eax], al
0012B2C7     0000           add     byte ptr ds:[eax], al
0012B2C9     0000           add     byte ptr ds:[eax], al
0012B2CB     0000           add     byte ptr ds:[eax], al
0012B2CD     0000           add     byte ptr ds:[eax], al
0012B2CF     0000           add     byte ptr ds:[eax], al
0012B2D1     0000           add     byte ptr ds:[eax], al
0012B2D3     0000           add     byte ptr ds:[eax], al
0012B2D5     0000           add     byte ptr ds:[eax], al
0012B2D7     001A           add     byte ptr ds:[edx], bl
0012B2D9     05 00000000    add     eax, 0
0012B2DE     0000           add     byte ptr ds:[eax], al
0012B2E0     0000           add     byte ptr ds:[eax], al
0012B2E2     0000           add     byte ptr ds:[eax], al
0012B2E4     70 29          jo      short 0012B30F
0012B2E6     0000           add     byte ptr ds:[eax], al
0012B2E8     0000           add     byte ptr ds:[eax], al
0012B2EA     0000           add     byte ptr ds:[eax], al
0012B2EC     0000           add     byte ptr ds:[eax], al
0012B2EE     0000           add     byte ptr ds:[eax], al
0012B2F0     0000           add     byte ptr ds:[eax], al
0012B2F2     0000           add     byte ptr ds:[eax], al
0012B2F4     78 01          js      short 0012B2F7
0012B2F6     25 00780125    and     eax, 25017800
0012B2FB     0000           add     byte ptr ds:[eax], al
0012B2FD     0000           add     byte ptr ds:[eax], al
0012B2FF     0088 06250000  add     byte ptr ds:[eax+2506], cl
0012B305     0000           add     byte ptr ds:[eax], al
0012B307     0000           add     byte ptr ds:[eax], al
0012B309     0000           add     byte ptr ds:[eax], al
0012B30B     0000           add     byte ptr ds:[eax], al
0012B30D     0000           add     byte ptr ds:[eax], al
0012B30F     0016           add     byte ptr ds:[esi], dl
0012B311     0000           add     byte ptr ds:[eax], al
0012B313     0000           add     byte ptr ds:[eax], al
0012B315     0000           add     byte ptr ds:[eax], al
0012B317     0000           add     byte ptr ds:[eax], al
0012B319     0000           add     byte ptr ds:[eax], al
0012B31B     00B0 00000000  add     byte ptr ds:[eax], dh
0012B321     0000           add     byte ptr ds:[eax], al
0012B323     0000           add     byte ptr ds:[eax], al
0012B325     0000           add     byte ptr ds:[eax], al
0012B327     0080 06250000  add     byte ptr ds:[eax+2506], al
0012B32D     0000           add     byte ptr ds:[eax], al
0012B32F     0080 06250088  add     byte ptr ds:[eax+88002506], al
0012B335     06             push    es
0012B336     25 00000000    and     eax, 00000000
0012B33B     0016           add     byte ptr ds:[esi], dl
0012B33D     0000           add     byte ptr ds:[eax], al
0012B33F     0000           add     byte ptr ds:[eax], al
0012B341     0000           add     byte ptr ds:[eax], al
0012B343     0000           add     byte ptr ds:[eax], al
0012B345     0000           add     byte ptr ds:[eax], al
0012B347     0000           add     byte ptr ds:[eax], al
0012B349     0000           add     byte ptr ds:[eax], al
0012B34B     0000           add     byte ptr ds:[eax], al
0012B34D     0000           add     byte ptr ds:[eax], al
0012B34F     0000           add     byte ptr ds:[eax], al
0012B351     0000           add     byte ptr ds:[eax], al
0012B353     0000           add     byte ptr ds:[eax], al
0012B355     0000           add     byte ptr ds:[eax], al
0012B357     0000           add     byte ptr ds:[eax], al
0012B359     0000           add     byte ptr ds:[eax], al
0012B35B     0068 01        add     byte ptr ds:[eax+1], ch
0012B35E     25 00000003    and     eax, 03000000
0012B363     0078 01        add     byte ptr ds:[eax+1], bh
0012B366     25 00B00000    and     eax, 0000B000
0012B36B     0000           add     byte ptr ds:[eax], al
0012B36D     0025 006CB112  add     byte ptr ds:[12B16C00], ah
0012B373     0000           add     byte ptr ds:[eax], al
0012B375     0000           add     byte ptr ds:[eax], al
0012B377     00FC           add     ah, bh
0012B379     B3 12          mov     bl, 12
0012B37B     0020           add     byte ptr ds:[eax], ah
0012B37D     E9 907C00A0    jmp     A0133012
0012B382     91             xchg    eax, ecx
0012B383     7C FF          jl      short 0012B384
0012B385     FF             db FF                                                    ; Unknown command
0012B386     FF             db FF                                                    ; Unknown command
0012B387     FF             db FF                                                    ; Unknown command
0012B388     FA             cli
0012B389     9F             lahf
0012B38A     91             xchg    eax, ecx
0012B38B     7C 0C          jl      short 0012B399
0012B38D     B4 12          mov     ah, 12
0012B38F     0090 FD967C08  add     byte ptr ds:[eax+87C96FD], dl
0012B395     06             push    es
0012B396     25 0074FD96    and     eax, 96FD7400
0012B39B     7C 00          jl      short 0012B39D
0012B39D     0025 00000000  add     byte ptr ds:[0], ah
0012B3A3     0000           add     byte ptr ds:[eax], al
0012B3A5     0025 00000000  add     byte ptr ds:[0], ah
0012B3AB     0000           add     byte ptr ds:[eax], al
0012B3AD     0000           add     byte ptr ds:[eax], al
0012B3AF     0000           add     byte ptr ds:[eax], al
0012B3B1     0000           add     byte ptr ds:[eax], al
0012B3B3     0000           add     byte ptr ds:[eax], al
0012B3B5     0000           add     byte ptr ds:[eax], al
0012B3B7     0000           add     byte ptr ds:[eax], al
0012B3B9     0000           add     byte ptr ds:[eax], al
0012B3BB     0000           add     byte ptr ds:[eax], al
0012B3BD     0000           add     byte ptr ds:[eax], al
0012B3BF     0000           add     byte ptr ds:[eax], al
0012B3C1     0000           add     byte ptr ds:[eax], al
0012B3C3     0000           add     byte ptr ds:[eax], al
0012B3C5     0000           add     byte ptr ds:[eax], al
0012B3C7     0000           add     byte ptr ds:[eax], al
0012B3C9     0000           add     byte ptr ds:[eax], al
0012B3CB     0000           add     byte ptr ds:[eax], al
0012B3CD     0000           add     byte ptr ds:[eax], al
0012B3CF     0000           add     byte ptr ds:[eax], al
0012B3D1     0000           add     byte ptr ds:[eax], al
0012B3D3     0028           add     byte ptr ds:[eax], ch
0012B3D5     07             pop     es                                               ; Modification of segment register
0012B3D6     25 00800625    and     eax, 25068000
0012B3DB     00B0 00000000  add     byte ptr ds:[eax], dh
0012B3E1     0025 00000000  add     byte ptr ds:[0], ah
0012B3E7     0000           add     byte ptr ds:[eax], al
0012B3E9     0000           add     byte ptr ds:[eax], al
0012B3EB     0088 06250000  add     byte ptr ds:[eax+2506], cl
0012B3F1     0000           add     byte ptr ds:[eax], al
0012B3F3     019CB3 120000  add     dword ptr ds:[esi*4+ebx+12], ebx
0012B3FA     0000           add     byte ptr ds:[eax], al
0012B3FC     2C B6          sub     al, 0B6
0012B3FE     1200           adc     al, byte ptr ds:[eax]
0012B400     20E9           and     cl, ch
0012B402     90             nop
0012B403   ^ 7C 98          jl      short 0012B39D
0012B405     FD             std
0012B406     96             xchg    eax, esi
0012B407     7C FF          jl      short 0012B408
0012B409     FF             db FF                                                    ; Unknown command
0012B40A     FF             db FF                                                    ; Unknown command
0012B40B     FF74FD 96      push    dword ptr ss:[edi*8+ebp-6A]
0012B40F     7C 44          jl      short 0012B455
0012B411     B2 94          mov     dl, 94
0012B413     7C 00          jl      short 0012B415
0012B415     0025 00610100  add     byte ptr ds:[16100], ah
0012B41B     50             push    eax
0012B41C     FA             cli
0012B41D     9F             lahf
0012B41E     91             xchg    eax, ecx
0012B41F     7C 00          jl      short 0012B421
0012B421     0000           add     byte ptr ds:[eax], al
0012B423     0098 00000000  add     byte ptr ds:[eax], bl
0012B429     0025 00000000  add     byte ptr ds:[0], ah
0012B42F     0000           add     byte ptr ds:[eax], al
0012B431     0000           add     byte ptr ds:[eax], al
0012B433     0000           add     byte ptr ds:[eax], al
0012B435     0000           add     byte ptr ds:[eax], al
0012B437     0000           add     byte ptr ds:[eax], al
0012B439     0000           add     byte ptr ds:[eax], al
0012B43B     0000           add     byte ptr ds:[eax], al
0012B43D     0000           add     byte ptr ds:[eax], al
0012B43F     0000           add     byte ptr ds:[eax], al
0012B441     0000           add     byte ptr ds:[eax], al
0012B443     0000           add     byte ptr ds:[eax], al
0012B445     0000           add     byte ptr ds:[eax], al
0012B447     0000           add     byte ptr ds:[eax], al
0012B449     0000           add     byte ptr ds:[eax], al
0012B44B     0000           add     byte ptr ds:[eax], al
0012B44D     0000           add     byte ptr ds:[eax], al
0012B44F     0000           add     byte ptr ds:[eax], al
0012B451     0000           add     byte ptr ds:[eax], al
0012B453     0000           add     byte ptr ds:[eax], al
0012B455     0000           add     byte ptr ds:[eax], al
0012B457     0000           add     byte ptr ds:[eax], al
0012B459     0000           add     byte ptr ds:[eax], al
0012B45B     0000           add     byte ptr ds:[eax], al
0012B45D     0000           add     byte ptr ds:[eax], al
0012B45F     0000           add     byte ptr ds:[eax], al
0012B461     0000           add     byte ptr ds:[eax], al
0012B463     0000           add     byte ptr ds:[eax], al
0012B465     0000           add     byte ptr ds:[eax], al
0012B467     0000           add     byte ptr ds:[eax], al
0012B469     0000           add     byte ptr ds:[eax], al
0012B46B     0000           add     byte ptr ds:[eax], al
0012B46D     0000           add     byte ptr ds:[eax], al
0012B46F     0000           add     byte ptr ds:[eax], al
0012B471     0000           add     byte ptr ds:[eax], al
0012B473     0000           add     byte ptr ds:[eax], al
0012B475     0000           add     byte ptr ds:[eax], al
0012B477     0000           add     byte ptr ds:[eax], al
0012B479     001400         add     byte ptr ds:[eax+eax], dl
0012B47C   ^ 78 B2          js      short 0012B430
0012B47E     1200           adc     al, byte ptr ds:[eax]
0012B480     0000           add     byte ptr ds:[eax], al
0012B482     0000           add     byte ptr ds:[eax], al
0012B484     B8 B6120020    mov     eax, 200012B6
0012B489     E9 907C2000    jmp     0033311E
0012B48E     0000           add     byte ptr ds:[eax], al
0012B490     2000           and     byte ptr ds:[eax], al
0012B492     0000           add     byte ptr ds:[eax], al
0012B494     E4 B4          in      al, 0B4                                          ; I/O command
0012B496     1200           adc     al, byte ptr ds:[eax]
0012B498     0100           add     dword ptr ds:[eax], eax
0012B49A     0000           add     byte ptr ds:[eax], al
0012B49C     C8 B412 00     enter   12B4, 0
0012B4A0     67:8091 7CC4   adc     byte ptr ds:[bx+di+0C47C], 0B4
0012B4A6     1200           adc     al, byte ptr ds:[eax]
0012B4A8     0200           add     al, byte ptr ds:[eax]
0012B4AA     0000           add     byte ptr ds:[eax], al
0012B4AC     0000           add     byte ptr ds:[eax], al
0012B4AE     0000           add     byte ptr ds:[eax], al
0012B4B0     53             push    ebx
0012B4B1     B7 12          mov     bh, 12
0012B4B3     0001           add     byte ptr ds:[ecx], al
0012B4B5     0000           add     byte ptr ds:[eax], al
0012B4B7     0053 B7        add     byte ptr ds:[ebx-49], dl
0012B4BA     1200           adc     al, byte ptr ds:[eax]
0012B4BC     53             push    ebx
0012B4BD     B7 12          mov     bh, 12
0012B4BF     00FD           add     ch, bh
0012B4C1     FF             db FF                                                    ; Unknown command
0012B4C2     FF             db FF                                                    ; Unknown command
0012B4C3     FF3400         push    dword ptr ds:[eax+eax]
0012B4C6     0000           add     byte ptr ds:[eax], al
0012B4C8     D8B412 001860  fdiv    dword ptr ds:[edx+edx+92601800]
0012B4CF   ^ 7C E0          jl      short 0012B4B1
0012B4D1     B4 12          mov     ah, 12
0012B4D3     0042 AC        add     byte ptr ds:[edx-54], al
0012B4D6     91             xchg    eax, ecx
0012B4D7     7C 34          jl      short 0012B50D
0012B4D9     0000           add     byte ptr ds:[eax], al
0012B4DB     0070 B9        add     byte ptr ds:[eax-47], dh
0012B4DE     1200           adc     al, byte ptr ds:[eax]
0012B4E0     58             pop     eax
0012B4E1     B9 1200B7AA    mov     ecx, AAB70012
0012B4E6     91             xchg    eax, ecx
0012B4E7     7C 34          jl      short 0012B51D
0012B4E9     0000           add     byte ptr ds:[eax], al
0012B4EB     00F2           add     dl, dh
0012B4ED   ^ 70 F1          jo      short 0012B4E0
0012B4EF   ^ 77 9D          ja      short 0012B48E
0012B4F1   ^ 70 F1          jo      short 0012B4E4
0012B4F3   ^ 77 F1          ja      short 0012B4E6
0012B4F5     0301           add     eax, dword ptr ds:[ecx]
0012B4F7     E1 40          loopz   short 0012B539
0012B4F9     0000           add     byte ptr ds:[eax], al
0012B4FB     003C00         add     byte ptr ds:[eax+eax], bh
0012B4FE     0000           add     byte ptr ds:[eax], al
0012B500     0000           add     byte ptr ds:[eax], al
0012B502     0000           add     byte ptr ds:[eax], al
0012B504     C8 7A14 00     enter   147A, 0
0012B508     3C 00          cmp     al, 0
0012B50A     0000           add     byte ptr ds:[eax], al
0012B50C     0000           add     byte ptr ds:[eax], al
0012B50E     0000           add     byte ptr ds:[eax], al
0012B510     34 00          xor     al, 00
0012B512     0000           add     byte ptr ds:[eax], al
0012B514     0000           add     byte ptr ds:[eax], al
0012B516     0000           add     byte ptr ds:[eax], al
0012B518     0000           add     byte ptr ds:[eax], al
0012B51A     0000           add     byte ptr ds:[eax], al
0012B51C     0000           add     byte ptr ds:[eax], al
0012B51E     0000           add     byte ptr ds:[eax], al
0012B520     0000           add     byte ptr ds:[eax], al
0012B522     0000           add     byte ptr ds:[eax], al
0012B524   ^ 70 B9          jo      short 0012B4DF
0012B526     1200           adc     al, byte ptr ds:[eax]
0012B528     0000           add     byte ptr ds:[eax], al
0012B52A     0000           add     byte ptr ds:[eax], al
0012B52C     0000           add     byte ptr ds:[eax], al
0012B52E     0000           add     byte ptr ds:[eax], al
0012B530     FC             cld
0012B531     B8 12000000    mov     eax, 12
0012B536     0000           add     byte ptr ds:[eax], al
0012B538     4C             dec     esp
0012B539     B5 12          mov     ch, 12
0012B53B     00D7           add     bh, dl
0012B53D     2F             das
0012B53E     91             xchg    eax, ecx
0012B53F   ^ 7C F0          jl      short 0012B531
0012B541     0095 00000095  add     byte ptr ss:[ebp+95000000], dl
0012B547     0000           add     byte ptr ds:[eax], al
0012B549     50             push    eax
0012B54A     07             pop     es                                               ; Modification of segment register
0012B54B     0060 B5        add     byte ptr ds:[eax-4B], ah
0012B54E     1200           adc     al, byte ptr ds:[eax]
0012B550     BA 2F917CF0    mov     edx, F07C912F
0012B555     0095 00000095  add     byte ptr ss:[ebp+95000000], dl
0012B55B     0000           add     byte ptr ds:[eax], al
0012B55D     50             push    eax
0012B55E     07             pop     es                                               ; Modification of segment register
0012B55F     0080 B5120080  add     byte ptr ds:[eax+800012B5], al
0012B565     06             push    es
0012B566     25 0060B094    and     eax, 94B06000
0012B56B     7C 40          jl      short 0012B5AD
0012B56D     07             pop     es                                               ; Modification of segment register
0012B56E     25 00C02800    and     eax, 0028C000
0012B573     00EE           add     dh, ch
0012B575     FE             db FE                                                    ; Unknown command
0012B576     EE             out     dx, al                                           ; I/O command
0012B577     FE00           inc     byte ptr ds:[eax]
0012B579     0025 00800625  add     byte ptr ds:[25068000], ah
0012B57F     0000           add     byte ptr ds:[eax], al
0012B581     0000           add     byte ptr ds:[eax], al
0012B583     0070 B6        add     byte ptr ds:[eax-4A], dh
0012B586     1200           adc     al, byte ptr ds:[eax]
0012B588     0000           add     byte ptr ds:[eax], al
0012B58A     0000           add     byte ptr ds:[eax], al
0012B58C   ^ 70 B6          jo      short 0012B544
0012B58E     1200           adc     al, byte ptr ds:[eax]
0012B590     51             push    ecx
0012B591     A3 917C0000    mov     dword ptr ds:[7C91], eax
0012B596     25 00CBA391    and     eax, 91A3CB00
0012B59B   ^ 7C 80          jl      short 0012B51D
0012B59D     06             push    es
0012B59E     25 00000025    and     eax, 25000000
0012B5A3     0088 06250000  add     byte ptr ds:[eax+2506], cl
0012B5A9     0000           add     byte ptr ds:[eax], al
0012B5AB     0000           add     byte ptr ds:[eax], al
0012B5AD     0000           add     byte ptr ds:[eax], al
0012B5AF     0000           add     byte ptr ds:[eax], al
0012B5B1     0000           add     byte ptr ds:[eax], al
0012B5B3     0000           add     byte ptr ds:[eax], al
0012B5B5     0000           add     byte ptr ds:[eax], al
0012B5B7     0000           add     byte ptr ds:[eax], al
0012B5B9     F0:FD          lock std                                                 ; LOCK prefix is not allowed
0012B5BB   ^ 7F 88          jg      short 0012B545
0012B5BD     06             push    es
0012B5BE     25 0000F0FD    and     eax, FDF00000
0012B5C3     7F 00          jg      short 0012B5C5
0012B5C5     F0:FD          lock std                                                 ; LOCK prefix is not allowed
0012B5C7     7F 00          jg      short 0012B5C9
0012B5C9     F0:FD          lock std                                                 ; LOCK prefix is not allowed
0012B5CB     7F 00          jg      short 0012B5CD
0012B5CD     0000           add     byte ptr ds:[eax], al
0012B5CF     0000           add     byte ptr ds:[eax], al
0012B5D1     0000           add     byte ptr ds:[eax], al
0012B5D3     0000           add     byte ptr ds:[eax], al
0012B5D5     0000           add     byte ptr ds:[eax], al
0012B5D7     0050 36        add     byte ptr ds:[eax+36], dl
0012B5DA     9C             pushfd
0012B5DB     0090 4F9C0090  add     byte ptr ds:[eax+90009C4F], dl
0012B5E1     4F             dec     edi
0012B5E2     9C             pushfd
0012B5E3     0003           add     byte ptr ds:[ebx], al
0012B5E5     0000           add     byte ptr ds:[eax], al
0012B5E7     0000           add     byte ptr ds:[eax], al
0012B5E9     0000           add     byte ptr ds:[eax], al
0012B5EB     00FC           add     ah, bh
0012B5ED     B8 12000000    mov     eax, 12
0012B5F2     0000           add     byte ptr ds:[eax], al
0012B5F4     B8 719C0078    mov     eax, 78009C71
0012B5F9     0125 0000369C  add     dword ptr ds:[9C360000], esp
0012B5FF     0080 062500B0  add     byte ptr ds:[eax+B0002506], al
0012B605     0000           add     byte ptr ds:[eax], al
0012B607     0078 01        add     byte ptr ds:[eax+1], bh
0012B60A     25 00923F91    and     eax, 913F9200
0012B60F     7C 01          jl      short 0012B612
0012B611     0000           add     byte ptr ds:[eax], al
0012B613     0078 01        add     byte ptr ds:[eax+1], bh
0012B616     25 00000000    and     eax, 00000000
0012B61B     0000           add     byte ptr ds:[eax], al
0012B61D     0000           add     byte ptr ds:[eax], al
0012B61F     0100           add     dword ptr ds:[eax], eax
0012B621     0025 0020B412  add     byte ptr ds:[12B42000], ah
0012B627     0000           add     byte ptr ds:[eax], al
0012B629     0000           add     byte ptr ds:[eax], al
0012B62B     0060 B8        add     byte ptr ds:[eax-48], ah
0012B62E     1200           adc     al, byte ptr ds:[eax]
0012B630     20E9           and     cl, ch
0012B632     90             nop
0012B633     0000           add     byte ptr ds:[eax], al
0012B635     A0 917C0000    mov     al, byte ptr ds:[7C91]
0012B63A     25 00CBA391    and     eax, 91A3CB00
0012B63F     7C 74          jl      short 0012B6B5
0012B641     B6 12          mov     dh, 12
0012B643     00D7           add     bh, dl
0012B645     F2:96          repne xchg eax, esi                                      ; Superfluous REPxx prefix
0012B647     7C 00          jl      short 0012B649
0012B649     0025 00000014  add     byte ptr ds:[14000000], ah
0012B64F     0021           add     byte ptr ds:[ecx], ah
0012B651     B7 94          mov     bh, 94
0012B653     7C 7C          jl      short 0012B6D1
0012B655     B8 1200689F    mov     eax, 9F680012
0012B65A     91             xchg    eax, ecx
0012B65B   ^ 7C FA          jl      short 0012B657
0012B65D     9F             lahf
0012B65E     91             xchg    eax, ecx
0012B65F   ^ 7C E0          jl      short 0012B641
0012B661     0000           add     byte ptr ds:[eax], al
0012B663     0000           add     byte ptr ds:[eax], al
0012B665     001400         add     byte ptr ds:[eax+eax], dl
0012B668     0100           add     dword ptr ds:[eax], eax
0012B66A     0000           add     byte ptr ds:[eax], al
0012B66C     EE             out     dx, al                                           ; I/O command
0012B66D     FE             db FE                                                    ; Unknown command
0012B66E     EE             out     dx, al                                           ; I/O command
0012B66F     FE00           inc     byte ptr ds:[eax]
0012B671     001400         add     byte ptr ds:[eax+eax], dl
0012B674     0000           add     byte ptr ds:[eax], al
0012B676     0000           add     byte ptr ds:[eax], al
0012B678     1900           sbb     dword ptr ds:[eax], eax
0012B67A     0000           add     byte ptr ds:[eax], al
0012B67C     A8 B8          test    al, B8
0012B67E     1200           adc     al, byte ptr ds:[eax]
0012B680     A8 B8          test    al, B8
0012B682     1200           adc     al, byte ptr ds:[eax]
0012B684     68 9F917CFA    push    FA7C919F
0012B689     9F             lahf
0012B68A     91             xchg    eax, ecx
0012B68B     7C 4C          jl      short 0012B6D9
0012B68D     0000           add     byte ptr ds:[eax], al
0012B68F     0000           add     byte ptr ds:[eax], al
0012B691     001400         add     byte ptr ds:[eax+eax], dl
0012B694     0100           add     dword ptr ds:[eax], eax
0012B696     0000           add     byte ptr ds:[eax], al
0012B698     FA             cli
0012B699     9F             lahf
0012B69A     91             xchg    eax, ecx
0012B69B   ^ 7C AC          jl      short 0012B649
0012B69D     0000           add     byte ptr ds:[eax], al
0012B69F     0000           add     byte ptr ds:[eax], al
0012B6A1     0000           add     byte ptr ds:[eax], al
0012B6A3     0001           add     byte ptr ds:[ecx], al
0012B6A5     0000           add     byte ptr ds:[eax], al
0012B6A7     0000           add     byte ptr ds:[eax], al
0012B6A9     0000           add     byte ptr ds:[eax], al
0012B6AB     0020           add     byte ptr ds:[eax], ah
0012B6AD     0100           add     dword ptr ds:[eax], eax
0012B6AF     0000           add     byte ptr ds:[eax], al
0012B6B1     0000           add     byte ptr ds:[eax], al
0012B6B3     0008           add     byte ptr ds:[eax], cl
0012B6B5     77 14          ja      short 0012B6CB
0012B6B7     0080 0625001C  add     byte ptr ds:[eax+1C002506], al
0012B6BD     0000           add     byte ptr ds:[eax], al
0012B6BF     0052 41        add     byte ptr ds:[edx+41], dl
0012B6C2     91             xchg    eax, ecx
0012B6C3   ^ 7C A8          jl      short 0012B66D
0012B6C5     021400         add     dl, byte ptr ds:[eax+eax]
0012B6C8     44             inc     esp
0012B6C9     B7 01          mov     bh, 1
0012B6CB     011C00         add     dword ptr ds:[eax+eax], ebx
0012B6CE     0000           add     byte ptr ds:[eax], al
0012B6D0     2006           and     byte ptr ds:[esi], al
0012B6D2     98             cwde
0012B6D3   ^ 7C D0          jl      short 0012B6A5
0012B6D5     021400         add     dl, byte ptr ds:[eax+eax]
0012B6D8     99             cdq
0012B6D9     51             push    ecx
0012B6DA     91             xchg    eax, ecx
0012B6DB     7C 18          jl      short 0012B6F5
0012B6DD     B7 12          mov     bh, 12
0012B6DF     00E4           add     ah, ah
0012B6E1     0013           add     byte ptr ds:[ebx], dl
0012B6E3     0000           add     byte ptr ds:[eax], al
0012B6E5     001400         add     byte ptr ds:[eax+eax], dl
0012B6E8     21B7 947C0400  and     dword ptr ds:[edi+47C94], esi
0012B6EE     0000           add     byte ptr ds:[eax], al
0012B6F0     68 9F917CFA    push    FA7C919F
0012B6F5     9F             lahf
0012B6F6     91             xchg    eax, ecx
0012B6F7     7C 0C          jl      short 0012B705
0012B6F9     0000           add     byte ptr ds:[eax], al
0012B6FB     0000           add     byte ptr ds:[eax], al
0012B6FD     001400         add     byte ptr ds:[eax+eax], dl
0012B700     0100           add     dword ptr ds:[eax], eax
0012B702     0000           add     byte ptr ds:[eax], al
0012B704     1000           adc     byte ptr ds:[eax], al
0012B706     0000           add     byte ptr ds:[eax], al
0012B708     0000           add     byte ptr ds:[eax], al
0012B70A     0000           add     byte ptr ds:[eax], al
0012B70C     0000           add     byte ptr ds:[eax], al
0012B70E     0000           add     byte ptr ds:[eax], al
0012B710     A4             movs    byte ptr es:[edi], byte ptr ds:[esi]
0012B711     1013           adc     byte ptr ds:[ebx], dl
0012B713     00D4           add     ah, dl
0012B715     57             push    edi
0012B716     68 F4480100    push    148F4
0012B71B     0021           add     byte ptr ds:[ecx], ah
0012B71D     57             push    edi
0012B71E     91             xchg    eax, ecx
0012B71F   ^ 7C A0          jl      short 0012B6C1
0012B721     76 14          jbe     short 0012B737
0012B723     0000           add     byte ptr ds:[eax], al
0012B725     0000           add     byte ptr ds:[eax], al
0012B727     001C00         add     byte ptr ds:[eax+eax], bl
0012B72A     0000           add     byte ptr ds:[eax], al
0012B72C     BC B71200D0    mov     esp, D00012B7                                    ; Suspicious use of stack pointer
0012B731     021400         add     dl, byte ptr ds:[eax+eax]
0012B734     0800           or      byte ptr ds:[eax], al
0012B736     15 C0000014    adc     eax, 140000C0
0012B73B     0021           add     byte ptr ds:[ecx], ah
0012B73D     B7 94          mov     bh, 94
0012B73F     7C 68          jl      short 0012B7A9
0012B741     B9 1200689F    mov     ecx, 9F680012
0012B746     91             xchg    eax, ecx
0012B747   ^ 7C FA          jl      short 0012B743
0012B749     9F             lahf
0012B74A     91             xchg    eax, ecx
0012B74B     7C 00          jl      short 0012B74D
0012B74D     04 00          add     al, 0
0012B74F     0000           add     byte ptr ds:[eax], al
0012B751     001400         add     byte ptr ds:[eax+eax], dl
0012B754     0100           add     dword ptr ds:[eax], eax
0012B756     0000           add     byte ptr ds:[eax], al
0012B758     D077 14        sal     byte ptr ds:[edi+14], 1                          ; Undocumented instruction or encoding
0012B75B     0058 25        add     byte ptr ds:[eax+25], bl
0012B75E     24 00          and     al, 00
0012B760     0000           add     byte ptr ds:[eax], al
0012B762     0000           add     byte ptr ds:[eax], al
0012B764     D4 B7          aam     0B7
0012B766     1200           adc     al, byte ptr ds:[eax]
0012B768     D077 14        sal     byte ptr ds:[edi+14], 1                          ; Undocumented instruction or encoding
0012B76B     0000           add     byte ptr ds:[eax], al
0012B76D     0E             push    cs
0012B76E     0000           add     byte ptr ds:[eax], al
0012B770     A4             movs    byte ptr es:[edi], byte ptr ds:[esi]
0012B771     1013           adc     byte ptr ds:[ebx], dl
0012B773     0008           add     byte ptr ds:[eax], cl
0012B775     861400         xchg    byte ptr ds:[eax+eax], dl
0012B778     C4B7 12001800  les     esi, fword ptr ds:[edi+180012]                   ; Modification of segment register
0012B77E     0000           add     byte ptr ds:[eax], al
0012B780     9C             pushfd
0012B781     B7 12          mov     bh, 12
0012B783     0078 01        add     byte ptr ds:[eax+1], bh
0012B786     14 00          adc     al, 0
0012B788     C0B7 1200A8B7  sal     byte ptr ds:[edi+B7A80012], 12                   ; Shift out of range
0012B78F     0099 51917CD0  add     byte ptr ds:[ecx+D07C9151], bl
0012B795     B7 12          mov     bh, 12
0012B797     00E4           add     ah, ah
0012B799     0013           add     byte ptr ds:[ebx], dl
0012B79B     000400         add     byte ptr ds:[eax+eax], al
0012B79E     0000           add     byte ptr ds:[eax], al
0012B7A0     D4 00          aam     0
0012B7A2     1300           adc     eax, dword ptr ds:[eax]
0012B7A4     A8 02          test    al, 02
0012B7A6     14 00          adc     al, 0
0012B7A8     40             inc     eax
0012B7A9     06             push    es
0012B7AA     14 00          adc     al, 0
0012B7AC     A8 76          test    al, 76
0012B7AE     14 00          adc     al, 0
0012B7B0     D002           rol     byte ptr ds:[edx], 1
0012B7B2     14 00          adc     al, 0
0012B7B4     D4 00          aam     0
0012B7B6     1300           adc     eax, dword ptr ds:[eax]
0012B7B8     0000           add     byte ptr ds:[eax], al
0012B7BA     0000           add     byte ptr ds:[eax], al
0012B7BC     04 00          add     al, 0
0012B7BE     0000           add     byte ptr ds:[eax], al
0012B7C0     0000           add     byte ptr ds:[eax], al
0012B7C2     0000           add     byte ptr ds:[eax], al
0012B7C4     D077 14        sal     byte ptr ds:[edi+14], 1                          ; Undocumented instruction or encoding
0012B7C7     00A410 1300D4  add     byte ptr ds:[edx+eax+57D40013], ah
0012B7CE     68 F420B812    push    12B820F4
0012B7D3     00D4           add     ah, dl
0012B7D5     0000           add     byte ptr ds:[eax], al
0012B7D7     0004B9         add     byte ptr ds:[edi*4+ecx], al
0012B7DA     1200           adc     al, byte ptr ds:[eax]
0012B7DC     0077 14        add     byte ptr ds:[edi+14], dh
0012B7DF     0001           add     byte ptr ds:[ecx], al
0012B7E1     0000           add     byte ptr ds:[eax], al
0012B7E3     00CF           add     bh, cl
0012B7E5     0000           add     byte ptr ds:[eax], al
0012B7E7     00A410 130002  add     byte ptr ds:[edx+eax+20013], ah
0012B7EE     0000           add     byte ptr ds:[eax], al
0012B7F0     F8             clc
0012B7F1     FB             sti
0012B7F2     FD             std
0012B7F3     7F 48          jg      short 0012B83D
0012B7F5     1F             pop     ds                                               ; Modification of segment register
0012B7F6     24 00          and     al, 00
0012B7F8     1900           sbb     dword ptr ds:[eax], eax
0012B7FA     0000           add     byte ptr ds:[eax], al
0012B7FC     04 00          add     al, 0
0012B7FE     0000           add     byte ptr ds:[eax], al
0012B800     D5 5E          aad     5E
0012B802     91             xchg    eax, ecx
0012B803     7C 78          jl      short 0012B87D
0012B805     011400         add     dword ptr ds:[eax+eax], edx
0012B808     1200           adc     al, byte ptr ds:[eax]
0012B80A     0000           add     byte ptr ds:[eax], al
0012B80C     0C 5F          or      al, 5F
0012B80E     91             xchg    eax, ecx
0012B80F   ^ 7C F8          jl      short 0012B809
0012B811     FB             sti
0012B812     FD             std
0012B813     7F 48          jg      short 0012B85D
0012B815     0100           add     dword ptr ds:[eax], eax
0012B817     0000           add     byte ptr ds:[eax], al
0012B819     0000           add     byte ptr ds:[eax], al
0012B81B     004C00 00      add     byte ptr ds:[eax+eax], cl
0012B81F     0078 01        add     byte ptr ds:[eax+1], bh
0012B822     14 00          adc     al, 0
0012B824     1086 1400A410  adc     byte ptr ds:[esi+10A40014], al
0012B82A     1300           adc     eax, dword ptr ds:[eax]
0012B82C     0000           add     byte ptr ds:[eax], al
0012B82E     0000           add     byte ptr ds:[eax], al
0012B830     0D 00000008    or      eax, 08000000
0012B835     021400         add     dl, byte ptr ds:[eax+eax]
0012B838     54             push    esp
0012B839     B8 12006800    mov     eax, 680012
0012B83E     0000           add     byte ptr ds:[eax], al
0012B840     CF             iretd                                                    ; Far jump or call
0012B841     0000           add     byte ptr ds:[eax], al
0012B843     0070 B8        add     byte ptr ds:[eax-48], dh
0012B846     1200           adc     al, byte ptr ds:[eax]
0012B848     0000           add     byte ptr ds:[eax], al
0012B84A     14 00          adc     al, 0
0012B84C     21B7 947C78BA  and     dword ptr ds:[edi+BA787C94], esi
0012B852     1200           adc     al, byte ptr ds:[eax]
0012B854     68 9F917CFA    push    FA7C919F
0012B859     9F             lahf
0012B85A     91             xchg    eax, ecx
0012B85B   ^ 7C A4          jl      short 0012B801
0012B85D     0200           add     al, byte ptr ds:[eax]
0012B85F     0000           add     byte ptr ds:[eax], al
0012B861     001400         add     byte ptr ds:[eax+eax], dl
0012B864     0100           add     dword ptr ds:[eax], eax
0012B866     0000           add     byte ptr ds:[eax], al
0012B868     0200           add     al, byte ptr ds:[eax]
0012B86A     0000           add     byte ptr ds:[eax], al
0012B86C     1900           sbb     dword ptr ds:[eax], eax
0012B86E     0000           add     byte ptr ds:[eax], al
0012B870     0000           add     byte ptr ds:[eax], al
0012B872     0000           add     byte ptr ds:[eax], al
0012B874     0000           add     byte ptr ds:[eax], al
0012B876     0000           add     byte ptr ds:[eax], al
0012B878     0000           add     byte ptr ds:[eax], al
0012B87A     0000           add     byte ptr ds:[eax], al
0012B87C     E8 09000000    call    0012B88A
0012B881     0003           add     byte ptr ds:[ebx], al
0012B883     00C8           add     al, cl
0012B885     881400         mov     byte ptr ds:[eax+eax], dl
0012B888     68 0000001C    push    1C000000
0012B88D     0000           add     byte ptr ds:[eax], al
0012B88F     008CB6 120078  add     byte ptr ds:[esi*4+esi+1780012], cl
0012B896     14 00          adc     al, 0
0012B898     1C B9          sbb     al, 0B9
0012B89A     1200           adc     al, byte ptr ds:[eax]
0012B89C     0086 140000A0  add     byte ptr ds:[esi+A0000014], al
0012B8A2     91             xchg    eax, ecx
0012B8A3     7C FF          jl      short 0012B8A4
0012B8A5     FF             db FF                                                    ; Unknown command
0012B8A6     FF             db FF                                                    ; Unknown command
0012B8A7     FF             db FF                                                    ; Unknown command
0012B8A8     FA             cli
0012B8A9     9F             lahf
0012B8AA     91             xchg    eax, ecx
0012B8AB     7C 2C          jl      short 0012B8D9
0012B8AD     B9 120090FD    mov     ecx, FD900012
0012B8B2     96             xchg    eax, esi
0012B8B3     7C 08          jl      short 0012B8BD
0012B8B5     06             push    es
0012B8B6     14 00          adc     al, 0
0012B8B8     40             inc     eax
0012B8B9     06             push    es
0012B8BA     14 00          adc     al, 0
0012B8BC     0000           add     byte ptr ds:[eax], al
0012B8BE     14 00          adc     al, 0
0012B8C0     0000           add     byte ptr ds:[eax], al
0012B8C2     0000           add     byte ptr ds:[eax], al
0012B8C4     000E           add     byte ptr ds:[esi], cl
0012B8C6     0000           add     byte ptr ds:[eax], al
0012B8C8     05 00000000    add     eax, 0
0012B8CD     001400         add     byte ptr ds:[eax+eax], dl
0012B8D0     0008           add     byte ptr ds:[eax], cl
0012B8D2     0000           add     byte ptr ds:[eax], al
0012B8D4     78 01          js      short 0012B8D7
0012B8D6     14 00          adc     al, 0
0012B8D8     78 01          js      short 0012B8DB
0012B8DA     14 00          adc     al, 0
0012B8DC     0000           add     byte ptr ds:[eax], al
0012B8DE     0000           add     byte ptr ds:[eax], al
0012B8E0     F8             clc
0012B8E1     811400 000000  adc     dword ptr ds:[eax+eax], 0
0012B8E8     60             pushad
0012B8E9     011400         add     dword ptr ds:[eax+eax], edx
0012B8EC     0000           add     byte ptr ds:[eax], al
0012B8EE     0300           add     eax, dword ptr ds:[eax]
0012B8F0     8300 00        add     dword ptr ds:[eax], 0
0012B8F3     00C2           add     dl, al
0012B8F5     0100           add     dword ptr ds:[eax], eax
0012B8F7     0024BB         add     byte ptr ds:[edi*4+ebx], ah
0012B8FA     1200           adc     al, byte ptr ds:[eax]
0012B8FC     180400         sbb     byte ptr ds:[eax+eax], al
0012B8FF     0068 9F        add     byte ptr ds:[eax-61], ch
0012B902     91             xchg    eax, ecx
0012B903   ^ 7C FA          jl      short 0012B8FF
0012B905     9F             lahf
0012B906     91             xchg    eax, ecx
0012B907   ^ 7C F0          jl      short 0012B8F9
0012B909     811400 000014  adc     dword ptr ds:[eax+eax], 140000
0012B910     F0:811400 780  lock adc dword ptr ds:[eax+eax], 140178
0012B918     98             cwde
0012B919     B9 12000000    mov     ecx, 12
0012B91E     0000           add     byte ptr ds:[eax], al
0012B920     20E9           and     cl, ch
0012B922     90             nop
0012B923   ^ 7C 98          jl      short 0012B8BD
0012B925     FD             std
0012B926     96             xchg    eax, esi
0012B927     7C 38          jl      short 0012B961
0012B929     0E             push    cs
0012B92A     0000           add     byte ptr ds:[eax], al
0012B92C   ^ 74 FD          je      short 0012B92B
0012B92E     96             xchg    eax, esi
0012B92F     7C 78          jl      short 0012B9A9
0012B931     011400         add     dword ptr ds:[eax+eax], edx
0012B934     D088 14000000  ror     byte ptr ds:[eax+14], 1
0012B93A     0000           add     byte ptr ds:[eax], al
0012B93C     D7             xlat    byte ptr ds:[ebx+al]
0012B93D     F2:96          repne xchg eax, esi                                      ; Superfluous REPxx prefix
0012B93F     7C 00          jl      short 0012B941
0012B941     0003           add     byte ptr ds:[ebx], al
0012B943     0078 01        add     byte ptr ds:[eax+1], bh
0012B946     14 00          adc     al, 0
0012B948     180400         sbb     byte ptr ds:[eax+eax], al
0012B94B     0000           add     byte ptr ds:[eax], al
0012B94D     001400         add     byte ptr ds:[eax+eax], dl
0012B950     4C             dec     esp
0012B951     B7 12          mov     bh, 12
0012B953     0008           add     byte ptr ds:[eax], cl
0012B955     0100           add     dword ptr ds:[eax], eax
0012B957     00DC           add     ah, bl
0012B959     B9 120020E9    mov     ecx, E9200012
0012B95E     90             nop
0012B95F     7C 00          jl      short 0012B961
0012B961     A0 917CFFFF    mov     al, byte ptr ds:[FFFF7C91]
0012B966     FF             db FF                                                    ; Unknown command
0012B967     FF             db FF                                                    ; Unknown command
0012B968     FA             cli
0012B969     9F             lahf
0012B96A     91             xchg    eax, ecx
0012B96B   ^ 7C EC          jl      short 0012B959
0012B96D     B9 120090FD    mov     ecx, FD900012
0012B972     96             xchg    eax, esi
0012B973     7C 08          jl      short 0012B97D
0012B975     06             push    es
0012B976     14 00          adc     al, 0
0012B978   ^ 74 FD          je      short 0012B977
0012B97A     96             xchg    eax, esi
0012B97B     7C 00          jl      short 0012B97D
0012B97D     001400         add     byte ptr ds:[eax+eax], dl
0012B980     0000           add     byte ptr ds:[eax], al
0012B982     0000           add     byte ptr ds:[eax], al
0012B984     0000           add     byte ptr ds:[eax], al
0012B986     14 00          adc     al, 0
0012B988     B8 BB1200D0    mov     eax, D00012BB
0012B98D     021400         add     dl, byte ptr ds:[eax+eax]
0012B990     98             cwde
0012B991     FD             std
0012B992     96             xchg    eax, esi
0012B993     7C FF          jl      short 0012B994
0012B995     FF             db FF                                                    ; Unknown command
0012B996     FF             db FF                                                    ; Unknown command
0012B997     FF74FD 96      push    dword ptr ss:[edi*8+ebp-6A]
0012B99B     7C 44          jl      short 0012B9E1
0012B99D     B2 94          mov     dl, 94
0012B99F     7C 00          jl      short 0012B9A1
0012B9A1     001400         add     byte ptr ds:[eax+eax], dl
0012B9A4     C100 00        rol     dword ptr ds:[eax], 0                            ; Shift out of range
0012B9A7     00FA           add     dl, bh
0012B9A9     9F             lahf
0012B9AA     91             xchg    eax, ecx
0012B9AB   ^ 7C C0          jl      short 0012B96D
0012B9AD     881400         mov     byte ptr ds:[eax+eax], dl
0012B9B0     0000           add     byte ptr ds:[eax], al
0012B9B2     0000           add     byte ptr ds:[eax], al
0012B9B4     0086 1400F081  add     byte ptr ds:[esi+81F00014], al
0012B9BA     14 00          adc     al, 0
0012B9BC     180400         sbb     byte ptr ds:[eax+eax], al
0012B9BF     0000           add     byte ptr ds:[eax], al
0012B9C1     001400         add     byte ptr ds:[eax+eax], dl
0012B9C4     0C 02          or      al, 02
0012B9C6     0000           add     byte ptr ds:[eax], al
0012B9C8     E7 00          out     0, eax                                           ; I/O command
0012B9CA     0000           add     byte ptr ds:[eax], al
0012B9CC     F8             clc
0012B9CD     811400 000014  adc     dword ptr ds:[eax+eax], 1140000
0012B9D4     E8 09000000    call    0012B9E2
0012B9D9     001400         add     byte ptr ds:[eax+eax], dl
0012B9DC     0C BC          or      al, BC
0012B9DE     1200           adc     al, byte ptr ds:[eax]
0012B9E0     20E9           and     cl, ch
0012B9E2     90             nop
0012B9E3     7C 78          jl      short 0012BA5D
0012B9E5     011400         add     dword ptr ds:[eax+eax], edx
0012B9E8     78 01          js      short 0012B9EB
0012B9EA     14 00          adc     al, 0
0012B9EC     0000           add     byte ptr ds:[eax], al
0012B9EE     0000           add     byte ptr ds:[eax], al
0012B9F0     1086 14000000  adc     byte ptr ds:[esi+14], al
0012B9F6     14 00          adc     al, 0
0012B9F8     61             popad
0012B9F9     0100           add     dword ptr ds:[eax], eax
0012B9FB     50             push    eax
0012B9FC     FA             cli
0012B9FD     9F             lahf
0012B9FE     91             xchg    eax, ecx
0012B9FF     7C 58          jl      short 0012BA59
0012BA01     0000           add     byte ptr ds:[eax], al
0012BA03     0000           add     byte ptr ds:[eax], al
0012BA05     0000           add     byte ptr ds:[eax], al
0012BA07     0000           add     byte ptr ds:[eax], al
0012BA09     001400         add     byte ptr ds:[eax+eax], dl
0012BA0C     C002 00        rol     byte ptr ds:[edx], 0                             ; Shift out of range
0012BA0F     0040 00        add     byte ptr ds:[eax], al
0012BA12     0000           add     byte ptr ds:[eax], al
0012BA14     0C 02          or      al, 02
0012BA16     0000           add     byte ptr ds:[eax], al
0012BA18     0886 14000000  or      byte ptr ds:[esi+14], al
0012BA1E     14 00          adc     al, 0
0012BA20     0886 14001086  or      byte ptr ds:[esi+86100014], al
0012BA26     14 00          adc     al, 0
0012BA28     68 9F917CFA    push    FA7C919F
0012BA2D     9F             lahf
0012BA2E     91             xchg    eax, ecx
0012BA2F     7C 00          jl      short 0012BA31
0012BA31     0200           add     al, byte ptr ds:[eax]
0012BA33     0000           add     byte ptr ds:[eax], al
0012BA35     0000           add     byte ptr ds:[eax], al
0012BA37     0001           add     byte ptr ds:[ecx], al
0012BA39     0000           add     byte ptr ds:[eax], al
0012BA3B     0000           add     byte ptr ds:[eax], al
0012BA3D     0000           add     byte ptr ds:[eax], al
0012BA3F     0000           add     byte ptr ds:[eax], al
0012BA41     0000           add     byte ptr ds:[eax], al
0012BA43     0000           add     byte ptr ds:[eax], al
0012BA45     0000           add     byte ptr ds:[eax], al
0012BA47     0000           add     byte ptr ds:[eax], al
0012BA49     0000           add     byte ptr ds:[eax], al
0012BA4B     0068 01        add     byte ptr ds:[eax+1], ch
0012BA4E     14 00          adc     al, 0
0012BA50     0000           add     byte ptr ds:[eax], al
0012BA52     0300           add     eax, dword ptr ds:[eax]
0012BA54     78 01          js      short 0012BA57
0012BA56     14 00          adc     al, 0
0012BA58     C002 00        rol     byte ptr ds:[edx], 0                             ; Shift out of range
0012BA5B     0000           add     byte ptr ds:[eax], al
0012BA5D     001400         add     byte ptr ds:[eax+eax], dl
0012BA60     5C             pop     esp
0012BA61     B8 120060B0    mov     eax, B0600012
0012BA66     94             xchg    eax, esp
0012BA67   ^ 7C EC          jl      short 0012BA55
0012BA69     BA 120020E9    mov     edx, E9200012
0012BA6E     90             nop
0012BA6F     7C 00          jl      short 0012BA71
0012BA71     A0 917CFFFF    mov     al, byte ptr ds:[FFFF7C91]
0012BA76     FF             db FF                                                    ; Unknown command
0012BA77     FF             db FF                                                    ; Unknown command
0012BA78     FA             cli
0012BA79     9F             lahf
0012BA7A     91             xchg    eax, ecx
0012BA7B   ^ 7C FC          jl      short 0012BA79
0012BA7D     BA 120090FD    mov     edx, FD900012
0012BA82     96             xchg    eax, esi
0012BA83     7C 08          jl      short 0012BA8D
0012BA85     06             push    es
0012BA86     14 00          adc     al, 0
0012BA88   ^ 74 FD          je      short 0012BA87
0012BA8A     96             xchg    eax, esi
0012BA8B     7C 00          jl      short 0012BA8D
0012BA8D     001400         add     byte ptr ds:[eax+eax], dl
0012BA90     0000           add     byte ptr ds:[eax], al
0012BA92     0000           add     byte ptr ds:[eax], al
0012BA94     0000           add     byte ptr ds:[eax], al
0012BA96     14 00          adc     al, 0
0012BA98     2000           and     byte ptr ds:[eax], al
0012BA9A     0000           add     byte ptr ds:[eax], al
0012BA9C     C081 1400A876  rol     byte ptr ds:[ecx+76A80014], 14                   ; Shift out of range
0012BAA3     0090 77140000  add     byte ptr ds:[eax+1477], dl
0012BAA9     0000           add     byte ptr ds:[eax], al
0012BAAB     0007           add     byte ptr ds:[edi], al
0012BAAD     0000           add     byte ptr ds:[eax], al
0012BAAF     0040 00        add     byte ptr ds:[eax], al
0012BAB2     0000           add     byte ptr ds:[eax], al
0012BAB4     8000 00        add     byte ptr ds:[eax], 0
0012BAB7     0038           add     byte ptr ds:[eax], bh
0012BAB9     0000           add     byte ptr ds:[eax], al
0012BABB     0058 5B        add     byte ptr ds:[eax+5B], bl
0012BABE     91             xchg    eax, ecx
0012BABF     7C 07          jl      short 0012BAC8
0012BAC1     0000           add     byte ptr ds:[eax], al
0012BAC3     00C0           add     al, al
0012BAC5     881400         mov     byte ptr ds:[eax+eax], dl
0012BAC8     0886 1400C002  or      byte ptr ds:[esi+2C00014], al
0012BACE     0000           add     byte ptr ds:[eax], al
0012BAD0     0000           add     byte ptr ds:[eax], al
0012BAD2     14 00          adc     al, 0
0012BAD4     80E3 97        and     bl, 97
0012BAD7     7C 00          jl      short 0012BAD9
0012BAD9     0000           add     byte ptr ds:[eax], al
0012BADB     0010           add     byte ptr ds:[eax], dl
0012BADD     861400         xchg    byte ptr ds:[eax+eax], dl
0012BAE0     0000           add     byte ptr ds:[eax], al
0012BAE2     0001           add     byte ptr ds:[ecx], al
0012BAE4     8CBA 1200EEFE  mov     word ptr ds:[edx+FEEE0012], seg7:                ; Invalid segment register
0012BAEA     EE             out     dx, al                                           ; I/O command
0012BAEB     FE             db FE                                                    ; Unknown command
0012BAEC     1C BD          sbb     al, 0BD
0012BAEE     1200           adc     al, byte ptr ds:[eax]
0012BAF0     20E9           and     cl, ch
0012BAF2     90             nop
0012BAF3   ^ 7C 98          jl      short 0012BA8D
0012BAF5     FD             std
0012BAF6     96             xchg    eax, esi
0012BAF7     7C FF          jl      short 0012BAF8
0012BAF9     FF             db FF                                                    ; Unknown command
0012BAFA     FF             db FF                                                    ; Unknown command
0012BAFB     FF74FD 96      push    dword ptr ss:[edi*8+ebp-6A]
0012BAFF     7C 44          jl      short 0012BB45
0012BB01     B2 94          mov     dl, 94
0012BB03     7C 00          jl      short 0012BB05
0012BB05     001400         add     byte ptr ds:[eax+eax], dl
0012BB08     61             popad
0012BB09     0100           add     dword ptr ds:[eax], eax
0012BB0B     50             push    eax
0012BB0C     FA             cli
0012BB0D     9F             lahf
0012BB0E     91             xchg    eax, ecx
0012BB0F     7C 00          jl      short 0012BB11
0012BB11     0000           add     byte ptr ds:[eax], al
0012BB13     0000           add     byte ptr ds:[eax], al
0012BB15     0000           add     byte ptr ds:[eax], al
0012BB17     0000           add     byte ptr ds:[eax], al
0012BB19     001400         add     byte ptr ds:[eax+eax], dl
0012BB1C     00A0 917CFFFF  add     byte ptr ds:[eax+FFFF7C91], ah
0012BB22     FF             db FF                                                    ; Unknown command
0012BB23     FF             db FF                                                    ; Unknown command
0012BB24     FA             cli
0012BB25     9F             lahf
0012BB26     91             xchg    eax, ecx
0012BB27   ^ 7C A8          jl      short 0012BAD1
0012BB29     BB 120090FD    mov     ebx, FD900012
0012BB2E     96             xchg    eax, esi
0012BB2F     7C 08          jl      short 0012BB39
0012BB31     06             push    es
0012BB32     14 00          adc     al, 0
0012BB34   ^ 74 FD          je      short 0012BB33
0012BB36     96             xchg    eax, esi
0012BB37     7C 00          jl      short 0012BB39
0012BB39     001400         add     byte ptr ds:[eax+eax], dl
0012BB3C     0000           add     byte ptr ds:[eax], al
0012BB3E     0000           add     byte ptr ds:[eax], al
0012BB40     0000           add     byte ptr ds:[eax], al
0012BB42     14 00          adc     al, 0
0012BB44     60             pushad
0012BB45     011400         add     dword ptr ds:[eax+eax], edx
0012BB48     0000           add     byte ptr ds:[eax], al
0012BB4A     0300           add     eax, dword ptr ds:[eax]
0012BB4C     D002           rol     byte ptr ds:[edx], 1
0012BB4E     14 00          adc     al, 0
0012BB50     2001           and     byte ptr ds:[ecx], al
0012BB52     0000           add     byte ptr ds:[eax], al
0012BB54     0000           add     byte ptr ds:[eax], al
0012BB56     14 00          adc     al, 0
0012BB58     54             push    esp
0012BB59     B9 12007876    mov     ecx, 76780012
0012BB5E     14 00          adc     al, 0
0012BB60     E4 BB          in      al, 0BB                                          ; I/O command
0012BB62     1200           adc     al, byte ptr ds:[eax]
0012BB64     20E9           and     cl, ch
0012BB66     90             nop
0012BB67     7C 00          jl      short 0012BB69
0012BB69     A0 917CFFFF    mov     al, byte ptr ds:[FFFF7C91]
0012BB6E     FF             db FF                                                    ; Unknown command
0012BB6F     FFE8           jmp     eax                                              ; Illegal use of register
0012BB71     811400 B88114  adc     dword ptr ds:[eax+eax], 1481B8
0012BB78     3800           cmp     byte ptr ds:[eax], al
0012BB7A     0000           add     byte ptr ds:[eax], al
0012BB7C     0000           add     byte ptr ds:[eax], al
0012BB7E     14 00          adc     al, 0
0012BB80   ^ 74 FD          je      short 0012BB7F
0012BB82     96             xchg    eax, esi
0012BB83     7C 00          jl      short 0012BB85
0012BB85     0000           add     byte ptr ds:[eax], al
0012BB87     00C0           add     al, al
0012BB89     811400 B4BD12  adc     dword ptr ds:[eax+eax], 112BDB4
0012BB90     0000           add     byte ptr ds:[eax], al
0012BB92     0000           add     byte ptr ds:[eax], al
0012BB94     FA             cli
0012BB95     9F             lahf
0012BB96     91             xchg    eax, ecx
0012BB97   ^ 7C C8          jl      short 0012BB61
0012BB99     BD 120020E9    mov     ebp, E9200012
0012BB9E     90             nop
0012BB9F   ^ 7C 98          jl      short 0012BB39
0012BBA1     FD             std
0012BBA2     96             xchg    eax, esi
0012BBA3     7C FF          jl      short 0012BBA4
0012BBA5     FF             db FF                                                    ; Unknown command
0012BBA6     FF             db FF                                                    ; Unknown command
0012BBA7     FF74FD 96      push    dword ptr ss:[edi*8+ebp-6A]
0012BBAB     7C 44          jl      short 0012BBF1
0012BBAD     B2 94          mov     dl, 94
0012BBAF     7C 00          jl      short 0012BBB1
0012BBB1     0000           add     byte ptr ds:[eax], al
0012BBB3     0069 01        add     byte ptr ds:[ecx+1], ch
0012BBB6     14 50          adc     al, 50
0012BBB8     FA             cli
0012BBB9     9F             lahf
0012BBBA     91             xchg    eax, ecx
0012BBBB     7C 00          jl      short 0012BBBD
0012BBBD     0000           add     byte ptr ds:[eax], al
0012BBBF     0028           add     byte ptr ds:[eax], ch
0012BBC1     811400 000014  adc     dword ptr ds:[eax+eax], 140000
0012BBC8     0000           add     byte ptr ds:[eax], al
0012BBCA     0000           add     byte ptr ds:[eax], al
0012BBCC     0C 9C          or      al, 9C
0012BBCE     91             xchg    eax, ecx
0012BBCF     7C 78          jl      short 0012BC49
0012BBD1     0133           add     dword ptr ds:[ebx], esi
0012BBD3     0080 761400E8  add     byte ptr ds:[eax+E8001476], al
0012BBD9     05 970184BB    add     eax, BB840197
0012BBDE     1200           adc     al, byte ptr ds:[eax]
0012BBE0     C405 977C14BE  les     eax, fword ptr ds:[BE147C97]                     ; Modification of segment register
0012BBE6     1200           adc     al, byte ptr ds:[eax]
0012BBE8     20E9           and     cl, ch
0012BBEA     90             nop
0012BBEB   ^ 7C 98          jl      short 0012BB85
0012BBED     FD             std
0012BBEE     96             xchg    eax, esi
0012BBEF     7C FF          jl      short 0012BBF0
0012BBF1     FF             db FF                                                    ; Unknown command
0012BBF2     FF             db FF                                                    ; Unknown command
0012BBF3     FF40 06        inc     dword ptr ds:[eax+6]
0012BBF6     3300           xor     eax, dword ptr ds:[eax]
0012BBF8     44             inc     esp
0012BBF9     B2 94          mov     dl, 94
0012BBFB     7C 00          jl      short 0012BBFD
0012BBFD     001400         add     byte ptr ds:[eax+eax], dl
0012BC00     0000           add     byte ptr ds:[eax], al
0012BC02     14 00          adc     al, 0
0012BC04     00BA 12000000  add     byte ptr ds:[edx+12], bh
0012BC0A     0000           add     byte ptr ds:[eax], al
0012BC0C     40             inc     eax
0012BC0D     BE 120020E9    mov     esi, E9200012
0012BC12     90             nop
0012BC13     7C 00          jl      short 0012BC15
0012BC15     A0 917CFFFF    mov     al, byte ptr ds:[FFFF7C91]
0012BC1A     FF             db FF                                                    ; Unknown command
0012BC1B     FF             db FF                                                    ; Unknown command
0012BC1C     FA             cli
0012BC1D     9F             lahf
0012BC1E     91             xchg    eax, ecx
0012BC1F     7C 0C          jl      short 0012BC2D
0012BC21     9C             pushfd
0012BC22     91             xchg    eax, ecx
0012BC23     7C 00          jl      short 0012BC25
0012BC25     001400         add     byte ptr ds:[eax+eax], dl
0012BC28     60             pushad
0012BC29     0000           add     byte ptr ds:[eax], al
0012BC2B     40             inc     eax
0012BC2C     DB01           fild    dword ptr ds:[ecx]
0012BC2E     91             xchg    eax, ecx
0012BC2F     7C 00          jl      short 0012BC31
0012BC31     0000           add     byte ptr ds:[eax], al
0012BC33     0000           add     byte ptr ds:[eax], al
0012BC35     0000           add     byte ptr ds:[eax], al
0012BC37     0018           add     byte ptr ds:[eax], bl
0012BC39     76 14          jbe     short 0012BC4F
0012BC3B     0008           add     byte ptr ds:[eax], cl
0012BC3D     06             push    es
0012BC3E     14 00          adc     al, 0
0012BC40     C405 977C0000  les     eax, fword ptr ds:[7C97]                         ; Modification of segment register
0012BC46     14 00          adc     al, 0
0012BC48     8076 14 00     xor     byte ptr ds:[esi+14], 00
0012BC4C     60             pushad
0012BC4D     0000           add     byte ptr ds:[eax], al
0012BC4F     40             inc     eax
0012BC50     78 01          js      short 0012BC53
0012BC52     3300           xor     eax, dword ptr ds:[eax]
0012BC54     FF             db FF                                                    ; Unknown command
0012BC55     FF             db FF                                                    ; Unknown command
0012BC56     FF             db FF                                                    ; Unknown command
0012BC57     FFC4           inc     esp
0012BC59     05 977C2093    add     eax, 93207C97
0012BC5E     F1             int1                                                     ; Undocumented instruction or encoding
0012BC5F     77 44          ja      short 0012BCA5
0012BC61     87947C 7F1E91  xchg    dword ptr ss:[edi*2+esp+ntdll.7C911E7F], edx
0012BC68     B0 CA          mov     al, 0CA
0012BC6A     1200           adc     al, byte ptr ds:[eax]
0012BC6C     0000           add     byte ptr ds:[eax], al
0012BC6E     0000           add     byte ptr ds:[eax], al
0012BC70     0160 EA        add     dword ptr ds:[eax-16], esp
0012BC73     73 18          jae     short 0012BC8D
0012BC75     76 14          jbe     short 0012BC8B
0012BC77     0000           add     byte ptr ds:[eax], al
0012BC79     0000           add     byte ptr ds:[eax], al
0012BC7B     0000           add     byte ptr ds:[eax], al
0012BC7D     0000           add     byte ptr ds:[eax], al
0012BC7F     00DF           add     bh, bl
0012BC81     05 0A2A38BE    add     eax, BE382A0A
0012BC86     1200           adc     al, byte ptr ds:[eax]
0012BC88     E4 93          in      al, 93                                           ; I/O command
0012BC8A     F1             int1                                                     ; Undocumented instruction or encoding
0012BC8B   ^ 77 EC          ja      short 0012BC79
0012BC8D     93             xchg    eax, ebx
0012BC8E     F1             int1                                                     ; Undocumented instruction or encoding
0012BC8F   ^ 77 F5          ja      short 0012BC86
0012BC91     FF             db FF                                                    ; Unknown command
0012BC92     FF             db FF                                                    ; Unknown command
0012BC93     FF00           inc     dword ptr ds:[eax]
0012BC95     0000           add     byte ptr ds:[eax], al
0012BC97     0000           add     byte ptr ds:[eax], al
0012BC99     0000           add     byte ptr ds:[eax], al
0012BC9B     0000           add     byte ptr ds:[eax], al
0012BC9D     0000           add     byte ptr ds:[eax], al
0012BC9F     0000           add     byte ptr ds:[eax], al
0012BCA1     0000           add     byte ptr ds:[eax], al
0012BCA3     0000           add     byte ptr ds:[eax], al
0012BCA5     0000           add     byte ptr ds:[eax], al
0012BCA7     0100           add     dword ptr ds:[eax], eax
0012BCA9     0000           add     byte ptr ds:[eax], al
0012BCAB     004487 94      add     byte ptr ds:[eax*4+edi-6C], al
0012BCAF     7C 7F          jl      short 0012BD30
0012BCB1     1E             push    ds
0012BCB2     91             xchg    eax, ecx
0012BCB3   ^ 7C FC          jl      short 0012BCB1
0012BCB5     CA 1200        retf    12                                               ; Far jump or call
0012BCB8     0000           add     byte ptr ds:[eax], al
0012BCBA     0000           add     byte ptr ds:[eax], al
0012BCBC     0160 EA        add     dword ptr ds:[eax-16], esp
0012BCBF     73 00          jae     short 0012BCC1
0012BCC1     0000           add     byte ptr ds:[eax], al
0012BCC3     0000           add     byte ptr ds:[eax], al
0012BCC5     0000           add     byte ptr ds:[eax], al
0012BCC7     0000           add     byte ptr ds:[eax], al
0012BCC9     0000           add     byte ptr ds:[eax], al
0012BCCB     0000           add     byte ptr ds:[eax], al
0012BCCD     0000           add     byte ptr ds:[eax], al
0012BCCF     0000           add     byte ptr ds:[eax], al
0012BCD1     0000           add     byte ptr ds:[eax], al
0012BCD3     0000           add     byte ptr ds:[eax], al
0012BCD5     0000           add     byte ptr ds:[eax], al
0012BCD7     0000           add     byte ptr ds:[eax], al
0012BCD9     0000           add     byte ptr ds:[eax], al
0012BCDB     0000           add     byte ptr ds:[eax], al
0012BCDD     0000           add     byte ptr ds:[eax], al
0012BCDF     0000           add     byte ptr ds:[eax], al
0012BCE1     0000           add     byte ptr ds:[eax], al
0012BCE3     0000           add     byte ptr ds:[eax], al
0012BCE5     0000           add     byte ptr ds:[eax], al
0012BCE7     0000           add     byte ptr ds:[eax], al
0012BCE9     0000           add     byte ptr ds:[eax], al
0012BCEB     0000           add     byte ptr ds:[eax], al
0012BCED     0042 7E        add     byte ptr ds:[edx+7E], al
0012BCF0     0000           add     byte ptr ds:[eax], al
0012BCF2     0000           add     byte ptr ds:[eax], al
0012BCF4     0200           add     al, byte ptr ds:[eax]
0012BCF6     0000           add     byte ptr ds:[eax], al
0012BCF8     0100           add     dword ptr ds:[eax], eax
0012BCFA     0000           add     byte ptr ds:[eax], al
0012BCFC     0270 F1        add     dh, byte ptr ds:[eax-0F]
0012BCFF   ^ 77 EA          ja      short 0012BCEB
0012BD01     6F             outs    dx, dword ptr ds:[esi]                           ; I/O command
0012BD02     F1             int1                                                     ; Undocumented instruction or encoding
0012BD03   ^ 77 F1          ja      short 0012BCF6
0012BD05     0301           add     eax, dword ptr ds:[ecx]
0012BD07     E1 00          loopz   short 0012BD09
0012BD09     00DD           add     ch, bl
0012BD0B     73 0F          jae     short 0012BD1C
0012BD0D     0000           add     byte ptr ds:[eax], al
0012BD0F     0000           add     byte ptr ds:[eax], al
0012BD11     001400         add     byte ptr ds:[eax+eax], dl
0012BD14     10BB 12000000  adc     byte ptr ds:[ebx+12], bh
0012BD1A     0000           add     byte ptr ds:[eax], al
0012BD1C     50             push    eax
0012BD1D     BF 12000000    mov     edi, 12
0012BD22     0000           add     byte ptr ds:[eax], al
0012BD24     00A0 917C0000  add     byte ptr ds:[eax+7C91], ah
0012BD2A     0000           add     byte ptr ds:[eax], al
0012BD2C     FA             cli
0012BD2D     9F             lahf
0012BD2E     91             xchg    eax, ecx
0012BD2F     7C 0C          jl      short 0012BD3D
0012BD31     9C             pushfd
0012BD32     91             xchg    eax, ecx
0012BD33     7C 00          jl      short 0012BD35
0012BD35     001400         add     byte ptr ds:[eax+eax], dl
0012BD38     60             pushad
0012BD39     0000           add     byte ptr ds:[eax], al
0012BD3B     40             inc     eax
0012BD3C     DB01           fild    dword ptr ds:[ecx]
0012BD3E     91             xchg    eax, ecx
0012BD3F     7C 00          jl      short 0012BD41
0012BD41     0000           add     byte ptr ds:[eax], al
0012BD43     0000           add     byte ptr ds:[eax], al
0012BD45     0000           add     byte ptr ds:[eax], al
0012BD47     0018           add     byte ptr ds:[eax], bl
0012BD49     76 14          jbe     short 0012BD5F
0012BD4B     007E C1        add     byte ptr ds:[esi-3F], bh
0012BD4E     42             inc     edx
0012BD4F     7E 00          jle     short 0012BD51
0012BD51     0000           add     byte ptr ds:[eax], al
0012BD53     0000           add     byte ptr ds:[eax], al
0012BD55     00DD           add     ch, bl
0012BD57     73 7E          jae     short 0012BDD7
0012BD59     C142 7E 00     rol     dword ptr ds:[edx+7E], 0                         ; Shift out of range
0012BD5D     0000           add     byte ptr ds:[eax], al
0012BD5F     0048 BD        add     byte ptr ds:[eax-43], cl
0012BD62     1200           adc     al, byte ptr ds:[eax]
0012BD64     0000           add     byte ptr ds:[eax], al
0012BD66     0000           add     byte ptr ds:[eax], al
0012BD68     FC             cld
0012BD69     BD 12000000    mov     ebp, 12
0012BD6E     0000           add     byte ptr ds:[eax], al
0012BD70     F0:C142 7E 00  lock rol dword ptr ds:[edx+7E], 0                        ; LOCK prefix is not allowed
0012BD75     0000           add     byte ptr ds:[eax], al
0012BD77     00E9           add     cl, ch
0012BD79     C142 7E 34     rol     dword ptr ds:[edx+7E], 34                        ; Shift out of range
0012BD7D     8741 7E        xchg    dword ptr ds:[ecx+7E], eax
0012BD80     A2 02050029    mov     byte ptr ds:[29000502], al
0012BD85     0100           add     dword ptr ds:[eax], eax
0012BD87     0000           add     byte ptr ds:[eax], al
0012BD89     0000           add     byte ptr ds:[eax], al
0012BD8B     0000           add     byte ptr ds:[eax], al
0012BD8D     0000           add     byte ptr ds:[eax], al
0012BD8F     007E C1        add     byte ptr ds:[esi-3F], bh
0012BD92     42             inc     edx
0012BD93   ^ 7E CD          jle     short 0012BD62
0012BD95     AB             stos    dword ptr es:[edi]
0012BD96     BA DC000000    mov     edx, 0DC
0012BD9B     00E0           add     al, ah
0012BD9D     BD 12007EC1    mov     ebp, C17E0012
0012BDA2     42             inc     edx
0012BDA3   ^ 7E C3          jle     short 0012BD68
0012BDA5     8C41 7E        mov     word ptr ds:[ecx+7E], es
0012BDA8     F0:9E          lock sahf                                                ; LOCK prefix is not allowed
0012BDAA     41             inc     ecx
0012BDAB     7E 00          jle     short 0012BDAD
0012BDAD     0000           add     byte ptr ds:[eax], al
0012BDAF     00F4           add     ah, dh
0012BDB1     0100           add     dword ptr ds:[eax], eax
0012BDB3     0044BE 12      add     byte ptr ds:[edi*4+esi+12], al
0012BDB7     0000           add     byte ptr ds:[eax], al
0012BDB9     0000           add     byte ptr ds:[eax], al
0012BDBB     0000           add     byte ptr ds:[eax], al
0012BDBD     0000           add     byte ptr ds:[eax], al
0012BDBF     0028           add     byte ptr ds:[eax], ch
0012BDC1     811400 000000  adc     dword ptr ds:[eax+eax], 0
0012BDC8     48             dec     eax
0012BDC9     2E:14 00       adc     al, 0                                            ; Superfluous segment override prefix
0012BDCC     14 00          adc     al, 0
0012BDCE     0000           add     byte ptr ds:[eax], al
0012BDD0     0100           add     dword ptr ds:[eax], eax
0012BDD2     0000           add     byte ptr ds:[eax], al
0012BDD4     0000           add     byte ptr ds:[eax], al
0012BDD6     0000           add     byte ptr ds:[eax], al
0012BDD8     0000           add     byte ptr ds:[eax], al
0012BDDA     0000           add     byte ptr ds:[eax], al
0012BDDC     1000           adc     byte ptr ds:[eax], al
0012BDDE     0000           add     byte ptr ds:[eax], al
0012BDE0     0000           add     byte ptr ds:[eax], al
0012BDE2     0000           add     byte ptr ds:[eax], al
0012BDE4     0000           add     byte ptr ds:[eax], al
0012BDE6     0000           add     byte ptr ds:[eax], al
0012BDE8     2C BE          sub     al, 0BE
0012BDEA     1200           adc     al, byte ptr ds:[eax]
0012BDEC     64:76 00       jbe     short 0012BDEF                                   ; Superfluous segment override prefix
0012BDEF     0800           or      byte ptr ds:[eax], al
0012BDF1     0000           add     byte ptr ds:[eax], al
0012BDF3     00F4           add     ah, dh
0012BDF5     0100           add     dword ptr ds:[eax], eax
0012BDF7     0044BE 12      add     byte ptr ds:[edi*4+esi+12], al
0012BDFB     006E 9F        add     byte ptr ds:[esi-61], ch
0012BDFE     41             inc     ecx
0012BDFF     7E 00          jle     short 0012BE01
0012BE01     0000           add     byte ptr ds:[eax], al
0012BE03     0028           add     byte ptr ds:[eax], ch
0012BE05     811400 000000  adc     dword ptr ds:[eax+eax], 0
0012BE0C     0100           add     dword ptr ds:[eax], eax
0012BE0E     0000           add     byte ptr ds:[eax], al
0012BE10     0000           add     byte ptr ds:[eax], al
0012BE12     0000           add     byte ptr ds:[eax], al
0012BE14     00BE 12007EC1  add     byte ptr ds:[esi+C17E0012], bh
0012BE1A     42             inc     edx
0012BE1B     7E 00          jle     short 0012BE1D
0012BE1D     0000           add     byte ptr ds:[eax], al
0012BE1F     0000           add     byte ptr ds:[eax], al
0012BE21     0000           add     byte ptr ds:[eax], al
0012BE23     0078 9F        add     byte ptr ds:[eax-61], bh
0012BE26     41             inc     ecx
0012BE27     7E FF          jle     short 0012BE28
0012BE29     FF             db FF                                                    ; Unknown command
0012BE2A     FF             db FF                                                    ; Unknown command
0012BE2B     FF6E 9F        jmp     far fword ptr ds:[esi-61]                        ; Far jump or call
0012BE2E     41             inc     ecx
0012BE2F     7E 3A          jle     short 0012BE6B
0012BE31     B1 00          mov     cl, 0
0012BE33     5D             pop     ebp
0012BE34     2000           and     byte ptr ds:[eax], al
0012BE36     0000           add     byte ptr ds:[eax], al
0012BE38     FF00           inc     dword ptr ds:[eax]
0012BE3A     0000           add     byte ptr ds:[eax], al
0012BE3C     F8             clc
0012BE3D     811400 FE0100  adc     dword ptr ds:[eax+eax], 1FE
0012BE44   ^ 78 BF          js      short 0012BE05
0012BE46     1200           adc     al, byte ptr ds:[eax]
0012BE48     15 BFF177FA    adc     eax, FA77F1BF
0012BE4D     811400 FE0100  adc     dword ptr ds:[eax+eax], 1FE
0012BE54   ^ 70 BE          jo      short 0012BE14
0012BE56     1200           adc     al, byte ptr ds:[eax]
0012BE58     58             pop     eax
0012BE59     BF F1772040    mov     edi, 402077F1
0012BE5E     F5             cmc
0012BE5F     77 18          ja      short 0012BE79
0012BE61     76 14          jbe     short 0012BE77
0012BE63     0000           add     byte ptr ds:[eax], al
0012BE65     0000           add     byte ptr ds:[eax], al
0012BE67     0000           add     byte ptr ds:[eax], al
0012BE69     001400         add     byte ptr ds:[eax+eax], dl
0012BE6C     21B7 947C98C0  and     dword ptr ds:[edi+C0987C94], esi
0012BE72     1200           adc     al, byte ptr ds:[eax]
0012BE74     68 9F917CFA    push    FA7C919F
0012BE79     9F             lahf
0012BE7A     91             xchg    eax, ecx
0012BE7B   ^ 7C 80          jl      short 0012BDFD
0012BE7D     0000           add     byte ptr ds:[eax], al
0012BE7F     0000           add     byte ptr ds:[eax], al
0012BE81     001400         add     byte ptr ds:[eax+eax], dl
0012BE84     0100           add     dword ptr ds:[eax], eax
0012BE86     0000           add     byte ptr ds:[eax], al
0012BE88     14 15          adc     al, 15
0012BE8A     16             push    ss
0012BE8B     17             pop     ss                                               ; Modification of segment register
0012BE8C     1819           sbb     byte ptr ds:[ecx], bl
0012BE8E     1A1B           sbb     bl, byte ptr ds:[ebx]
0012BE90     0000           add     byte ptr ds:[eax], al
0012BE92     0000           add     byte ptr ds:[eax], al
0012BE94     2021           and     byte ptr ds:[ecx], ah
0012BE96     2223           and     ah, byte ptr ds:[ebx]
0012BE98     24 25          and     al, 25
0012BE9A     26:27          daa                                                      ; Superfluous segment override prefix
0012BE9C     2807           sub     byte ptr ds:[edi], al
0012BE9E     0000           add     byte ptr ds:[eax], al
0012BEA0     2C 2D          sub     al, 2D
0012BEA2     2E:2F          das                                                      ; Superfluous segment override prefix
0012BEA4     60             pushad
0012BEA5     891400         mov     dword ptr ds:[eax+eax], edx
0012BEA8     34 35          xor     al, 35
0012BEAA     36:37          aaa                                                      ; Superfluous segment override prefix
0012BEAC     1800           sbb     byte ptr ds:[eax], al
0012BEAE     0000           add     byte ptr ds:[eax], al
0012BEB0     3C 3D          cmp     al, 3D
0012BEB2     3E:3F          aas                                                      ; Superfluous segment override prefix
0012BEB4     78 01          js      short 0012BEB7
0012BEB6     14 00          adc     al, 0
0012BEB8     44             inc     esp
0012BEB9     45             inc     ebp
0012BEBA     46             inc     esi
0012BEBB     47             inc     edi
0012BEBC     48             dec     eax
0012BEBD     49             dec     ecx
0012BEBE     4A             dec     edx
0012BEBF     4B             dec     ebx
0012BEC0     4C             dec     esp
0012BEC1     4D             dec     ebp
0012BEC2     4E             dec     esi
0012BEC3     4F             dec     edi
0012BEC4     50             push    eax
0012BEC5     51             push    ecx
0012BEC6     52             push    edx
0012BEC7     53             push    ebx
0012BEC8     54             push    esp
0012BEC9     55             push    ebp
0012BECA     56             push    esi
0012BECB     57             push    edi
0012BECC     58             pop     eax
0012BECD     59             pop     ecx
0012BECE     5A             pop     edx
0012BECF     5B             pop     ebx
0012BED0     5C             pop     esp
0012BED1     5D             pop     ebp
0012BED2     5E             pop     esi
0012BED3     5F             pop     edi
0012BED4     60             pushad
0012BED5     61             popad
0012BED6     6263 40        bound   esp, qword ptr ds:[ebx+40]
0012BED9     06             push    es
0012BEDA     14 00          adc     al, 0
0012BEDC     68 696A6B6C    push    6C6B6A69
0012BEE1     6D             ins     dword ptr es:[edi], dx                           ; I/O command
0012BEE2     6E             outs    dx, byte ptr ds:[esi]                            ; I/O command
0012BEE3     6F             outs    dx, dword ptr ds:[esi]                           ; I/O command
0012BEE4     70 71          jo      short 0012BF57
0012BEE6     72 73          jb      short 0012BF5B
0012BEE8     74 75          je      short 0012BF5F
0012BEEA     76 77          jbe     short 0012BF63
0012BEEC     78 79          js      short 0012BF67
0012BEEE     7A 7B          jpe     short 0012BF6B
0012BEF0     7C 7D          jl      short 0012BF6F
0012BEF2     7E 7F          jle     short 0012BF73
0012BEF4     8081 82838485  add     byte ptr ds:[ecx+85848382], 86
0012BEFB     8788 898A8B8C  xchg    dword ptr ds:[eax+8C8B8A89], ecx
0012BF01     8D8E 8F909192  lea     ecx, [esi+9291908F]
0012BF07     93             xchg    eax, ebx
0012BF08     94             xchg    eax, esp
0012BF09     95             xchg    eax, ebp
0012BF0A     96             xchg    eax, esi
0012BF0B     97             xchg    eax, edi
0012BF0C     98             cwde
0012BF0D     99             cdq
0012BF0E     9A 9B9C9D9E 9  call    far A09F:9E9D9C9B                                ; Far jump or call
0012BF15     A1 A2A3A4A5    mov     eax, dword ptr ds:[A5A4A3A2]
0012BF1A     A6             cmps    byte ptr ds:[esi], byte ptr es:[edi]
0012BF1B     A7             cmps    dword ptr ds:[esi], dword ptr es:[edi]
0012BF1C     A8 A9          test    al, A9
0012BF1E     AA             stos    byte ptr es:[edi]
0012BF1F     AB             stos    dword ptr es:[edi]
0012BF20     AC             lods    byte ptr ds:[esi]
0012BF21     AD             lods    dword ptr ds:[esi]
0012BF22     AE             scas    byte ptr es:[edi]
0012BF23     AF             scas    dword ptr es:[edi]
0012BF24     B0 B1          mov     al, 0B1
0012BF26     B2 B3          mov     dl, 0B3
0012BF28     B4 B5          mov     ah, 0B5
0012BF2A     B6 B7          mov     dh, 0B7
0012BF2C     0000           add     byte ptr ds:[eax], al
0012BF2E     0000           add     byte ptr ds:[eax], al
0012BF30     0000           add     byte ptr ds:[eax], al
0012BF32     0000           add     byte ptr ds:[eax], al
0012BF34     78 01          js      short 0012BF37
0012BF36     14 00          adc     al, 0
0012BF38     C4C5           les     eax, ebp                                         ; Illegal use of register
0012BF3A     C6C7 C8        mov     bh, 0C8
0012BF3D     C9             leave
0012BF3E     CA CBCC        retf    0CCCB                                            ; Far jump or call
0012BF41     CD 00          int     0
0012BF43     CF             iretd                                                    ; Far jump or call
0012BF44     0000           add     byte ptr ds:[eax], al
0012BF46     14 00          adc     al, 0
0012BF48     40             inc     eax
0012BF49     BD 1200D8D9    mov     ebp, D9D80012
0012BF4E     DADB           fcmovu  st, st(3)
0012BF50     78 01          js      short 0012BF53
0012BF52     14 00          adc     al, 0
0012BF54     68 89140052    push    52001489
0012BF59     A5             movs    dword ptr es:[edi], dword ptr ds:[esi]
0012BF5A     F1             int1                                                     ; Undocumented instruction or encoding
0012BF5B     77 55          ja      short 0012BFB2
0012BF5D     0001           add     byte ptr ds:[ecx], al
0012BF5F     0174BF 12      add     dword ptr ds:[edi*4+edi+12], esi
0012BF63     0011           add     byte ptr ds:[ecx], dl
0012BF65     0000           add     byte ptr ds:[eax], al
0012BF67     0010           add     byte ptr ds:[eax], dl
0012BF69     861400         xchg    byte ptr ds:[eax+eax], dl
0012BF6C     0000           add     byte ptr ds:[eax], al
0012BF6E     0000           add     byte ptr ds:[eax], al
0012BF70     2040 F5        and     byte ptr ds:[eax-0B], al
0012BF73     77 0D          ja      short 0012BF82
0012BF75     0000           add     byte ptr ds:[eax], al
0012BF77     000B           add     byte ptr ds:[ebx], cl
0012BF79     0000           add     byte ptr ds:[eax], al
0012BF7B     0002           add     byte ptr ds:[edx], al
0012BF7D     0000           add     byte ptr ds:[eax], al
0012BF7F     0002           add     byte ptr ds:[edx], al
0012BF81     0000           add     byte ptr ds:[eax], al
0012BF83     0000           add     byte ptr ds:[eax], al
0012BF85     0000           add     byte ptr ds:[eax], al
0012BF87     0005 00000015  add     byte ptr ds:[15000000], al
0012BF8D     0000           add     byte ptr ds:[eax], al
0012BF8F     0090 01000000  add     byte ptr ds:[eax+1], dl
0012BF95     0000           add     byte ptr ds:[eax], al
0012BF97     0060 00        add     byte ptr ds:[eax], ah
0012BF9A     0000           add     byte ptr ds:[eax], al
0012BF9C     60             pushad
0012BF9D     0000           add     byte ptr ds:[eax], al
0012BF9F     0020           add     byte ptr ds:[eax], ah
0012BFA1     00FC           add     ah, bh
0012BFA3     FF1F           call    far fword ptr ds:[edi]                           ; Far jump or call
0012BFA5     0020           add     byte ptr ds:[eax], ah
0012BFA7     0000           add     byte ptr ds:[eax], al
0012BFA9     0000           add     byte ptr ds:[eax], al
0012BFAB     27             daa
0012BFAC     0000           add     byte ptr ds:[eax], al
0012BFAE     0000           add     byte ptr ds:[eax], al
0012BFB0     00F0           add     al, dh
0012BFB2     FD             std
0012BFB3     7F 1E          jg      short 0012BFD3
0012BFB5     FF1F           call    far fword ptr ds:[edi]                           ; Far jump or call
0012BFB7     20DC           and     ah, bl
0012BFB9     BF 1200317E    mov     edi, 7E310012
0012BFBE     F1             int1                                                     ; Undocumented instruction or encoding
0012BFBF     77 55          ja      short 0012C016
0012BFC1     0001           add     byte ptr ds:[ecx], al
0012BFC3     0119           add     dword ptr ds:[ecx], ebx
0012BFC5     0000           add     byte ptr ds:[eax], al
0012BFC7     0048 7E        add     byte ptr ds:[eax+7E], cl
0012BFCA     F1             int1                                                     ; Undocumented instruction or encoding
0012BFCB     77 58          ja      short 0012C025
0012BFCD     891400         mov     dword ptr ds:[eax+eax], edx
0012BFD0     70 5B          jo      short 0012C02D
0012BFD2     F1             int1                                                     ; Undocumented instruction or encoding
0012BFD3     77 00          ja      short 0012BFD5
0012BFD5     0000           add     byte ptr ds:[eax], al
0012BFD7     0000           add     byte ptr ds:[eax], al
0012BFD9     0000           add     byte ptr ds:[eax], al
0012BFDB     0030           add     byte ptr ds:[eax], dh
0012BFDD     C012 00        rcl     byte ptr ds:[edx], 0                             ; Shift out of range
0012BFE0     7E 12          jle     short 0012BFF4
0012BFE2     0A5D 55        or      bl, byte ptr ss:[ebp+55]
0012BFE5     0001           add     byte ptr ds:[ecx], al
0012BFE7     01D4           add     esp, edx
0012BFE9     0000           add     byte ptr ds:[eax], al
0012BFEB     00DF           add     bh, bl
0012BFED     05 0A2A2881    add     eax, 81282A0A
0012BFF2     14 00          adc     al, 0
0012BFF4     2807           sub     byte ptr ds:[edi], al
0012BFF6     0000           add     byte ptr ds:[eax], al
0012BFF8     0B00           or      eax, dword ptr ds:[eax]
0012BFFA     0000           add     byte ptr ds:[eax], al
0012BFFC     0200           add     al, byte ptr ds:[eax]
0012BFFE     0000           add     byte ptr ds:[eax], al
0012C000     0200           add     al, byte ptr ds:[eax]
0012C002     0000           add     byte ptr ds:[eax], al
0012C004     78 01          js      short 0012C007
0012C006     14 00          adc     al, 0
0012C008     78 01          js      short 0012C00B
0012C00A     14 00          adc     al, 0
0012C00C     0000           add     byte ptr ds:[eax], al
0012C00E     0000           add     byte ptr ds:[eax], al
0012C010     D088 1400FD59  ror     byte ptr ds:[eax+59FD0014], 1
0012C016     F1             int1                                                     ; Undocumented instruction or encoding
0012C017     77 55          ja      short 0012C06E
0012C019     0001           add     byte ptr ds:[ecx], al
0012C01B     0128           add     dword ptr ds:[eax], ebp
0012C01D     811400 130000  adc     dword ptr ds:[eax+eax], 13
0012C024     BA 84417EBE    mov     edx, BE7E4184
0012C029     8641 7E        xchg    byte ptr ds:[ecx+7E], al
0012C02C     98             cwde
0012C02D     0000           add     byte ptr ds:[eax], al
0012C02F     0039           add     byte ptr ds:[ecx], bh
0012C031     0000           add     byte ptr ds:[eax], al
0012C033     0054C0 12      add     byte ptr ds:[eax*8+eax+12], dl
0012C037     00C8           add     al, cl
0012C039     881400         mov     byte ptr ds:[eax+eax], dl
0012C03C     A4             movs    byte ptr es:[edi], byte ptr ds:[esi]
0012C03D     0202           add     al, byte ptr ds:[edx]
0012C03F     00C8           add     al, cl
0012C041     881400         mov     byte ptr ds:[eax+eax], dl
0012C044     D088 14002881  ror     byte ptr ds:[eax+81280014], 1
0012C04A     14 00          adc     al, 0
0012C04C     1300           adc     eax, dword ptr ds:[eax]
0012C04E     0000           add     byte ptr ds:[eax], al
0012C050     0000           add     byte ptr ds:[eax], al
0012C052     0000           add     byte ptr ds:[eax], al
0012C054     0000           add     byte ptr ds:[eax], al
0012C056     0000           add     byte ptr ds:[eax], al
0012C058     80C0 12        add     al, 12
0012C05B     007E 4F        add     byte ptr ds:[esi+4F], bh
0012C05E     0A5D 28        or      bl, byte ptr ss:[ebp+28]
0012C061     811400 000000  adc     dword ptr ds:[eax+eax], 0
0012C068     0000           add     byte ptr ds:[eax], al
0012C06A     0000           add     byte ptr ds:[eax], al
0012C06C     68 01140000    push    1401
0012C071     0003           add     byte ptr ds:[ebx], al
0012C073     0078 01        add     byte ptr ds:[eax+1], bh
0012C076     14 00          adc     al, 0
0012C078     98             cwde
0012C079     0000           add     byte ptr ds:[eax], al
0012C07B     0000           add     byte ptr ds:[eax], al
0012C07D     001400         add     byte ptr ds:[eax+eax], dl
0012C080   ^ 7C BE          jl      short 0012C040
0012C082     1200           adc     al, byte ptr ds:[eax]
0012C084     DC4E 0A        fmul    qword ptr ds:[esi+0A]
0012C087     5D             pop     ebp
0012C088     0C C1          or      al, C1
0012C08A     1200           adc     al, byte ptr ds:[eax]
0012C08C     20E9           and     cl, ch
0012C08E     90             nop
0012C08F     7C 00          jl      short 0012C091
0012C091     A0 917CFFFF    mov     al, byte ptr ds:[FFFF7C91]
0012C096     FF             db FF                                                    ; Unknown command
0012C097     FF             db FF                                                    ; Unknown command
0012C098     FA             cli
0012C099     9F             lahf
0012C09A     91             xchg    eax, ecx
0012C09B     7C 1C          jl      short 0012C0B9
0012C09D     C112 00        rcl     dword ptr ds:[edx], 0                            ; Shift out of range
0012C0A0     1C C1          sbb     al, 0C1
0012C0A2     1200           adc     al, byte ptr ds:[eax]
0012C0A4     BA FB967C74    mov     edx, 747C96FB
0012C0A9     FD             std
0012C0AA     96             xchg    eax, esi
0012C0AB     7C 00          jl      short 0012C0AD
0012C0AD     001400         add     byte ptr ds:[eax+eax], dl
0012C0B0     0000           add     byte ptr ds:[eax], al
0012C0B2     0000           add     byte ptr ds:[eax], al
0012C0B4     0000           add     byte ptr ds:[eax], al
0012C0B6     14 00          adc     al, 0
0012C0B8     A4             movs    byte ptr es:[edi], byte ptr ds:[esi]
0012C0B9     0202           add     al, byte ptr ds:[edx]
0012C0BB     0081 00000000  add     byte ptr ds:[ecx], al
0012C0C1     0000           add     byte ptr ds:[eax], al
0012C0C3     00EC           add     ah, ch
0012C0C5     C2 1200        retn    12
0012C0C8     0000           add     byte ptr ds:[eax], al
0012C0CA     0000           add     byte ptr ds:[eax], al
0012C0CC     14 C1          adc     al, 0C1
0012C0CE     1200           adc     al, byte ptr ds:[eax]
0012C0D0   ^ 77 8D          ja      short 0012C05F
0012C0D2     42             inc     edx
0012C0D3   ^ 7E A4          jle     short 0012C079
0012C0D5     0202           add     al, byte ptr ds:[edx]
0012C0D7     0081 00000000  add     byte ptr ds:[ecx], al
0012C0DD     0000           add     byte ptr ds:[eax], al
0012C0DF     0082 71095D58  add     byte ptr ds:[edx+585D0971], al
0012C0E5     891400         mov     dword ptr ds:[eax+eax], edx
0012C0E8     C8 8814 00     enter   1488, 0
0012C0EC     98             cwde
0012C0ED     0000           add     byte ptr ds:[eax], al
0012C0EF     0000           add     byte ptr ds:[eax], al
0012C0F1     001400         add     byte ptr ds:[eax+eax], dl
0012C0F4     0000           add     byte ptr ds:[eax], al
0012C0F6     0000           add     byte ptr ds:[eax], al
0012C0F8     0000           add     byte ptr ds:[eax], al
0012C0FA     0000           add     byte ptr ds:[eax], al
0012C0FC     D088 14002CC1  ror     byte ptr ds:[eax+C12C0014], 1
0012C102     1200           adc     al, byte ptr ds:[eax]
0012C104     AC             lods    byte ptr ds:[esi]
0012C105     C012 00        rcl     byte ptr ds:[edx], 0                             ; Shift out of range
0012C108     A4             movs    byte ptr es:[edi], byte ptr ds:[esi]
0012C109     0202           add     al, byte ptr ds:[edx]
0012C10B     003CC3         add     byte ptr ds:[eax*8+ebx], bh
0012C10E     1200           adc     al, byte ptr ds:[eax]
0012C110     20E9           and     cl, ch
0012C112     90             nop
0012C113   ^ 7C 98          jl      short 0012C0AD
0012C115     FD             std
0012C116     96             xchg    eax, esi
0012C117     7C FF          jl      short 0012C118
0012C119     FF             db FF                                                    ; Unknown command
0012C11A     FF             db FF                                                    ; Unknown command
0012C11B     FF74FD 96      push    dword ptr ss:[edi*8+ebp-6A]
0012C11F     7C 44          jl      short 0012C165
0012C121     B2 94          mov     dl, 94
0012C123     7C 00          jl      short 0012C125
0012C125     001400         add     byte ptr ds:[eax+eax], dl
0012C128     61             popad
0012C129     0100           add     dword ptr ds:[eax], eax
0012C12B     50             push    eax
0012C12C     FA             cli
0012C12D     9F             lahf
0012C12E     91             xchg    eax, ecx
0012C12F     7C 00          jl      short 0012C131
0012C131     0000           add     byte ptr ds:[eax], al
0012C133     00B8 81140000  add     byte ptr ds:[eax+1481], bh
0012C139     001400         add     byte ptr ds:[eax+eax], dl
0012C13C     5A             pop     edx
0012C13D     8841 7E        mov     byte ptr ds:[ecx+7E], al
0012C140     54             push    esp
0012C141     C112 00        rcl     dword ptr ds:[edx], 0                            ; Shift out of range
0012C144     2A88 417E0000  sub     cl, byte ptr ds:[eax+7E41]
0012C14A     0000           add     byte ptr ds:[eax], al
0012C14C     A4             movs    byte ptr es:[edi], byte ptr ds:[esi]
0012C14D     0202           add     al, byte ptr ds:[edx]
0012C14F     009B CCDD7314  add     byte ptr ds:[ebx+1473DDCC], bl
0012C155     0000           add     byte ptr ds:[eax], al
0012C157     0001           add     byte ptr ds:[ecx], al
0012C159     0000           add     byte ptr ds:[eax], al
0012C15B     0084C2 120082  add     byte ptr ds:[eax*8+edx+71820012], al
0012C162     095D 9C        or      dword ptr ss:[ebp-64], ebx
0012C165     C112 00        rcl     dword ptr ds:[edx], 0                            ; Shift out of range
0012C168     0200           add     al, byte ptr ds:[eax]
0012C16A     0000           add     byte ptr ds:[eax], al
0012C16C     FE             db FE                                                    ; Unknown command
0012C16D     FF             db FF                                                    ; Unknown command
0012C16E     FF             db FF                                                    ; Unknown command
0012C16F     FF28           jmp     far fword ptr ds:[eax]                           ; Far jump or call
0012C171     811400 A68841  adc     dword ptr ds:[eax+eax], 7E4188A6
0012C178     84C2           test    dl, al
0012C17A     1200           adc     al, byte ptr ds:[eax]
0012C17C     8271 09 5D     xor     byte ptr ds:[ecx+9], 5D
0012C180     A6             cmps    byte ptr ds:[esi], byte ptr es:[edi]
0012C181     8841 7E        mov     byte ptr ds:[ecx+7E], al
0012C184     AC             lods    byte ptr ds:[esi]
0012C185     C2 1200        retn    12
0012C188     8271 09 5D     xor     byte ptr ds:[ecx+9], 5D
0012C18C     C4C1           les     eax, ecx                                         ; Illegal use of register
0012C18E     1200           adc     al, byte ptr ds:[eax]
0012C190     D188 417E5047  ror     dword ptr ds:[eax+47507E41], 1
0012C196     6200           bound   eax, qword ptr ds:[eax]
0012C198     B4 C1          mov     ah, 0C1
0012C19A     1200           adc     al, byte ptr ds:[eax]
0012C19C     D9             db D9                                                    ; Unknown command
0012C19D     8D42 7E        lea     eax, [edx+7E]
0012C1A0     A4             movs    byte ptr es:[edi], byte ptr ds:[esi]
0012C1A1     0202           add     al, byte ptr ds:[edx]
0012C1A3     0018           add     byte ptr ds:[eax], bl
0012C1A5     0000           add     byte ptr ds:[eax], al
0012C1A7     0001           add     byte ptr ds:[ecx], al
0012C1A9     0000           add     byte ptr ds:[eax], al
0012C1AB     0000           add     byte ptr ds:[eax], al
0012C1AD     0000           add     byte ptr ds:[eax], al
0012C1AF     0000           add     byte ptr ds:[eax], al
0012C1B1     0000           add     byte ptr ds:[eax], al
0012C1B3     00FC           add     ah, bh
0012C1B5     C112 00        rcl     dword ptr ds:[edx], 0                            ; Shift out of range
0012C1B8   ^ 77 8D          ja      short 0012C147
0012C1BA     42             inc     edx
0012C1BB   ^ 7E A4          jle     short 0012C161
0012C1BD     0202           add     al, byte ptr ds:[edx]
0012C1BF     0018           add     byte ptr ds:[eax], bl
0012C1C1     0000           add     byte ptr ds:[eax], al
0012C1C3     0001           add     byte ptr ds:[ecx], al
0012C1C5     0000           add     byte ptr ds:[eax], al
0012C1C7     008B 8D427EFE  add     byte ptr ds:[ebx+FE7E428D], cl
0012C1CD     FF             db FF                                                    ; Unknown command
0012C1CE     FF             db FF                                                    ; Unknown command
0012C1CF     FF28           jmp     far fword ptr ds:[eax]                           ; Far jump or call
0012C1D1     811400 A68841  adc     dword ptr ds:[eax+eax], 7E4188A6
0012C1D8     0000           add     byte ptr ds:[eax], al
0012C1DA     0000           add     byte ptr ds:[eax], al
0012C1DC     0000           add     byte ptr ds:[eax], al
0012C1DE     0000           add     byte ptr ds:[eax], al
0012C1E0     0000           add     byte ptr ds:[eax], al
0012C1E2     0000           add     byte ptr ds:[eax], al
0012C1E4     CC             int3
0012C1E5     C112 00        rcl     dword ptr ds:[edx], 0                            ; Shift out of range
0012C1E8     A6             cmps    byte ptr ds:[esi], byte ptr es:[edi]
0012C1E9     8841 7E        mov     byte ptr ds:[ecx+7E], al
0012C1EC     08C3           or      bl, al
0012C1EE     1200           adc     al, byte ptr ds:[eax]
0012C1F0     8F0444         pop     dword ptr ss:[eax*2+esp]
0012C1F3   ^ 7E 90          jle     short 0012C185
0012C1F5     8D42 7E        lea     eax, [edx+7E]
0012C1F8     FF             db FF                                                    ; Unknown command
0012C1F9     FF             db FF                                                    ; Unknown command
0012C1FA     FF             db FF                                                    ; Unknown command
0012C1FB     FF8B 8D427EF6  dec     dword ptr ds:[ebx+F67E428D]
0012C201     73 09          jae     short 0012C20C
0012C203     5D             pop     ebp
0012C204     A4             movs    byte ptr es:[edi], byte ptr ds:[esi]
0012C205     0202           add     al, byte ptr ds:[edx]
0012C207     0018           add     byte ptr ds:[eax], bl
0012C209     0000           add     byte ptr ds:[eax], al
0012C20B     0001           add     byte ptr ds:[ecx], al
0012C20D     0000           add     byte ptr ds:[eax], al
0012C20F     0000           add     byte ptr ds:[eax], al
0012C211     0000           add     byte ptr ds:[eax], al
0012C213     00EC           add     ah, ch
0012C215     C2 1200        retn    12
0012C218     8271 09 5D     xor     byte ptr ds:[ecx+9], 5D
0012C21C     0000           add     byte ptr ds:[eax], al
0012C21E     0000           add     byte ptr ds:[eax], al
0012C220     34 87          xor     al, 87
0012C222     41             inc     ecx
0012C223   ^ 7E 82          jle     short 0012C1A7
0012C225     71 09          jno     short 0012C230
0012C227     5D             pop     ebp
0012C228     07             pop     es                                               ; Modification of segment register
0012C229     04 00          add     al, 0
0012C22B     0000           add     byte ptr ds:[eax], al
0012C22D     0000           add     byte ptr ds:[eax], al
0012C22F     0040 C3        add     byte ptr ds:[eax-3D], al
0012C232     1200           adc     al, byte ptr ds:[eax]
0012C234     50             push    eax
0012C235     C2 1200        retn    12
0012C238     D9             db D9                                                    ; Unknown command
0012C239     8D42 7E        lea     eax, [edx+7E]
0012C23C     0000           add     byte ptr ds:[eax], al
0012C23E     14 00          adc     al, 0
0012C240     21B7 947C6CC4  and     dword ptr ds:[edi+C46C7C94], esi
0012C246     1200           adc     al, byte ptr ds:[eax]
0012C248     68 9F917CFA    push    FA7C919F
0012C24D     9F             lahf
0012C24E     91             xchg    eax, ecx
0012C24F     7C 1A          jl      short 0012C26B
0012C251     0200           add     al, byte ptr ds:[eax]
0012C253     0000           add     byte ptr ds:[eax], al
0012C255     001400         add     byte ptr ds:[eax+eax], dl
0012C258     0100           add     dword ptr ds:[eax], eax
0012C25A     0000           add     byte ptr ds:[eax], al
0012C25C     0000           add     byte ptr ds:[eax], al
0012C25E     14 00          adc     al, 0
0012C260     B8 81140000    mov     eax, 1481
0012C265     0000           add     byte ptr ds:[eax], al
0012C267     0054C3 12      add     byte ptr ds:[eax*8+ebx+12], dl
0012C26B     0000           add     byte ptr ds:[eax], al
0012C26D     0000           add     byte ptr ds:[eax], al
0012C26F     0040 06        add     byte ptr ds:[eax+6], al
0012C272     0000           add     byte ptr ds:[eax], al
0012C274     51             push    ecx
0012C275     A3 917CE88B    mov     dword ptr ds:[8BE87C91], eax
0012C27A     14 00          adc     al, 0
0012C27C     CB             retf                                                     ; Far jump or call
0012C27D     A3 917C1E00    mov     dword ptr ds:[1E7C91], eax
0012C282     0000           add     byte ptr ds:[eax], al
0012C284     0000           add     byte ptr ds:[eax], al
0012C286     14 00          adc     al, 0
0012C288     78 01          js      short 0012C28B
0012C28A     14 00          adc     al, 0
0012C28C     0000           add     byte ptr ds:[eax], al
0012C28E     0000           add     byte ptr ds:[eax], al
0012C290     1800           sbb     byte ptr ds:[eax], al
0012C292     0000           add     byte ptr ds:[eax], al
0012C294     0100           add     dword ptr ds:[eax], eax
0012C296     0000           add     byte ptr ds:[eax], al
0012C298     8000 00        add     byte ptr ds:[eax], 0
0012C29B     0082 71095DC0  add     byte ptr ds:[edx+C05D0971], al
0012C2A1     811400 000000  adc     dword ptr ds:[eax+eax], 0
0012C2A8     EC             in      al, dx                                           ; I/O command
0012C2A9     C2 1200        retn    12
0012C2AC     40             inc     eax
0012C2AD     06             push    es
0012C2AE     14 00          adc     al, 0
0012C2B0     18C3           sbb     bl, al
0012C2B2     1200           adc     al, byte ptr ds:[eax]
0012C2B4     16             push    ss
0012C2B5     8841 7E        mov     byte ptr ds:[ecx+7E], al
0012C2B8     00F0           add     al, dh
0012C2BA     FD             std
0012C2BB   ^ 7F CA          jg      short 0012C287
0012C2BD     0000           add     byte ptr ds:[eax], al
0012C2BF     00EC           add     ah, ch
0012C2C1     C412           les     edx, fword ptr ds:[edx]                          ; Modification of segment register
0012C2C3     00EC           add     ah, ch
0012C2C5     C412           les     edx, fword ptr ds:[edx]                          ; Modification of segment register
0012C2C7     0068 9F        add     byte ptr ds:[eax-61], ch
0012C2CA     91             xchg    eax, ecx
0012C2CB   ^ 7C FA          jl      short 0012C2C7
0012C2CD     9F             lahf
0012C2CE     91             xchg    eax, ecx
0012C2CF     7C 0A          jl      short 0012C2DB
0012C2D1     0000           add     byte ptr ds:[eax], al
0012C2D3     0000           add     byte ptr ds:[eax], al
0012C2D5     001400         add     byte ptr ds:[eax+eax], dl
0012C2D8     0100           add     dword ptr ds:[eax], eax
0012C2DA     0000           add     byte ptr ds:[eax], al
0012C2DC     B0 01          mov     al, 1
0012C2DE     14 00          adc     al, 0
0012C2E0     0000           add     byte ptr ds:[eax], al
0012C2E2     0000           add     byte ptr ds:[eax], al
0012C2E4     0000           add     byte ptr ds:[eax], al
0012C2E6     0000           add     byte ptr ds:[eax], al
0012C2E8     3800           cmp     byte ptr ds:[eax], al
0012C2EA     0000           add     byte ptr ds:[eax], al
0012C2EC     0000           add     byte ptr ds:[eax], al
0012C2EE     0000           add     byte ptr ds:[eax], al
0012C2F0     68 06000021    push    21000006
0012C2F5     B7 94          mov     bh, 94
0012C2F7   ^ 7C B0          jl      short 0012C2A9
0012C2F9     891400         mov     dword ptr ds:[eax+eax], edx
0012C2FC     68 9F917C1E    push    1E7C919F
0012C301     0000           add     byte ptr ds:[eax], al
0012C303     000A           add     byte ptr ds:[edx], cl
0012C305     0000           add     byte ptr ds:[eax], al
0012C307     0078 01        add     byte ptr ds:[eax+1], bh
0012C30A     14 00          adc     al, 0
0012C30C     0100           add     dword ptr ds:[eax], eax
0012C30E     0000           add     byte ptr ds:[eax], al
0012C310     3088 417EFFFF  xor     byte ptr ds:[eax+FFFF7E41], cl
0012C316     FF00           inc     dword ptr ds:[eax]
0012C318     0000           add     byte ptr ds:[eax], al
0012C31A     0000           add     byte ptr ds:[eax], al
0012C31C     1800           sbb     byte ptr ds:[eax], al
0012C31E     0000           add     byte ptr ds:[eax], al
0012C320     0000           add     byte ptr ds:[eax], al
0012C322     0000           add     byte ptr ds:[eax], al
0012C324     78 01          js      short 0012C327
0012C326     14 00          adc     al, 0
0012C328     F0:8B1400      lock mov edx, dword ptr ds:[eax+eax]                     ; LOCK prefix is not allowed
0012C32C     40             inc     eax
0012C32D     06             push    es
0012C32E     14 00          adc     al, 0
0012C330     0000           add     byte ptr ds:[eax], al
0012C332     0000           add     byte ptr ds:[eax], al
0012C334     1E             push    ds
0012C335     0000           add     byte ptr ds:[eax], al
0012C337     0000           add     byte ptr ds:[eax], al
0012C339     001400         add     byte ptr ds:[eax+eax], dl
0012C33C     78 01          js      short 0012C33F
0012C33E     14 00          adc     al, 0
0012C340     54             push    esp
0012C341     C3             retn
0012C342     1200           adc     al, byte ptr ds:[eax]
0012C344     B8 C3120020    mov     eax, 200012C3
0012C349     E9 907C0000    jmp     00133FDE
0012C34E     0000           add     byte ptr ds:[eax], al
0012C350     0000           add     byte ptr ds:[eax], al
0012C352     14 00          adc     al, 0
0012C354     0000           add     byte ptr ds:[eax], al
0012C356     0000           add     byte ptr ds:[eax], al
0012C358     C8 C312 00     enter   12C3, 0
0012C35C     65:05 977C400  add     eax, 6407C97                                     ; Superfluous segment override prefix
0012C362     14 00          adc     al, 0
0012C364     0000           add     byte ptr ds:[eax], al
0012C366     0000           add     byte ptr ds:[eax], al
0012C368     0000           add     byte ptr ds:[eax], al
0012C36A     14 00          adc     al, 0
0012C36C     C081 14006901  rol     byte ptr ds:[ecx+1690014], 0                     ; Shift out of range
0012C373     40             inc     eax
0012C374     1C 00          sbb     al, 0
0012C376     0000           add     byte ptr ds:[eax], al
0012C378     1800           sbb     byte ptr ds:[eax], al
0012C37A     0000           add     byte ptr ds:[eax], al
0012C37C     385F 14        cmp     byte ptr ds:[edi+14], bl
0012C37F     0080 000000E0  add     byte ptr ds:[eax+E0000000], al
0012C385     811400 780114  adc     dword ptr ds:[eax+eax], 140178
0012C38C     40             inc     eax
0012C38D     21DD           and     ebp, ebx
0012C38F     73 18          jae     short 0012C3A9
0012C391     0000           add     byte ptr ds:[eax], al
0012C393     0000           add     byte ptr ds:[eax], al
0012C395     0000           add     byte ptr ds:[eax], al
0012C397     0036           add     byte ptr ds:[esi], dh
0012C399     0000           add     byte ptr ds:[eax], al
0012C39B     00F0           add     al, dh
0012C39D     811400 E08B14  adc     dword ptr ds:[eax+eax], 148BE0
0012C3A4     78 01          js      short 0012C3A7
0012C3A6     14 00          adc     al, 0
0012C3A8     B8 89140000    mov     eax, 1489
0012C3AD     0000           add     byte ptr ds:[eax], al
0012C3AF     0138           add     dword ptr ds:[eax], edi
0012C3B1     5F             pop     edi
0012C3B2     14 00          adc     al, 0
0012C3B4     8000 00        add     byte ptr ds:[eax], 0
0012C3B7     00E0           add     al, ah
0012C3B9     811400 830000  adc     dword ptr ds:[eax+eax], 83
0012C3C0     E8 05977CFF    call    FF8F5ACA
0012C3C5     FF             db FF                                                    ; Unknown command
0012C3C6     FF             db FF                                                    ; Unknown command
0012C3C7     FF40 06        inc     dword ptr ds:[eax+6]
0012C3CA     0000           add     byte ptr ds:[eax], al
0012C3CC     FC             cld
0012C3CD     BA 947CF081    mov     edx, 81F07C94
0012C3D2     14 00          adc     al, 0
0012C3D4     6901 00507801  imul    eax, dword ptr ds:[ecx], 1785000
0012C3DA     14 00          adc     al, 0
0012C3DC     78 01          js      short 0012C3DF
0012C3DE     14 00          adc     al, 0
0012C3E0     0000           add     byte ptr ds:[eax], al
0012C3E2     0000           add     byte ptr ds:[eax], al
0012C3E4     B8 89140098    mov     eax, 98001489
0012C3E9     A9 427ED502    test    eax, 02D57E42
0012C3EE     FF             db FF                                                    ; Unknown command
0012C3EF     FFA402 020047  jmp     dword ptr ds:[eax+edx+470002]
0012C3F6     0000           add     byte ptr ds:[eax], al
0012C3F8     0000           add     byte ptr ds:[eax], al
0012C3FA     0000           add     byte ptr ds:[eax], al
0012C3FC     78 01          js      short 0012C3FF
0012C3FE     14 00          adc     al, 0
0012C400     3802           cmp     byte ptr ds:[edx], al
0012C402     0000           add     byte ptr ds:[eax], al
0012C404     24 C4          and     al, C4
0012C406     1200           adc     al, byte ptr ds:[eax]
0012C408     CB             retf                                                     ; Far jump or call
0012C409     20DD           and     ch, bl
0012C40B   ^ 73 B0          jae     short 0012C3BD
0012C40D     891400         mov     dword ptr ds:[eax+eax], edx
0012C410     0000           add     byte ptr ds:[eax], al
0012C412     0000           add     byte ptr ds:[eax], al
0012C414     B0 89          mov     al, 89
0012C416     14 00          adc     al, 0
0012C418     B8 891400F8    mov     eax, F8001489
0012C41D     8C1400         mov     word ptr ds:[eax+eax], ss
0012C420     A8 89          test    al, 89
0012C422     14 00          adc     al, 0
0012C424     07             pop     es                                               ; Modification of segment register
0012C425     1BDD           sbb     ebx, ebp
0012C427     73 00          jae     short 0012C429
0012C429     0000           add     byte ptr ds:[eax], al
0012C42B     0001           add     byte ptr ds:[ecx], al
0012C42D     0000           add     byte ptr ds:[eax], al
0012C42F     0010           add     byte ptr ds:[eax], dl
0012C431     0000           add     byte ptr ds:[eax], al
0012C433     0098 01140000  add     byte ptr ds:[eax+1401], bl
0012C439     0000           add     byte ptr ds:[eax], al
0012C43B     0000           add     byte ptr ds:[eax], al
0012C43D     0000           add     byte ptr ds:[eax], al
0012C43F     0068 01        add     byte ptr ds:[eax+1], ch
0012C442     14 00          adc     al, 0
0012C444     0000           add     byte ptr ds:[eax], al
0012C446     0300           add     eax, dword ptr ds:[eax]
0012C448     78 01          js      short 0012C44B
0012C44A     14 00          adc     al, 0
0012C44C     3802           cmp     byte ptr ds:[edx], al
0012C44E     0000           add     byte ptr ds:[eax], al
0012C450     0000           add     byte ptr ds:[eax], al
0012C452     14 00          adc     al, 0
0012C454     50             push    eax
0012C455     C2 1200        retn    12
0012C458     78 01          js      short 0012C45B
0012C45A     14 00          adc     al, 0
0012C45C     E0 C4          loopnz  short 0012C422
0012C45E     1200           adc     al, byte ptr ds:[eax]
0012C460     20E9           and     cl, ch
0012C462     90             nop
0012C463     7C 00          jl      short 0012C465
0012C465     A0 917CFFFF    mov     al, byte ptr ds:[FFFF7C91]
0012C46A     FF             db FF                                                    ; Unknown command
0012C46B     FF             db FF                                                    ; Unknown command
0012C46C     FA             cli
0012C46D     9F             lahf
0012C46E     91             xchg    eax, ecx
0012C46F   ^ 7C F0          jl      short 0012C461
0012C471     C412           les     edx, fword ptr ds:[edx]                          ; Modification of segment register
0012C473     0090 FD967C08  add     byte ptr ds:[eax+87C96FD], dl
0012C479     06             push    es
0012C47A     14 00          adc     al, 0
0012C47C   ^ 74 FD          je      short 0012C47B
0012C47E     96             xchg    eax, esi
0012C47F     7C 00          jl      short 0012C481
0012C481     001400         add     byte ptr ds:[eax+eax], dl
0012C484     0000           add     byte ptr ds:[eax], al
0012C486     0000           add     byte ptr ds:[eax], al
0012C488     0000           add     byte ptr ds:[eax], al
0012C48A     14 00          adc     al, 0
0012C48C     8889 14007801  mov     byte ptr ds:[ecx+1780014], cl
0012C492     14 00          adc     al, 0
0012C494     8889 14009089  mov     byte ptr ds:[ecx+89900014], cl
0012C49A     14 00          adc     al, 0
0012C49C     90             nop
0012C49D     011400         add     dword ptr ds:[eax+eax], edx
0012C4A0     05 00000020    add     eax, 20000000
0012C4A5     E9 907C0000    jmp     0013413A
0012C4AA     0000           add     byte ptr ds:[eax], al
0012C4AC     FF             db FF                                                    ; Unknown command
0012C4AD     FF             db FF                                                    ; Unknown command
0012C4AE     FF             db FF                                                    ; Unknown command
0012C4AF     FFCB           dec     ebx
0012C4B1     A3 917C2800    mov     dword ptr ds:[287C91], eax
0012C4B6     0000           add     byte ptr ds:[eax], al
0012C4B8     E0 8B          loopnz  short 0012C445
0012C4BA     14 00          adc     al, 0
0012C4BC     B0 89          mov     al, 89
0012C4BE     14 00          adc     al, 0
0012C4C0     3802           cmp     byte ptr ds:[edx], al
0012C4C2     0000           add     byte ptr ds:[eax], al
0012C4C4     0000           add     byte ptr ds:[eax], al
0012C4C6     14 00          adc     al, 0
0012C4C8     78 01          js      short 0012C4CB
0012C4CA     14 00          adc     al, 0
0012C4CC     0000           add     byte ptr ds:[eax], al
0012C4CE     0000           add     byte ptr ds:[eax], al
0012C4D0     B8 891400D0    mov     eax, D0001489
0012C4D5     C2 1201        retn    112
0012C4D8     80C4 12        add     ah, 12
0012C4DB     0060 C5        add     byte ptr ds:[eax-3B], ah
0012C4DE     1200           adc     al, byte ptr ds:[eax]
0012C4E0     10C7           adc     bh, al
0012C4E2     1200           adc     al, byte ptr ds:[eax]
0012C4E4     20E9           and     cl, ch
0012C4E6     90             nop
0012C4E7   ^ 7C 98          jl      short 0012C481
0012C4E9     FD             std
0012C4EA     96             xchg    eax, esi
0012C4EB     7C FF          jl      short 0012C4EC
0012C4ED     FF             db FF                                                    ; Unknown command
0012C4EE     FF             db FF                                                    ; Unknown command
0012C4EF     FF74FD 96      push    dword ptr ss:[edi*8+ebp-6A]
0012C4F3     7C 44          jl      short 0012C539
0012C4F5     B2 94          mov     dl, 94
0012C4F7     7C 00          jl      short 0012C4F9
0012C4F9     001400         add     byte ptr ds:[eax+eax], dl
0012C4FC     61             popad
0012C4FD     0100           add     dword ptr ds:[eax], eax
0012C4FF     50             push    eax
0012C500     FA             cli
0012C501     9F             lahf
0012C502     91             xchg    eax, ecx
0012C503     7C 00          jl      short 0012C505
0012C505     0000           add     byte ptr ds:[eax], al
0012C507     007CCC 12      add     byte ptr ss:[ecx*8+esp+12], bh
0012C50B     0000           add     byte ptr ds:[eax], al
0012C50D     001400         add     byte ptr ds:[eax+eax], dl
0012C510     94             xchg    eax, esp
0012C511     C512           lds     edx, fword ptr ds:[edx]                          ; Modification of segment register
0012C513     0020           add     byte ptr ds:[eax], ah
0012C515     E9 907C00A0    jmp     A01341AA
0012C51A     91             xchg    eax, ecx
0012C51B     7C FF          jl      short 0012C51C
0012C51D     FF             db FF                                                    ; Unknown command
0012C51E     FF             db FF                                                    ; Unknown command
0012C51F     FF             db FF                                                    ; Unknown command
0012C520     FA             cli
0012C521     9F             lahf
0012C522     91             xchg    eax, ecx
0012C523   ^ 7C A4          jl      short 0012C4C9
0012C525     C512           lds     edx, fword ptr ds:[edx]                          ; Modification of segment register
0012C527     0090 FD967C08  add     byte ptr ds:[eax+87C96FD], dl
0012C52D     06             push    es
0012C52E     14 00          adc     al, 0
0012C530   ^ 74 FD          je      short 0012C52F
0012C532     96             xchg    eax, esi
0012C533     7C 00          jl      short 0012C535
0012C535     001400         add     byte ptr ds:[eax+eax], dl
0012C538     A8 89          test    al, 89
0012C53A     14 00          adc     al, 0
0012C53C     8889 14002800  mov     byte ptr ds:[ecx+280014], cl
0012C542     0000           add     byte ptr ds:[eax], al
0012C544     0000           add     byte ptr ds:[eax], al
0012C546     14 00          adc     al, 0
0012C548     0000           add     byte ptr ds:[eax], al
0012C54A     14 00          adc     al, 0
0012C54C     0000           add     byte ptr ds:[eax], al
0012C54E     0000           add     byte ptr ds:[eax], al
0012C550     90             nop
0012C551     891400         mov     dword ptr ds:[eax+eax], edx
0012C554     0000           add     byte ptr ds:[eax], al
0012C556     14 00          adc     al, 0
0012C558     21B7 947C84C7  and     dword ptr ds:[edi+C7847C94], esi
0012C55E     1200           adc     al, byte ptr ds:[eax]
0012C560     68 9F917CFA    push    FA7C919F
0012C565     9F             lahf
0012C566     91             xchg    eax, ecx
0012C567     7C 4B          jl      short 0012C5B4
0012C569     0000           add     byte ptr ds:[eax], al
0012C56B     0000           add     byte ptr ds:[eax], al
0012C56D     001400         add     byte ptr ds:[eax+eax], dl
0012C570     0100           add     dword ptr ds:[eax], eax
0012C572     0000           add     byte ptr ds:[eax], al
0012C574     44             inc     esp
0012C575     B2 94          mov     dl, 94
0012C577     7C 00          jl      short 0012C579
0012C579     001400         add     byte ptr ds:[eax+eax], dl
0012C57C     0000           add     byte ptr ds:[eax], al
0012C57E     0000           add     byte ptr ds:[eax], al
0012C580     FA             cli
0012C581     9F             lahf
0012C582     91             xchg    eax, ecx
0012C583     7C 00          jl      short 0012C585
0012C585     0000           add     byte ptr ds:[eax], al
0012C587     0020           add     byte ptr ds:[eax], ah
0012C589     04 00          add     al, 0
0012C58B     0021           add     byte ptr ds:[ecx], ah
0012C58D     B7 94          mov     bh, 94
0012C58F     7C 38          jl      short 0012C5C9
0012C591     8C1400         mov     word ptr ds:[eax+eax], ss
0012C594     68 9F917C1D    push    1D7C919F
0012C599     0000           add     byte ptr ds:[eax], al
0012C59B     0008           add     byte ptr ds:[eax], cl
0012C59D     0200           add     al, byte ptr ds:[eax]
0012C59F     0078 01        add     byte ptr ds:[eax+1], bh
0012C5A2     14 00          adc     al, 0
0012C5A4     0100           add     dword ptr ds:[eax], eax
0012C5A6     0000           add     byte ptr ds:[eax], al
0012C5A8     44             inc     esp
0012C5A9     B2 94          mov     dl, 94
0012C5AB     7C 00          jl      short 0012C5AD
0012C5AD     001400         add     byte ptr ds:[eax+eax], dl
0012C5B0     0000           add     byte ptr ds:[eax], al
0012C5B2     0000           add     byte ptr ds:[eax], al
0012C5B4     FA             cli
0012C5B5     9F             lahf
0012C5B6     91             xchg    eax, ecx
0012C5B7     7C 00          jl      short 0012C5B9
0012C5B9     0000           add     byte ptr ds:[eax], al
0012C5BB     0040 06        add     byte ptr ds:[eax+6], al
0012C5BE     0000           add     byte ptr ds:[eax], al
0012C5C0     0000           add     byte ptr ds:[eax], al
0012C5C2     14 00          adc     al, 0
0012C5C4     40             inc     eax
0012C5C5     06             push    es
0012C5C6     14 00          adc     al, 0
0012C5C8     0000           add     byte ptr ds:[eax], al
0012C5CA     FF01           inc     dword ptr ds:[ecx]
0012C5CC     1800           sbb     byte ptr ds:[eax], al
0012C5CE     0000           add     byte ptr ds:[eax], al
0012C5D0     0000           add     byte ptr ds:[eax], al
0012C5D2     0000           add     byte ptr ds:[eax], al
0012C5D4     78 01          js      short 0012C5D7
0012C5D6     14 00          adc     al, 0
0012C5D8     20E9           and     cl, ch
0012C5DA     90             nop
0012C5DB   ^ 7C 98          jl      short 0012C575
0012C5DD     FD             std
0012C5DE     96             xchg    eax, esi
0012C5DF     7C 0F          jl      short 0012C5F0
0012C5E1     0000           add     byte ptr ds:[eax], al
0012C5E3     0074FD 96      add     byte ptr ss:[edi*8+ebp-6A], dh
0012C5E7     7C 44          jl      short 0012C62D
0012C5E9     B2 94          mov     dl, 94
0012C5EB     7C 00          jl      short 0012C5ED
0012C5ED     001400         add     byte ptr ds:[eax+eax], dl
0012C5F0     61             popad
0012C5F1     011450         add     dword ptr ds:[edx*2+eax], edx
0012C5F4     FA             cli
0012C5F5     9F             lahf
0012C5F6     91             xchg    eax, ecx
0012C5F7     7C 40          jl      short 0012C639
0012C5F9     06             push    es
0012C5FA     14 00          adc     al, 0
0012C5FC     0301           add     eax, dword ptr ds:[ecx]
0012C5FE     0000           add     byte ptr ds:[eax], al
0012C600     0000           add     byte ptr ds:[eax], al
0012C602     14 00          adc     al, 0
0012C604     E0 57          loopnz  short 0012C65D
0012C606     3300           xor     eax, dword ptr ds:[eax]
0012C608     FC             cld
0012C609     8E42 7E        mov     es, dword ptr ds:[edx+7E]                        ; Modification of segment register
0012C60C     0000           add     byte ptr ds:[eax], al
0012C60E     0000           add     byte ptr ds:[eax], al
0012C610     0000           add     byte ptr ds:[eax], al
0012C612     0000           add     byte ptr ds:[eax], al
0012C614     E4 00          in      al, 0                                            ; I/O command
0012C616     0000           add     byte ptr ds:[eax], al
0012C618     0000           add     byte ptr ds:[eax], al
0012C61A     0000           add     byte ptr ds:[eax], al
0012C61C     E4 CA          in      al, 0CA                                          ; I/O command
0012C61E     1200           adc     al, byte ptr ds:[eax]
0012C620     78 01          js      short 0012C623
0012C622     14 00          adc     al, 0
0012C624     2C C6          sub     al, 0C6
0012C626     1200           adc     al, byte ptr ds:[eax]
0012C628     1800           sbb     byte ptr ds:[eax], al
0012C62A     0000           add     byte ptr ds:[eax], al
0012C62C     68 08000078    push    78000008
0012C631     0133           add     dword ptr ds:[ebx], esi
0012C633     0078 01        add     byte ptr ds:[eax+1], bh
0012C636     3300           xor     eax, dword ptr ds:[eax]
0012C638     0000           add     byte ptr ds:[eax], al
0012C63A     0000           add     byte ptr ds:[eax], al
0012C63C     40             inc     eax
0012C63D     05 1400408C    add     eax, 8C400014
0012C642     14 00          adc     al, 0
0012C644     0000           add     byte ptr ds:[eax], al
0012C646     0000           add     byte ptr ds:[eax], al
0012C648     90             nop
0012C649     57             push    edi
0012C64A     3300           xor     eax, dword ptr ds:[eax]
0012C64C     1300           adc     eax, dword ptr ds:[eax]
0012C64E     0000           add     byte ptr ds:[eax], al
0012C650     1800           sbb     byte ptr ds:[eax], al
0012C652     0000           add     byte ptr ds:[eax], al
0012C654     78 01          js      short 0012C657
0012C656     14 00          adc     al, 0
0012C658     98             cwde
0012C659     0000           add     byte ptr ds:[eax], al
0012C65B     0080 57330058  add     byte ptr ds:[eax+58003357], al
0012C661     891400         mov     dword ptr ds:[eax+eax], edx
0012C664     48             dec     eax
0012C665     58             pop     eax
0012C666     3300           xor     eax, dword ptr ds:[eax]
0012C668     B8 81140048    mov     eax, 48001481
0012C66D     58             pop     eax
0012C66E     3300           xor     eax, dword ptr ds:[eax]
0012C670     78 01          js      short 0012C673
0012C672     14 00          adc     al, 0
0012C674     D88B 14001300  fmul    dword ptr ds:[ebx+130014]
0012C67A     0000           add     byte ptr ds:[eax], al
0012C67C     90             nop
0012C67D     57             push    edi
0012C67E     3300           xor     eax, dword ptr ds:[eax]
0012C680     0000           add     byte ptr ds:[eax], al
0012C682     0000           add     byte ptr ds:[eax], al
0012C684     0C 00          or      al, 00
0012C686     0000           add     byte ptr ds:[eax], al
0012C688     68 CB120000    push    12CB
0012C68D     0000           add     byte ptr ds:[eax], al
0012C68F     0000           add     byte ptr ds:[eax], al
0012C691     0000           add     byte ptr ds:[eax], al
0012C693     0000           add     byte ptr ds:[eax], al
0012C695     0000           add     byte ptr ds:[eax], al
0012C697     0068 01        add     byte ptr ds:[eax+1], ch
0012C69A     3300           xor     eax, dword ptr ds:[eax]
0012C69C     0000           add     byte ptr ds:[eax], al
0012C69E     0300           add     eax, dword ptr ds:[eax]
0012C6A0     78 01          js      short 0012C6A3
0012C6A2     3300           xor     eax, dword ptr ds:[eax]
0012C6A4     0200           add     al, byte ptr ds:[eax]
0012C6A6     0000           add     byte ptr ds:[eax], al
0012C6A8     0000           add     byte ptr ds:[eax], al
0012C6AA     3300           xor     eax, dword ptr ds:[eax]
0012C6AC     A8 C4          test    al, C4
0012C6AE     1200           adc     al, byte ptr ds:[eax]
0012C6B0     7A 00          jpe     short 0012C6B2
0012C6B2     0000           add     byte ptr ds:[eax], al
0012C6B4     0000           add     byte ptr ds:[eax], al
0012C6B6     0000           add     byte ptr ds:[eax], al
0012C6B8     308C14 0000A0  xor     byte ptr ss:[edx+esp+91A00000], cl
0012C6BF     7C FF          jl      short 0012C6C0
0012C6C1     FF             db FF                                                    ; Unknown command
0012C6C2     FF             db FF                                                    ; Unknown command
0012C6C3     FF             db FF                                                    ; Unknown command
0012C6C4     FA             cli
0012C6C5     9F             lahf
0012C6C6     91             xchg    eax, ecx
0012C6C7     7C 48          jl      short 0012C711
0012C6C9     C7             db C7                                                    ; Unknown command
0012C6CA     1200           adc     al, byte ptr ds:[eax]
0012C6CC     0000           add     byte ptr ds:[eax], al
0012C6CE     0000           add     byte ptr ds:[eax], al
0012C6D0     0806           or      byte ptr ds:[esi], al
0012C6D2     3300           xor     eax, dword ptr ds:[eax]
0012C6D4     79 00          jns     short 0012C6D6
0012C6D6     0000           add     byte ptr ds:[eax], al
0012C6D8     0000           add     byte ptr ds:[eax], al
0012C6DA     3300           xor     eax, dword ptr ds:[eax]
0012C6DC     0000           add     byte ptr ds:[eax], al
0012C6DE     0000           add     byte ptr ds:[eax], al
0012C6E0     200400         and     byte ptr ds:[eax+eax], al
0012C6E3     0036           add     byte ptr ds:[esi], dh
0012C6E5     0000           add     byte ptr ds:[eax], al
0012C6E7     0000           add     byte ptr ds:[eax], al
0012C6E9     0000           add     byte ptr ds:[eax], al
0012C6EB     00C8           add     al, cl
0012C6ED     8B1400         mov     edx, dword ptr ds:[eax+eax]
0012C6F0     C081 14004005  rol     byte ptr ds:[ecx+5400014], 14                    ; Shift out of range
0012C6F7     0000           add     byte ptr ds:[eax], al
0012C6F9     0000           add     byte ptr ds:[eax], al
0012C6FB     00D8           add     al, bl
0012C6FD     8B1400         mov     edx, dword ptr ds:[eax+eax]
0012C700     0800           or      byte ptr ds:[eax], al
0012C702     0000           add     byte ptr ds:[eax], al
0012C704     0000           add     byte ptr ds:[eax], al
0012C706     14 00          adc     al, 0
0012C708     04 C5          add     al, 0C5
0012C70A     1200           adc     al, byte ptr ds:[eax]
0012C70C     0D 00000044    or      eax, 44000000
0012C711     C9             leave
0012C712     1200           adc     al, byte ptr ds:[eax]
0012C714     20E9           and     cl, ch
0012C716     90             nop
0012C717     7C 00          jl      short 0012C719
0012C719     A0 917CFFFF    mov     al, byte ptr ds:[FFFF7C91]
0012C71E     FF             db FF                                                    ; Unknown command
0012C71F     FF             db FF                                                    ; Unknown command
0012C720     FA             cli
0012C721     9F             lahf
0012C722     91             xchg    eax, ecx
0012C723     7C 0C          jl      short 0012C731
0012C725     9C             pushfd
0012C726     91             xchg    eax, ecx
0012C727     7C 00          jl      short 0012C729
0012C729     001400         add     byte ptr ds:[eax+eax], dl
0012C72C     60             pushad
0012C72D     0000           add     byte ptr ds:[eax], al
0012C72F     40             inc     eax
0012C730     DB01           fild    dword ptr ds:[ecx]
0012C732     91             xchg    eax, ecx
0012C733     7C 00          jl      short 0012C735
0012C735     0000           add     byte ptr ds:[eax], al
0012C737     007CCC 12      add     byte ptr ss:[ecx*8+esp+12], bh
0012C73B     0054CC 12      add     byte ptr ss:[ecx*8+esp+12], dl
0012C73F     0000           add     byte ptr ds:[eax], al
0012C741     0000           add     byte ptr ds:[eax], al
0012C743     0020           add     byte ptr ds:[eax], ah
0012C745     0000           add     byte ptr ds:[eax], al
0012C747     0000           add     byte ptr ds:[eax], al
0012C749     0000           add     byte ptr ds:[eax], al
0012C74B     0020           add     byte ptr ds:[eax], ah
0012C74D     0200           add     al, byte ptr ds:[eax]
0012C74F     0000           add     byte ptr ds:[eax], al
0012C751     0000           add     byte ptr ds:[eax], al
0012C753     0000           add     byte ptr ds:[eax], al
0012C755     0000           add     byte ptr ds:[eax], al
0012C757     0068 01        add     byte ptr ds:[eax+1], ch
0012C75A     14 00          adc     al, 0
0012C75C     0000           add     byte ptr ds:[eax], al
0012C75E     0300           add     eax, dword ptr ds:[eax]
0012C760     78 01          js      short 0012C763
0012C762     14 00          adc     al, 0
0012C764     68 00000000    push    0
0012C769     001400         add     byte ptr ds:[eax+eax], dl
0012C76C     68 C512009E    push    9E0012C5
0012C771     0097 7CF8C712  add     byte ptr ds:[edi+12C7F87C], dl
0012C777     0020           add     byte ptr ds:[eax], ah
0012C779     E9 907C00A0    jmp     A013440E
0012C77E     91             xchg    eax, ecx
0012C77F     7C FF          jl      short 0012C780
0012C781     FF             db FF                                                    ; Unknown command
0012C782     FF             db FF                                                    ; Unknown command
0012C783     FF             db FF                                                    ; Unknown command
0012C784     FA             cli
0012C785     9F             lahf
0012C786     91             xchg    eax, ecx
0012C787     7C 08          jl      short 0012C791
0012C789     C8 1200 90     enter   12, 90
0012C78D     FD             std
0012C78E     96             xchg    eax, esi
0012C78F     7C 08          jl      short 0012C799
0012C791     06             push    es
0012C792     14 00          adc     al, 0
0012C794   ^ 74 FD          je      short 0012C793
0012C796     96             xchg    eax, esi
0012C797     7C 00          jl      short 0012C799
0012C799     001400         add     byte ptr ds:[eax+eax], dl
0012C79C     0000           add     byte ptr ds:[eax], al
0012C79E     0000           add     byte ptr ds:[eax], al
0012C7A0     0000           add     byte ptr ds:[eax], al
0012C7A2     14 00          adc     al, 0
0012C7A4     A0 0114002C    mov     al, byte ptr ds:[2C001401]
0012C7A9     C8 1200 20     enter   12, 20
0012C7AD     E9 907C00A0    jmp     A0134442
0012C7B2     91             xchg    eax, ecx
0012C7B3     7C FF          jl      short 0012C7B4
0012C7B5     FF             db FF                                                    ; Unknown command
0012C7B6     FF             db FF                                                    ; Unknown command
0012C7B7     FF             db FF                                                    ; Unknown command
0012C7B8     FA             cli
0012C7B9     9F             lahf
0012C7BA     91             xchg    eax, ecx
0012C7BB     7C 3C          jl      short 0012C7F9
0012C7BD     C8 1200 90     enter   12, 90
0012C7C1     FD             std
0012C7C2     96             xchg    eax, esi
0012C7C3     7C 08          jl      short 0012C7CD
0012C7C5     06             push    es
0012C7C6     14 00          adc     al, 0
0012C7C8   ^ 74 FD          je      short 0012C7C7
0012C7CA     96             xchg    eax, esi
0012C7CB     7C 00          jl      short 0012C7CD
0012C7CD     001400         add     byte ptr ds:[eax+eax], dl
0012C7D0     308C14 00D08B  xor     byte ptr ss:[edx+esp+148BD000], cl
0012C7D7     0068 00        add     byte ptr ds:[eax], ch
0012C7DA     0000           add     byte ptr ds:[eax], al
0012C7DC     0000           add     byte ptr ds:[eax], al
0012C7DE     14 00          adc     al, 0
0012C7E0     60             pushad
0012C7E1     891400         mov     dword ptr ds:[eax+eax], edx
0012C7E4     0000           add     byte ptr ds:[eax], al
0012C7E6     0000           add     byte ptr ds:[eax], al
0012C7E8     D88B 140000C8  fmul    dword ptr ds:[ebx+C8000014]
0012C7EE     1201           adc     al, byte ptr ds:[ecx]
0012C7F0     98             cwde
0012C7F1     C7             db C7                                                    ; Unknown command
0012C7F2     1200           adc     al, byte ptr ds:[eax]
0012C7F4     20E9           and     cl, ch
0012C7F6     90             nop
0012C7F7     7C 28          jl      short 0012C821
0012C7F9     CA 1200        retf    12                                               ; Far jump or call
0012C7FC     20E9           and     cl, ch
0012C7FE     90             nop
0012C7FF   ^ 7C 98          jl      short 0012C799
0012C801     FD             std
0012C802     96             xchg    eax, esi
0012C803     7C FF          jl      short 0012C804
0012C805     FF             db FF                                                    ; Unknown command
0012C806     FF             db FF                                                    ; Unknown command
0012C807     FF74FD 96      push    dword ptr ss:[edi*8+ebp-6A]
0012C80B     7C 44          jl      short 0012C851
0012C80D     B2 94          mov     dl, 94
0012C80F     7C 00          jl      short 0012C811
0012C811     001400         add     byte ptr ds:[eax+eax], dl
0012C814     61             popad
0012C815     0100           add     dword ptr ds:[eax], eax
0012C817     50             push    eax
0012C818     FA             cli
0012C819     9F             lahf
0012C81A     91             xchg    eax, ecx
0012C81B     7C 00          jl      short 0012C81D
0012C81D     0000           add     byte ptr ds:[eax], al
0012C81F     00B8 CC120000  add     byte ptr ds:[eax+12CC], bh
0012C825     001400         add     byte ptr ds:[eax+eax], dl
0012C828     98             cwde
0012C829     C8 1200 5C     enter   12, 5C
0012C82D     CA 1200        retf    12                                               ; Far jump or call
0012C830     20E9           and     cl, ch
0012C832     90             nop
0012C833   ^ 7C 98          jl      short 0012C7CD
0012C835     FD             std
0012C836     96             xchg    eax, esi
0012C837     7C FF          jl      short 0012C838
0012C839     FF             db FF                                                    ; Unknown command
0012C83A     FF             db FF                                                    ; Unknown command
0012C83B     FF74FD 96      push    dword ptr ss:[edi*8+ebp-6A]
0012C83F     7C 44          jl      short 0012C885
0012C841     B2 94          mov     dl, 94
0012C843     7C 00          jl      short 0012C845
0012C845     001400         add     byte ptr ds:[eax+eax], dl
0012C848     61             popad
0012C849     0100           add     dword ptr ds:[eax], eax
0012C84B     50             push    eax
0012C84C     FA             cli
0012C84D     9F             lahf
0012C84E     91             xchg    eax, ecx
0012C84F     7C 00          jl      short 0012C851
0012C851     0000           add     byte ptr ds:[eax], al
0012C853     0068 50        add     byte ptr ds:[eax+50], ch
0012C856     3300           xor     eax, dword ptr ds:[eax]
0012C858     0000           add     byte ptr ds:[eax], al
0012C85A     14 00          adc     al, 0
0012C85C     35 04917C3E    xor     eax, 3E7C9104
0012C861     04 91          add     al, 91
0012C863   ^ 7C D8          jl      short 0012C83D
0012C865     CB             retf                                                     ; Far jump or call
0012C866     1200           adc     al, byte ptr ds:[eax]
0012C868     24 00          and     al, 00
0012C86A     0200           add     al, byte ptr ds:[eax]
0012C86C     A8 C9          test    al, C9
0012C86E     1200           adc     al, byte ptr ds:[eax]
0012C870     6E             outs    dx, byte ptr ds:[esi]                            ; I/O command
0012C871     0000           add     byte ptr ds:[eax], al
0012C873     00B9 42917C00  add     byte ptr ds:[ecx+7C9142], bh
0012C879     A0 FD7F0010    mov     al, byte ptr ds:[10007FFD]
0012C87E     90             nop
0012C87F     7C 64          jl      short 0012C8E5
0012C881     C8 1200 00     enter   12, 0
0012C885     0000           add     byte ptr ds:[eax], al
0012C887     0038           add     byte ptr ds:[eax], bh
0012C889     C9             leave
0012C88A     1200           adc     al, byte ptr ds:[eax]
0012C88C     20E9           and     cl, ch
0012C88E     90             nop
0012C88F     7C 60          jl      short 0012C8F1
0012C891     04 91          add     al, 91
0012C893     7C 20          jl      short 0012C8B5
0012C895     06             push    es
0012C896     98             cwde
0012C897   ^ 7C 92          jl      short 0012C82B
0012C899     3F             aas
0012C89A     91             xchg    eax, ecx
0012C89B   ^ 7C 85          jl      short 0012C822
0012C89D     3F             aas
0012C89E     91             xchg    eax, ecx
0012C89F     7C 08          jl      short 0012C8A9
0012C8A1     0200           add     al, byte ptr ds:[eax]
0012C8A3     007CCC 12      add     byte ptr ss:[ecx*8+esp+12], bh
0012C8A7     0054CC 12      add     byte ptr ss:[ecx*8+esp+12], dl
0012C8AB     0000           add     byte ptr ds:[eax], al
0012C8AD     001400         add     byte ptr ds:[eax+eax], dl
0012C8B0     94             xchg    eax, esp
0012C8B1     0000           add     byte ptr ds:[eax], al
0012C8B3     0060 B0        add     byte ptr ds:[eax-50], ah
0012C8B6     94             xchg    eax, esp
0012C8B7   ^ 7C F0          jl      short 0012C8A9
0012C8B9     58             pop     eax
0012C8BA     3300           xor     eax, dword ptr ds:[eax]
0012C8BC     1007           adc     byte ptr ds:[edi], al
0012C8BE     0000           add     byte ptr ds:[eax], al
0012C8C0     EE             out     dx, al                                           ; I/O command
0012C8C1     FE             db FE                                                    ; Unknown command
0012C8C2     EE             out     dx, al                                           ; I/O command
0012C8C3     FECE           dec     dh
0012C8C5     C9             leave
0012C8C6     1200           adc     al, byte ptr ds:[eax]
0012C8C8     0200           add     al, byte ptr ds:[eax]
0012C8CA     0000           add     byte ptr ds:[eax], al
0012C8CC     94             xchg    eax, esp
0012C8CD     0096 0000FCFD  add     byte ptr ds:[esi+FDFC0000], dl
0012C8D3     7F 00          jg      short 0012C8D5
0012C8D5     0000           add     byte ptr ds:[eax], al
0012C8D7     00BCC9 12004A  add     byte ptr ds:[ecx*8+ecx+4A0012], bh
0012C8DE     0000           add     byte ptr ds:[eax], al
0012C8E0     00FC           add     ah, bh
0012C8E2     FD             std
0012C8E3   ^ 7F B0          jg      short 0012C895
0012C8E5     891400         mov     dword ptr ds:[eax+eax], edx
0012C8E8     60             pushad
0012C8E9     B0 94          mov     al, 94
0012C8EB   ^ 7C F8          jl      short 0012C8E5
0012C8ED     8B1400         mov     edx, dword ptr ds:[eax+eax]
0012C8F0     080400         or      byte ptr ds:[eax+eax], al
0012C8F3     00EE           add     dh, ch
0012C8F5     FE             db FE                                                    ; Unknown command
0012C8F6     EE             out     dx, al                                           ; I/O command
0012C8F7     FE00           inc     byte ptr ds:[eax]
0012C8F9     001400         add     byte ptr ds:[eax+eax], dl
0012C8FC     B0 89          mov     al, 89
0012C8FE     14 00          adc     al, 0
0012C900     0000           add     byte ptr ds:[eax], al
0012C902     0000           add     byte ptr ds:[eax], al
0012C904     F0:C9          lock leave                                               ; LOCK prefix is not allowed
0012C906     1200           adc     al, byte ptr ds:[eax]
0012C908     0000           add     byte ptr ds:[eax], al
0012C90A     0000           add     byte ptr ds:[eax], al
0012C90C     F0:C9          lock leave                                               ; LOCK prefix is not allowed
0012C90E     1200           adc     al, byte ptr ds:[eax]
0012C910     51             push    ecx
0012C911     A3 917C0000    mov     dword ptr ds:[7C91], eax
0012C916     14 00          adc     al, 0
0012C918     CB             retf                                                     ; Far jump or call
0012C919     A3 917CB089    mov     dword ptr ds:[89B07C91], eax
0012C91E     14 00          adc     al, 0
0012C920     0000           add     byte ptr ds:[eax], al
0012C922     14 00          adc     al, 0
0012C924     B8 89140000    mov     eax, 1489
0012C929     0000           add     byte ptr ds:[eax], al
0012C92B     00D9           add     cl, bl
0012C92D     0800           or      byte ptr ds:[eax], al
0012C92F     00A0 C8120054  add     byte ptr ds:[eax+540012C8], ah
0012C935     CC             int3
0012C936     1200           adc     al, byte ptr ds:[eax]
0012C938     E8 CB1200B8    call    B812DC08
0012C93D     891400         mov     dword ptr ds:[eax+eax], edx
0012C940   ^ 7C CC          jl      short 0012C90E
0012C942     1200           adc     al, byte ptr ds:[eax]
0012C944     0800           or      byte ptr ds:[eax], al
0012C946     0000           add     byte ptr ds:[eax], al
0012C948     F8             clc
0012C949     CB             retf                                                     ; Far jump or call
0012C94A     1200           adc     al, byte ptr ds:[eax]
0012C94C     52             push    edx
0012C94D     41             inc     ecx
0012C94E     91             xchg    eax, ecx
0012C94F   ^ 7C C0          jl      short 0012C911
0012C951     891400         mov     dword ptr ds:[eax+eax], edx
0012C954     D0C9           ror     cl, 1
0012C956     1200           adc     al, byte ptr ds:[eax]
0012C958     60             pushad
0012C959     04 91          add     al, 91
0012C95B     7C 20          jl      short 0012C97D
0012C95D     06             push    es
0012C95E     98             cwde
0012C95F     7C 17          jl      short 0012C978
0012C961     42             inc     edx
0012C962     91             xchg    eax, ecx
0012C963   ^ 7C DF          jl      short 0012C944
0012C965     41             inc     ecx
0012C966     91             xchg    eax, ecx
0012C967     7C 00          jl      short 0012C969
0012C969     0000           add     byte ptr ds:[eax], al
0012C96B     0000           add     byte ptr ds:[eax], al
0012C96D     FC             cld
0012C96E     FD             std
0012C96F   ^ 7F C8          jg      short 0012C939
0012C971     CC             int3
0012C972     1200           adc     al, byte ptr ds:[eax]
0012C974     4E             dec     esi
0012C975     0000           add     byte ptr ds:[eax], al
0012C977     0078 01        add     byte ptr ds:[eax+1], bh
0012C97A     14 00          adc     al, 0
0012C97C     0200           add     al, byte ptr ds:[eax]
0012C97E     0000           add     byte ptr ds:[eax], al
0012C980     B0 89          mov     al, 89
0012C982     14 00          adc     al, 0
0012C984     3802           cmp     byte ptr ds:[edx], al
0012C986     0000           add     byte ptr ds:[eax], al
0012C988     78 01          js      short 0012C98B
0012C98A     14 00          adc     al, 0
0012C98C     AC             lods    byte ptr ds:[esi]
0012C98D     3F             aas
0012C98E     91             xchg    eax, ecx
0012C98F     7C 01          jl      short 0012C992
0012C991     0000           add     byte ptr ds:[eax], al
0012C993     0078 01        add     byte ptr ds:[eax+1], bh
0012C996     14 00          adc     al, 0
0012C998     1A02           sbb     al, byte ptr ds:[edx]
0012C99A     0000           add     byte ptr ds:[eax], al
0012C99C     48             dec     eax
0012C99D     58             pop     eax
0012C99E     3300           xor     eax, dword ptr ds:[eax]
0012C9A0     B8 89140094    mov     eax, 94001489
0012C9A5     0000           add     byte ptr ds:[eax], al
0012C9A7     0000           add     byte ptr ds:[eax], al
0012C9A9     0000           add     byte ptr ds:[eax], al
0012C9AB     0000           add     byte ptr ds:[eax], al
0012C9AD     0000           add     byte ptr ds:[eax], al
0012C9AF     0020           add     byte ptr ds:[eax], ah
0012C9B1     E9 90000000    jmp     0012CA46
0012C9B6     0000           add     byte ptr ds:[eax], al
0012C9B8     0000           add     byte ptr ds:[eax], al
0012C9BA     14 00          adc     al, 0
0012C9BC     CB             retf                                                     ; Far jump or call
0012C9BD     A3 917CF4C9    mov     dword ptr ds:[C9F47C91], eax
0012C9C2     1200           adc     al, byte ptr ds:[eax]
0012C9C4     D7             xlat    byte ptr ds:[ebx+al]
0012C9C5     F2:96          repne xchg eax, esi                                      ; Superfluous REPxx prefix
0012C9C7     7C 00          jl      short 0012C9C9
0012C9C9     001400         add     byte ptr ds:[eax+eax], dl
0012C9CC     0000           add     byte ptr ds:[eax], al
0012C9CE     0000           add     byte ptr ds:[eax], al
0012C9D0     B0 89          mov     al, 89
0012C9D2     14 00          adc     al, 0
0012C9D4     0000           add     byte ptr ds:[eax], al
0012C9D6     14 00          adc     al, 0
0012C9D8     B8 891400F0    mov     eax, F0001489
0012C9DD     C9             leave
0012C9DE     1200           adc     al, byte ptr ds:[eax]
0012C9E0     54             push    esp
0012C9E1     CA 1200        retf    12                                               ; Far jump or call
0012C9E4     20E9           and     cl, ch
0012C9E6     90             nop
0012C9E7     7C 00          jl      short 0012C9E9
0012C9E9     0000           add     byte ptr ds:[eax], al
0012C9EB     0000           add     byte ptr ds:[eax], al
0012C9ED     001400         add     byte ptr ds:[eax+eax], dl
0012C9F0     0000           add     byte ptr ds:[eax], al
0012C9F2     0000           add     byte ptr ds:[eax], al
0012C9F4     64:CA 1200     retf    12                                               ; Superfluous segment override prefix
0012C9F8     E0 05          loopnz  short 0012C9FF
0012C9FA     97             xchg    eax, edi
0012C9FB     7C 08          jl      short 0012CA05
0012C9FD     06             push    es
0012C9FE     14 00          adc     al, 0
0012CA00     C405 977C0000  les     eax, fword ptr ds:[7C97]                         ; Modification of segment register
0012CA06     14 00          adc     al, 0
0012CA08     B8 89140060    mov     eax, 60001489
0012CA0D     0000           add     byte ptr ds:[eax], al
0012CA0F     40             inc     eax
0012CA10     44             inc     esp
0012CA11     0065 00        add     byte ptr ss:[ebp], ah
0012CA14     73 00          jae     short 0012CA16
0012CA16     6B00 74        imul    eax, dword ptr ds:[eax], 74
0012CA19     006F 00        add     byte ptr ds:[edi], ch
0012CA1C     70 00          jo      short 0012CA1E
0012CA1E     5C             pop     esp
0012CA1F     004D 00        add     byte ptr ss:[ebp], cl
0012CA22     61             popad
0012CA23     006C00 77      add     byte ptr ds:[eax+eax+77], ch
0012CA27     0061 00        add     byte ptr ds:[ecx], ah
0012CA2A     72 00          jb      short 0012CA2C
0012CA2C     65:005C00 5A   add     byte ptr gs:[eax+eax+5A], bl
0012CA31     0065 00        add     byte ptr ss:[ebp], ah
0012CA34     3802           cmp     byte ptr ds:[edx], al
0012CA36     0000           add     byte ptr ds:[eax], al
0012CA38     B0 89          mov     al, 89
0012CA3A     14 00          adc     al, 0
0012CA3C     0000           add     byte ptr ds:[eax], al
0012CA3E     14 00          adc     al, 0
0012CA40     6F             outs    dx, dword ptr ds:[esi]                           ; I/O command
0012CA41     0070 00        add     byte ptr ds:[eax], dh
0012CA44     79 00          jns     short 0012CA46
0012CA46     2000           and     byte ptr ds:[eax], al
0012CA48     6F             outs    dx, dword ptr ds:[esi]                           ; I/O command
0012CA49     0001           add     byte ptr ds:[ecx], al
0012CA4B     0104CA         add     dword ptr ds:[ecx*8+edx], eax
0012CA4E     1200           adc     al, byte ptr ds:[eax]
0012CA50     65:006E 00     add     byte ptr gs:[esi], ch
0012CA54     3C CB          cmp     al, 0CB
0012CA56     1200           adc     al, byte ptr ds:[eax]
0012CA58     20E9           and     cl, ch
0012CA5A     90             nop
0012CA5B   ^ 7C E8          jl      short 0012CA45
0012CA5D     05 977CFFFF    add     eax, FFFF7C97
0012CA62     FF             db FF                                                    ; Unknown command
0012CA63     FFC4           inc     esp
0012CA65     05 977CFCBA    add     eax, BAFC7C97
0012CA6A     94             xchg    eax, esp
0012CA6B     7C 00          jl      short 0012CA6D
0012CA6D     001400         add     byte ptr ds:[eax+eax], dl
0012CA70     61             popad
0012CA71     0000           add     byte ptr ds:[eax], al
0012CA73     50             push    eax
0012CA74     CB             retf                                                     ; Far jump or call
0012CA75     A3 917C0000    mov     dword ptr ds:[7C91], eax
0012CA7A     14 00          adc     al, 0
0012CA7C     B8 89140060    mov     eax, 60001489
0012CA81     0000           add     byte ptr ds:[eax], al
0012CA83     40             inc     eax
0012CA84     0000           add     byte ptr ds:[eax], al
0012CA86     0000           add     byte ptr ds:[eax], al
0012CA88     0000           add     byte ptr ds:[eax], al
0012CA8A     0000           add     byte ptr ds:[eax], al
0012CA8C     0000           add     byte ptr ds:[eax], al
0012CA8E     0000           add     byte ptr ds:[eax], al
0012CA90     0000           add     byte ptr ds:[eax], al
0012CA92     0000           add     byte ptr ds:[eax], al
0012CA94     0000           add     byte ptr ds:[eax], al
0012CA96     0000           add     byte ptr ds:[eax], al
0012CA98     0000           add     byte ptr ds:[eax], al
0012CA9A     0000           add     byte ptr ds:[eax], al
0012CA9C     0000           add     byte ptr ds:[eax], al
0012CA9E     0000           add     byte ptr ds:[eax], al
0012CAA0     0000           add     byte ptr ds:[eax], al
0012CAA2     0000           add     byte ptr ds:[eax], al
0012CAA4     0000           add     byte ptr ds:[eax], al
0012CAA6     0000           add     byte ptr ds:[eax], al
0012CAA8     0000           add     byte ptr ds:[eax], al
0012CAAA     0000           add     byte ptr ds:[eax], al
0012CAAC     0000           add     byte ptr ds:[eax], al
0012CAAE     0000           add     byte ptr ds:[eax], al
0012CAB0     0000           add     byte ptr ds:[eax], al
0012CAB2     0000           add     byte ptr ds:[eax], al
0012CAB4     0000           add     byte ptr ds:[eax], al
0012CAB6     0000           add     byte ptr ds:[eax], al
0012CAB8     0000           add     byte ptr ds:[eax], al
0012CABA     0000           add     byte ptr ds:[eax], al
0012CABC     0000           add     byte ptr ds:[eax], al
0012CABE     0000           add     byte ptr ds:[eax], al
0012CAC0     0000           add     byte ptr ds:[eax], al
0012CAC2     0000           add     byte ptr ds:[eax], al
0012CAC4     0000           add     byte ptr ds:[eax], al
0012CAC6     0000           add     byte ptr ds:[eax], al
0012CAC8     0000           add     byte ptr ds:[eax], al
0012CACA     0000           add     byte ptr ds:[eax], al
0012CACC     0000           add     byte ptr ds:[eax], al
0012CACE     0000           add     byte ptr ds:[eax], al
0012CAD0     0000           add     byte ptr ds:[eax], al
0012CAD2     0000           add     byte ptr ds:[eax], al
0012CAD4     0000           add     byte ptr ds:[eax], al
0012CAD6     0000           add     byte ptr ds:[eax], al
0012CAD8     0000           add     byte ptr ds:[eax], al
0012CADA     0000           add     byte ptr ds:[eax], al
0012CADC     0000           add     byte ptr ds:[eax], al
0012CADE     0000           add     byte ptr ds:[eax], al
0012CAE0     0000           add     byte ptr ds:[eax], al
0012CAE2     0000           add     byte ptr ds:[eax], al
0012CAE4     0000           add     byte ptr ds:[eax], al
0012CAE6     0000           add     byte ptr ds:[eax], al
0012CAE8     0000           add     byte ptr ds:[eax], al
0012CAEA     0000           add     byte ptr ds:[eax], al
0012CAEC     0000           add     byte ptr ds:[eax], al
0012CAEE     0000           add     byte ptr ds:[eax], al
0012CAF0     0000           add     byte ptr ds:[eax], al
0012CAF2     0000           add     byte ptr ds:[eax], al
0012CAF4     0000           add     byte ptr ds:[eax], al
0012CAF6     0000           add     byte ptr ds:[eax], al
0012CAF8     0000           add     byte ptr ds:[eax], al
0012CAFA     0000           add     byte ptr ds:[eax], al
0012CAFC     0000           add     byte ptr ds:[eax], al
0012CAFE     0000           add     byte ptr ds:[eax], al
0012CB00     0000           add     byte ptr ds:[eax], al
0012CB02     0000           add     byte ptr ds:[eax], al
0012CB04     0000           add     byte ptr ds:[eax], al
0012CB06     0000           add     byte ptr ds:[eax], al
0012CB08     0000           add     byte ptr ds:[eax], al
0012CB0A     0000           add     byte ptr ds:[eax], al
0012CB0C     0000           add     byte ptr ds:[eax], al
0012CB0E     0000           add     byte ptr ds:[eax], al
0012CB10     0000           add     byte ptr ds:[eax], al
0012CB12     0000           add     byte ptr ds:[eax], al
0012CB14     0000           add     byte ptr ds:[eax], al
0012CB16     14 00          adc     al, 0
0012CB18     0000           add     byte ptr ds:[eax], al
0012CB1A     0000           add     byte ptr ds:[eax], al
0012CB1C     0000           add     byte ptr ds:[eax], al
0012CB1E     0000           add     byte ptr ds:[eax], al
0012CB20     0000           add     byte ptr ds:[eax], al
0012CB22     0000           add     byte ptr ds:[eax], al
0012CB24     0000           add     byte ptr ds:[eax], al
0012CB26     0000           add     byte ptr ds:[eax], al
0012CB28     0000           add     byte ptr ds:[eax], al
0012CB2A     0000           add     byte ptr ds:[eax], al
0012CB2C     0000           add     byte ptr ds:[eax], al
0012CB2E     0000           add     byte ptr ds:[eax], al
0012CB30     0000           add     byte ptr ds:[eax], al
0012CB32     0000           add     byte ptr ds:[eax], al
0012CB34   ^ 78 CA          js      short 0012CB00
0012CB36     1200           adc     al, byte ptr ds:[eax]
0012CB38     0000           add     byte ptr ds:[eax], al
0012CB3A     0000           add     byte ptr ds:[eax], al
0012CB3C     0C CC          or      al, CC
0012CB3E     1200           adc     al, byte ptr ds:[eax]
0012CB40     20E9           and     cl, ch
0012CB42     90             nop
0012CB43   ^ 7C D0          jl      short 0012CB15
0012CB45     A3 917CFFFF    mov     dword ptr ds:[FFFF7C91], eax
0012CB4A     FF             db FF                                                    ; Unknown command
0012CB4B     FFCB           dec     ebx
0012CB4D     A3 917CBAA1    mov     dword ptr ds:[A1BA7C91], eax
0012CB52     91             xchg    eax, ecx
0012CB53     7C 00          jl      short 0012CB55
0012CB55     001400         add     byte ptr ds:[eax+eax], dl
0012CB58     60             pushad
0012CB59     0000           add     byte ptr ds:[eax], al
0012CB5B     40             inc     eax
0012CB5C     5D             pop     ebp
0012CB5D     0091 7C000000  add     byte ptr ds:[ecx+7C], dl
0012CB63     002D FF907C00  add     byte ptr ds:[7C90FF], ch
0012CB69     0000           add     byte ptr ds:[eax], al
0012CB6B     0000           add     byte ptr ds:[eax], al
0012CB6D     0000           add     byte ptr ds:[eax], al
0012CB6F     0000           add     byte ptr ds:[eax], al
0012CB71     0000           add     byte ptr ds:[eax], al
0012CB73     0000           add     byte ptr ds:[eax], al
0012CB75     0000           add     byte ptr ds:[eax], al
0012CB77     0000           add     byte ptr ds:[eax], al
0012CB79     0000           add     byte ptr ds:[eax], al
0012CB7B     0000           add     byte ptr ds:[eax], al
0012CB7D     0000           add     byte ptr ds:[eax], al
0012CB7F     0000           add     byte ptr ds:[eax], al
0012CB81     0000           add     byte ptr ds:[eax], al
0012CB83     0000           add     byte ptr ds:[eax], al
0012CB85     0000           add     byte ptr ds:[eax], al
0012CB87     0000           add     byte ptr ds:[eax], al
0012CB89     0000           add     byte ptr ds:[eax], al
0012CB8B     0000           add     byte ptr ds:[eax], al
0012CB8D     0000           add     byte ptr ds:[eax], al
0012CB8F     0000           add     byte ptr ds:[eax], al
0012CB91     0000           add     byte ptr ds:[eax], al
0012CB93     0000           add     byte ptr ds:[eax], al
0012CB95     0000           add     byte ptr ds:[eax], al
0012CB97     0000           add     byte ptr ds:[eax], al
0012CB99     0000           add     byte ptr ds:[eax], al
0012CB9B     0000           add     byte ptr ds:[eax], al
0012CB9D     0000           add     byte ptr ds:[eax], al
0012CB9F     0000           add     byte ptr ds:[eax], al
0012CBA1     0000           add     byte ptr ds:[eax], al
0012CBA3     0000           add     byte ptr ds:[eax], al
0012CBA5     0000           add     byte ptr ds:[eax], al
0012CBA7     0000           add     byte ptr ds:[eax], al
0012CBA9     0000           add     byte ptr ds:[eax], al
0012CBAB     0000           add     byte ptr ds:[eax], al
0012CBAD     0000           add     byte ptr ds:[eax], al
0012CBAF     0000           add     byte ptr ds:[eax], al
0012CBB1     0000           add     byte ptr ds:[eax], al
0012CBB3     0000           add     byte ptr ds:[eax], al
0012CBB5     0000           add     byte ptr ds:[eax], al
0012CBB7     0000           add     byte ptr ds:[eax], al
0012CBB9     0000           add     byte ptr ds:[eax], al
0012CBBB     0000           add     byte ptr ds:[eax], al
0012CBBD     0000           add     byte ptr ds:[eax], al
0012CBBF     0000           add     byte ptr ds:[eax], al
0012CBC1     0000           add     byte ptr ds:[eax], al
0012CBC3     0000           add     byte ptr ds:[eax], al
0012CBC5     0000           add     byte ptr ds:[eax], al
0012CBC7     0000           add     byte ptr ds:[eax], al
0012CBC9     0000           add     byte ptr ds:[eax], al
0012CBCB     0000           add     byte ptr ds:[eax], al
0012CBCD     0000           add     byte ptr ds:[eax], al
0012CBCF     0000           add     byte ptr ds:[eax], al
0012CBD1     0000           add     byte ptr ds:[eax], al
0012CBD3     0000           add     byte ptr ds:[eax], al
0012CBD5     0000           add     byte ptr ds:[eax], al
0012CBD7     0059 2D        add     byte ptr ds:[ecx+2D], bl
0012CBDA     91             xchg    eax, ecx
0012CBDB   ^ 7C D9          jl      short 0012CBB6
0012CBDD     0800           or      byte ptr ds:[eax], al
0012CBDF     0068 C9        add     byte ptr ds:[eax-37], ch
0012CBE2     1200           adc     al, byte ptr ds:[eax]
0012CBE4     0000           add     byte ptr ds:[eax], al
0012CBE6     14 00          adc     al, 0
0012CBE8     64:F4          hlt                                                      ; Superfluous segment override prefix
0012CBEA     1200           adc     al, byte ptr ds:[eax]
0012CBEC     20E9           and     cl, ch
0012CBEE     90             nop
0012CBEF   ^ 7C E8          jl      short 0012CBD9
0012CBF1     41             inc     ecx
0012CBF2     91             xchg    eax, ecx
0012CBF3     7C FF          jl      short 0012CBF4
0012CBF5     FF             db FF                                                    ; Unknown command
0012CBF6     FF             db FF                                                    ; Unknown command
0012CBF7     FFDF           call    edi                                              ; Illegal use of register
0012CBF9     41             inc     ecx
0012CBFA     91             xchg    eax, ecx
0012CBFB   ^ 7C BA          jl      short 0012CBB7
0012CBFD     D001           rol     byte ptr ds:[ecx], 1
0012CBFF     008F 0E817C60  add     byte ptr ds:[edi+607C810E], cl
0012CC05     CB             retf                                                     ; Far jump or call
0012CC06     1200           adc     al, byte ptr ds:[eax]
0012CC08     8000 10        add     byte ptr ds:[eax], 10
0012CC0B     0064F4 12      add     byte ptr ss:[esi*8+esp+12], ah
0012CC0F     0020           add     byte ptr ds:[eax], ah
0012CC11     E9 907C6000    jmp     007348A6
0012CC16     91             xchg    eax, ecx
0012CC17     7C FF          jl      short 0012CC18
0012CC19     FF             db FF                                                    ; Unknown command
0012CC1A     FF             db FF                                                    ; Unknown command
0012CC1B     FF00           inc     dword ptr ds:[eax]
0012CC1D     0000           add     byte ptr ds:[eax], al
0012CC1F     002D FF907C94  add     byte ptr ds:[947C90FF], ch
0012CC25     CC             int3
0012CC26     1200           adc     al, byte ptr ds:[eax]
0012CC28     D80E           fmul    dword ptr ds:[esi]
0012CC2A     817C00 00 000  cmp     dword ptr ds:[eax+eax], CCC80000
0012CC32     1200           adc     al, byte ptr ds:[eax]
0012CC34     2851 33        sub     byte ptr ds:[ecx+33], dl
0012CC37     0068 50        add     byte ptr ds:[eax+50], ch
0012CC3A     3300           xor     eax, dword ptr ds:[eax]
0012CC3C     1800           sbb     byte ptr ds:[eax], al
0012CC3E     0000           add     byte ptr ds:[eax], al
0012CC40     0000           add     byte ptr ds:[eax], al
0012CC42     0000           add     byte ptr ds:[eax], al
0012CC44   ^ 7C CC          jl      short 0012CC12
0012CC46     1200           adc     al, byte ptr ds:[eax]
0012CC48     40             inc     eax
0012CC49     0000           add     byte ptr ds:[eax], al
0012CC4B     0000           add     byte ptr ds:[eax], al
0012CC4D     0000           add     byte ptr ds:[eax], al
0012CC4F     0060 CC        add     byte ptr ds:[eax-34], ah
0012CC52     1200           adc     al, byte ptr ds:[eax]
0012CC54     0000           add     byte ptr ds:[eax], al
0012CC56     0000           add     byte ptr ds:[eax], al
0012CC58     0000           add     byte ptr ds:[eax], al
0012CC5A     0000           add     byte ptr ds:[eax], al
0012CC5C     0000           add     byte ptr ds:[eax], al
0012CC5E     0000           add     byte ptr ds:[eax], al
0012CC60     0C 00          or      al, 00
0012CC62     0000           add     byte ptr ds:[eax], al
0012CC64     0200           add     al, byte ptr ds:[eax]
0012CC66     0000           add     byte ptr ds:[eax], al
0012CC68     0101           add     dword ptr ds:[ecx], eax
0012CC6A     90             nop
0012CC6B     7C 00          jl      short 0012CC6D
0012CC6D     FC             cld
0012CC6E     FD             std
0012CC6F   ^ 7F 94          jg      short 0012CC05
0012CC71     0000           add     byte ptr ds:[eax], al
0012CC73     0000           add     byte ptr ds:[eax], al
0012CC75     0000           add     byte ptr ds:[eax], al
0012CC77     0001           add     byte ptr ds:[ecx], al
0012CC79     0000           add     byte ptr ds:[eax], al
0012CC7B     009C00 1A02B8  add     byte ptr ds:[eax+eax+89B8021A], bl
0012CC82     14 00          adc     al, 0
0012CC84     0000           add     byte ptr ds:[eax], al
0012CC86     0000           add     byte ptr ds:[eax], al
0012CC88     B8 89140001    mov     eax, 1001489
0012CC8D     0000           add     byte ptr ds:[eax], al
0012CC8F     004F E1        add     byte ptr ds:[edi-1F], cl
0012CC92     807CB8 CC 12   cmp     byte ptr ds:[edi*4+eax-34], 12
0012CC97     0053 1A        add     byte ptr ds:[ebx+1A], dl
0012CC9A     807C6C 00 00   cmp     byte ptr ss:[ebp*2+esp], 0
0012CC9F     0000           add     byte ptr ds:[eax], al
0012CCA1     0000           add     byte ptr ds:[eax], al
0012CCA3     0001           add     byte ptr ds:[ecx], al
0012CCA5     0000           add     byte ptr ds:[eax], al
0012CCA7     0000           add     byte ptr ds:[eax], al
0012CCA9     0000           add     byte ptr ds:[eax], al
0012CCAB     0003           add     byte ptr ds:[ebx], al
0012CCAD     0000           add     byte ptr ds:[eax], al
0012CCAF     0000           add     byte ptr ds:[eax], al
0012CCB1     0000           add     byte ptr ds:[eax], al
0012CCB3     0000           add     byte ptr ds:[eax], al
0012CCB5     0000           add     byte ptr ds:[eax], al
0012CCB7     00F4           add     ah, dh
0012CCB9     F3:1200        rep adc al, byte ptr ds:[eax]                            ; Superfluous REPxx prefix
0012CCBC     26:2140 00     and     dword ptr es:[eax], eax
0012CCC0     E8 CC120000    call    0012DF91
0012CCC5     0000           add     byte ptr ds:[eax], al
0012CCC7     0001           add     byte ptr ds:[ecx], al
0012CCC9     0000           add     byte ptr ds:[eax], al
0012CCCB     0079 E8        add     byte ptr ds:[ecx-18], bh
0012CCCE     1200           adc     al, byte ptr ds:[eax]
0012CCD0     BF 21400000    mov     edi, 4021
0012CCD5     0000           add     byte ptr ds:[eax], al
0012CCD7     0000           add     byte ptr ds:[eax], al
0012CCD9     2C C8          sub     al, 0C8
0012CCDB     40             inc     eax
0012CCDC     68 5033008C    push    8C003350
0012CCE1     F612           not     byte ptr ds:[edx]
0012CCE3     0050 20        add     byte ptr ds:[eax+20], dl
0012CCE6     40             inc     eax
0012CCE7     0043 3A        add     byte ptr ds:[ebx+3A], al
0012CCEA     5C             pop     esp
0012CCEB     44             inc     esp
0012CCEC     6F             outs    dx, dword ptr ds:[esi]                           ; I/O command
0012CCED     6375 6D        arpl    word ptr ss:[ebp+6D], si
0012CCF0     65:6E          outs    dx, byte ptr gs:[esi]                            ; I/O command
0012CCF2     74 73          je      short 0012CD67
0012CCF4     2061 6E        and     byte ptr ds:[ecx+6E], ah
0012CCF7     64:2053 65     and     byte ptr fs:[ebx+65], dl
0012CCFB     74 74          je      short 0012CD71
0012CCFD     696E 67 735C4  imul    ebp, dword ptr ds:[esi+67], 614A5C73
0012CD04     6D             ins     dword ptr es:[edi], dx                           ; I/O command
0012CD05     65:73 5C       jae     short 0012CD64                                   ; Superfluous segment override prefix
0012CD08     44             inc     esp
0012CD09     65:73 6B       jae     short 0012CD77                                   ; Superfluous segment override prefix
0012CD0C     74 6F          je      short 0012CD7D
0012CD0E     70 5C          jo      short 0012CD6C
0012CD10     4D             dec     ebp
0012CD11     61             popad
0012CD12     6C             ins     byte ptr es:[edi], dx                            ; I/O command
0012CD13     77 61          ja      short 0012CD76
0012CD15     72 65          jb      short 0012CD7C
0012CD17     5C             pop     esp
0012CD18     5A             pop     edx
0012CD19     65:6E          outs    dx, byte ptr gs:[esi]                            ; I/O command
0012CD1B     64             fs:                                                      ; Two prefixes from the same group
0012CD1C     65:72 5C       jb      short 0012CD7B                                   ; Superfluous segment override prefix
0012CD1F     43             inc     ebx
0012CD20     6F             outs    dx, dword ptr ds:[esi]                           ; I/O command
0012CD21     70 79          jo      short 0012CD9C
0012CD23     206F 66        and     byte ptr ds:[edi+66], ch
0012CD26     207A 65        and     byte ptr ds:[edx+65], bh
0012CD29     6E             outs    dx, byte ptr ds:[esi]                            ; I/O command
0012CD2A     64             fs:                                                      ; Two prefixes from the same group
0012CD2B     65:72 31       jb      short 0012CD5F                                   ; Superfluous segment override prefix
0012CD2E     2E             cs:                                                      ; Two prefixes from the same group
0012CD2F     65:78 65       js      short 0012CD97                                   ; Superfluous segment override prefix
0012CD32     0000           add     byte ptr ds:[eax], al
0012CD34     0000           add     byte ptr ds:[eax], al
0012CD36     0000           add     byte ptr ds:[eax], al
0012CD38     0000           add     byte ptr ds:[eax], al
0012CD3A     0000           add     byte ptr ds:[eax], al
0012CD3C     0000           add     byte ptr ds:[eax], al
0012CD3E     0000           add     byte ptr ds:[eax], al
0012CD40     0000           add     byte ptr ds:[eax], al
0012CD42     0000           add     byte ptr ds:[eax], al
0012CD44     0000           add     byte ptr ds:[eax], al
0012CD46     0000           add     byte ptr ds:[eax], al
0012CD48     0000           add     byte ptr ds:[eax], al
0012CD4A     0000           add     byte ptr ds:[eax], al
0012CD4C     0000           add     byte ptr ds:[eax], al
0012CD4E     0000           add     byte ptr ds:[eax], al
0012CD50     0000           add     byte ptr ds:[eax], al
0012CD52     0000           add     byte ptr ds:[eax], al
0012CD54     0000           add     byte ptr ds:[eax], al
0012CD56     0000           add     byte ptr ds:[eax], al
0012CD58     0000           add     byte ptr ds:[eax], al
0012CD5A     0000           add     byte ptr ds:[eax], al
0012CD5C     0000           add     byte ptr ds:[eax], al
0012CD5E     0000           add     byte ptr ds:[eax], al
0012CD60     0000           add     byte ptr ds:[eax], al
0012CD62     0000           add     byte ptr ds:[eax], al
0012CD64     0000           add     byte ptr ds:[eax], al
0012CD66     0000           add     byte ptr ds:[eax], al
0012CD68     0000           add     byte ptr ds:[eax], al
0012CD6A     0000           add     byte ptr ds:[eax], al
0012CD6C     0000           add     byte ptr ds:[eax], al
0012CD6E     0000           add     byte ptr ds:[eax], al
0012CD70     0000           add     byte ptr ds:[eax], al
0012CD72     0000           add     byte ptr ds:[eax], al
0012CD74     0000           add     byte ptr ds:[eax], al
0012CD76     0000           add     byte ptr ds:[eax], al
0012CD78     0000           add     byte ptr ds:[eax], al
0012CD7A     0000           add     byte ptr ds:[eax], al
0012CD7C     0000           add     byte ptr ds:[eax], al
0012CD7E     0000           add     byte ptr ds:[eax], al
0012CD80     0000           add     byte ptr ds:[eax], al
0012CD82     0000           add     byte ptr ds:[eax], al
0012CD84     0000           add     byte ptr ds:[eax], al
0012CD86     0000           add     byte ptr ds:[eax], al
0012CD88     0000           add     byte ptr ds:[eax], al
0012CD8A     0000           add     byte ptr ds:[eax], al
0012CD8C     0000           add     byte ptr ds:[eax], al
0012CD8E     0000           add     byte ptr ds:[eax], al
0012CD90     0000           add     byte ptr ds:[eax], al
0012CD92     0000           add     byte ptr ds:[eax], al
0012CD94     0000           add     byte ptr ds:[eax], al
0012CD96     0000           add     byte ptr ds:[eax], al
0012CD98     0000           add     byte ptr ds:[eax], al
0012CD9A     0000           add     byte ptr ds:[eax], al
0012CD9C     0000           add     byte ptr ds:[eax], al
0012CD9E     0000           add     byte ptr ds:[eax], al
0012CDA0     0000           add     byte ptr ds:[eax], al
0012CDA2     0000           add     byte ptr ds:[eax], al
0012CDA4     0000           add     byte ptr ds:[eax], al
0012CDA6     0000           add     byte ptr ds:[eax], al
0012CDA8     0000           add     byte ptr ds:[eax], al
0012CDAA     0000           add     byte ptr ds:[eax], al
0012CDAC     0000           add     byte ptr ds:[eax], al
0012CDAE     0000           add     byte ptr ds:[eax], al
0012CDB0     0000           add     byte ptr ds:[eax], al
0012CDB2     0000           add     byte ptr ds:[eax], al
0012CDB4     0000           add     byte ptr ds:[eax], al
0012CDB6     0000           add     byte ptr ds:[eax], al
0012CDB8     0000           add     byte ptr ds:[eax], al
0012CDBA     0000           add     byte ptr ds:[eax], al
0012CDBC     0000           add     byte ptr ds:[eax], al
0012CDBE     0000           add     byte ptr ds:[eax], al
0012CDC0     0000           add     byte ptr ds:[eax], al
0012CDC2     0000           add     byte ptr ds:[eax], al
0012CDC4     0000           add     byte ptr ds:[eax], al
0012CDC6     0000           add     byte ptr ds:[eax], al
0012CDC8     0000           add     byte ptr ds:[eax], al
0012CDCA     0000           add     byte ptr ds:[eax], al
0012CDCC     0000           add     byte ptr ds:[eax], al
0012CDCE     0000           add     byte ptr ds:[eax], al
0012CDD0     0000           add     byte ptr ds:[eax], al
0012CDD2     0000           add     byte ptr ds:[eax], al
0012CDD4     0000           add     byte ptr ds:[eax], al
0012CDD6     0000           add     byte ptr ds:[eax], al
0012CDD8     0000           add     byte ptr ds:[eax], al
0012CDDA     0000           add     byte ptr ds:[eax], al
0012CDDC     0000           add     byte ptr ds:[eax], al
0012CDDE     0000           add     byte ptr ds:[eax], al
0012CDE0     0000           add     byte ptr ds:[eax], al
0012CDE2     0000           add     byte ptr ds:[eax], al
0012CDE4     0000           add     byte ptr ds:[eax], al
0012CDE6     0000           add     byte ptr ds:[eax], al
0012CDE8     0000           add     byte ptr ds:[eax], al
0012CDEA     0000           add     byte ptr ds:[eax], al
0012CDEC     0000           add     byte ptr ds:[eax], al
0012CDEE     0000           add     byte ptr ds:[eax], al
0012CDF0     0000           add     byte ptr ds:[eax], al
0012CDF2     0000           add     byte ptr ds:[eax], al
0012CDF4     0000           add     byte ptr ds:[eax], al
0012CDF6     0000           add     byte ptr ds:[eax], al
0012CDF8     0000           add     byte ptr ds:[eax], al
0012CDFA     0000           add     byte ptr ds:[eax], al
0012CDFC     0000           add     byte ptr ds:[eax], al
0012CDFE     0000           add     byte ptr ds:[eax], al
0012CE00     0000           add     byte ptr ds:[eax], al
0012CE02     0000           add     byte ptr ds:[eax], al
0012CE04     0000           add     byte ptr ds:[eax], al
0012CE06     0000           add     byte ptr ds:[eax], al
0012CE08     0000           add     byte ptr ds:[eax], al
0012CE0A     0000           add     byte ptr ds:[eax], al
0012CE0C     0000           add     byte ptr ds:[eax], al
0012CE0E     0000           add     byte ptr ds:[eax], al
0012CE10     0000           add     byte ptr ds:[eax], al
0012CE12     0000           add     byte ptr ds:[eax], al
0012CE14     0000           add     byte ptr ds:[eax], al
0012CE16     0000           add     byte ptr ds:[eax], al
0012CE18     0000           add     byte ptr ds:[eax], al
0012CE1A     0000           add     byte ptr ds:[eax], al
0012CE1C     0000           add     byte ptr ds:[eax], al
0012CE1E     0000           add     byte ptr ds:[eax], al
0012CE20     0000           add     byte ptr ds:[eax], al
0012CE22     0000           add     byte ptr ds:[eax], al
0012CE24     0000           add     byte ptr ds:[eax], al
0012CE26     0000           add     byte ptr ds:[eax], al
0012CE28     0000           add     byte ptr ds:[eax], al
0012CE2A     0000           add     byte ptr ds:[eax], al
0012CE2C     0000           add     byte ptr ds:[eax], al
0012CE2E     0000           add     byte ptr ds:[eax], al
0012CE30     0000           add     byte ptr ds:[eax], al
0012CE32     0000           add     byte ptr ds:[eax], al
0012CE34     0000           add     byte ptr ds:[eax], al
0012CE36     0000           add     byte ptr ds:[eax], al
0012CE38     0000           add     byte ptr ds:[eax], al
0012CE3A     0000           add     byte ptr ds:[eax], al
0012CE3C     0000           add     byte ptr ds:[eax], al
0012CE3E     0000           add     byte ptr ds:[eax], al
0012CE40     0000           add     byte ptr ds:[eax], al
0012CE42     0000           add     byte ptr ds:[eax], al
0012CE44     0000           add     byte ptr ds:[eax], al
0012CE46     0000           add     byte ptr ds:[eax], al
0012CE48     0000           add     byte ptr ds:[eax], al
0012CE4A     0000           add     byte ptr ds:[eax], al
0012CE4C     0000           add     byte ptr ds:[eax], al
0012CE4E     0000           add     byte ptr ds:[eax], al
0012CE50     0000           add     byte ptr ds:[eax], al
0012CE52     0000           add     byte ptr ds:[eax], al
0012CE54     0000           add     byte ptr ds:[eax], al
0012CE56     0000           add     byte ptr ds:[eax], al
0012CE58     0000           add     byte ptr ds:[eax], al
0012CE5A     0000           add     byte ptr ds:[eax], al
0012CE5C     0000           add     byte ptr ds:[eax], al
0012CE5E     0000           add     byte ptr ds:[eax], al
0012CE60     0000           add     byte ptr ds:[eax], al
0012CE62     0000           add     byte ptr ds:[eax], al
0012CE64     0000           add     byte ptr ds:[eax], al
0012CE66     0000           add     byte ptr ds:[eax], al
0012CE68     0000           add     byte ptr ds:[eax], al
0012CE6A     0000           add     byte ptr ds:[eax], al
0012CE6C     0000           add     byte ptr ds:[eax], al
0012CE6E     0000           add     byte ptr ds:[eax], al
0012CE70     0000           add     byte ptr ds:[eax], al
0012CE72     0000           add     byte ptr ds:[eax], al
0012CE74     0000           add     byte ptr ds:[eax], al
0012CE76     0000           add     byte ptr ds:[eax], al
0012CE78     0000           add     byte ptr ds:[eax], al
0012CE7A     0000           add     byte ptr ds:[eax], al
0012CE7C     0000           add     byte ptr ds:[eax], al
0012CE7E     0000           add     byte ptr ds:[eax], al
0012CE80     0000           add     byte ptr ds:[eax], al
0012CE82     0000           add     byte ptr ds:[eax], al
0012CE84     0000           add     byte ptr ds:[eax], al
0012CE86     0000           add     byte ptr ds:[eax], al
0012CE88     0000           add     byte ptr ds:[eax], al
0012CE8A     0000           add     byte ptr ds:[eax], al
0012CE8C     0000           add     byte ptr ds:[eax], al
0012CE8E     0000           add     byte ptr ds:[eax], al
0012CE90     0000           add     byte ptr ds:[eax], al
0012CE92     0000           add     byte ptr ds:[eax], al
0012CE94     0000           add     byte ptr ds:[eax], al
0012CE96     0000           add     byte ptr ds:[eax], al
0012CE98     0000           add     byte ptr ds:[eax], al
0012CE9A     0000           add     byte ptr ds:[eax], al
0012CE9C     0000           add     byte ptr ds:[eax], al
0012CE9E     0000           add     byte ptr ds:[eax], al
0012CEA0     0000           add     byte ptr ds:[eax], al
0012CEA2     0000           add     byte ptr ds:[eax], al
0012CEA4     0000           add     byte ptr ds:[eax], al
0012CEA6     0000           add     byte ptr ds:[eax], al
0012CEA8     0000           add     byte ptr ds:[eax], al
0012CEAA     0000           add     byte ptr ds:[eax], al
0012CEAC     0000           add     byte ptr ds:[eax], al
0012CEAE     0000           add     byte ptr ds:[eax], al
0012CEB0     0000           add     byte ptr ds:[eax], al
0012CEB2     0000           add     byte ptr ds:[eax], al
0012CEB4     0000           add     byte ptr ds:[eax], al
0012CEB6     0000           add     byte ptr ds:[eax], al
0012CEB8     0000           add     byte ptr ds:[eax], al
0012CEBA     0000           add     byte ptr ds:[eax], al
0012CEBC     0000           add     byte ptr ds:[eax], al
0012CEBE     0000           add     byte ptr ds:[eax], al
0012CEC0     0000           add     byte ptr ds:[eax], al
0012CEC2     0000           add     byte ptr ds:[eax], al
0012CEC4     0000           add     byte ptr ds:[eax], al
0012CEC6     0000           add     byte ptr ds:[eax], al
0012CEC8     0000           add     byte ptr ds:[eax], al
0012CECA     0000           add     byte ptr ds:[eax], al
0012CECC     0000           add     byte ptr ds:[eax], al
0012CECE     0000           add     byte ptr ds:[eax], al
0012CED0     0000           add     byte ptr ds:[eax], al
0012CED2     0000           add     byte ptr ds:[eax], al
0012CED4     0000           add     byte ptr ds:[eax], al
0012CED6     0000           add     byte ptr ds:[eax], al
0012CED8     0000           add     byte ptr ds:[eax], al
0012CEDA     0000           add     byte ptr ds:[eax], al
0012CEDC     0000           add     byte ptr ds:[eax], al
0012CEDE     0000           add     byte ptr ds:[eax], al
0012CEE0     0000           add     byte ptr ds:[eax], al
0012CEE2     0000           add     byte ptr ds:[eax], al
0012CEE4     0000           add     byte ptr ds:[eax], al
0012CEE6     0000           add     byte ptr ds:[eax], al
0012CEE8     0000           add     byte ptr ds:[eax], al
0012CEEA     0000           add     byte ptr ds:[eax], al
0012CEEC     0000           add     byte ptr ds:[eax], al
0012CEEE     0000           add     byte ptr ds:[eax], al
0012CEF0     0000           add     byte ptr ds:[eax], al
0012CEF2     0000           add     byte ptr ds:[eax], al
0012CEF4     0000           add     byte ptr ds:[eax], al
0012CEF6     0000           add     byte ptr ds:[eax], al
0012CEF8     0000           add     byte ptr ds:[eax], al
0012CEFA     0000           add     byte ptr ds:[eax], al
0012CEFC     0000           add     byte ptr ds:[eax], al
0012CEFE     0000           add     byte ptr ds:[eax], al
0012CF00     0000           add     byte ptr ds:[eax], al
0012CF02     0000           add     byte ptr ds:[eax], al
0012CF04     0000           add     byte ptr ds:[eax], al
0012CF06     0000           add     byte ptr ds:[eax], al
0012CF08     0000           add     byte ptr ds:[eax], al
0012CF0A     0000           add     byte ptr ds:[eax], al
0012CF0C     0000           add     byte ptr ds:[eax], al
0012CF0E     0000           add     byte ptr ds:[eax], al
0012CF10     0000           add     byte ptr ds:[eax], al
0012CF12     0000           add     byte ptr ds:[eax], al
0012CF14     0000           add     byte ptr ds:[eax], al
0012CF16     0000           add     byte ptr ds:[eax], al
0012CF18     0000           add     byte ptr ds:[eax], al
0012CF1A     0000           add     byte ptr ds:[eax], al
0012CF1C     0000           add     byte ptr ds:[eax], al
0012CF1E     0000           add     byte ptr ds:[eax], al
0012CF20     0000           add     byte ptr ds:[eax], al
0012CF22     0000           add     byte ptr ds:[eax], al
0012CF24     0000           add     byte ptr ds:[eax], al
0012CF26     0000           add     byte ptr ds:[eax], al
0012CF28     0000           add     byte ptr ds:[eax], al
0012CF2A     0000           add     byte ptr ds:[eax], al
0012CF2C     0000           add     byte ptr ds:[eax], al
0012CF2E     0000           add     byte ptr ds:[eax], al
0012CF30     0000           add     byte ptr ds:[eax], al
0012CF32     0000           add     byte ptr ds:[eax], al
0012CF34     0000           add     byte ptr ds:[eax], al
0012CF36     0000           add     byte ptr ds:[eax], al
0012CF38     0000           add     byte ptr ds:[eax], al
0012CF3A     0000           add     byte ptr ds:[eax], al
0012CF3C     0000           add     byte ptr ds:[eax], al
0012CF3E     0000           add     byte ptr ds:[eax], al
0012CF40     0000           add     byte ptr ds:[eax], al
0012CF42     0000           add     byte ptr ds:[eax], al
0012CF44     0000           add     byte ptr ds:[eax], al
0012CF46     0000           add     byte ptr ds:[eax], al
0012CF48     0000           add     byte ptr ds:[eax], al
0012CF4A     0000           add     byte ptr ds:[eax], al
0012CF4C     0000           add     byte ptr ds:[eax], al
0012CF4E     0000           add     byte ptr ds:[eax], al
0012CF50     0000           add     byte ptr ds:[eax], al
0012CF52     0000           add     byte ptr ds:[eax], al
0012CF54     0000           add     byte ptr ds:[eax], al
0012CF56     0000           add     byte ptr ds:[eax], al
0012CF58     0000           add     byte ptr ds:[eax], al
0012CF5A     0000           add     byte ptr ds:[eax], al
0012CF5C     0000           add     byte ptr ds:[eax], al
0012CF5E     0000           add     byte ptr ds:[eax], al
0012CF60     0000           add     byte ptr ds:[eax], al
0012CF62     0000           add     byte ptr ds:[eax], al
0012CF64     0000           add     byte ptr ds:[eax], al
0012CF66     0000           add     byte ptr ds:[eax], al
0012CF68     0000           add     byte ptr ds:[eax], al
0012CF6A     0000           add     byte ptr ds:[eax], al
0012CF6C     0000           add     byte ptr ds:[eax], al
0012CF6E     0000           add     byte ptr ds:[eax], al
0012CF70     0000           add     byte ptr ds:[eax], al
0012CF72     0000           add     byte ptr ds:[eax], al
0012CF74     0000           add     byte ptr ds:[eax], al
0012CF76     0000           add     byte ptr ds:[eax], al
0012CF78     0000           add     byte ptr ds:[eax], al
0012CF7A     0000           add     byte ptr ds:[eax], al
0012CF7C     0000           add     byte ptr ds:[eax], al
0012CF7E     0000           add     byte ptr ds:[eax], al
0012CF80     0000           add     byte ptr ds:[eax], al
0012CF82     0000           add     byte ptr ds:[eax], al
0012CF84     0000           add     byte ptr ds:[eax], al
0012CF86     0000           add     byte ptr ds:[eax], al
0012CF88     0000           add     byte ptr ds:[eax], al
0012CF8A     0000           add     byte ptr ds:[eax], al
0012CF8C     0000           add     byte ptr ds:[eax], al
0012CF8E     0000           add     byte ptr ds:[eax], al
0012CF90     0000           add     byte ptr ds:[eax], al
0012CF92     0000           add     byte ptr ds:[eax], al
0012CF94     0000           add     byte ptr ds:[eax], al
0012CF96     0000           add     byte ptr ds:[eax], al
0012CF98     0000           add     byte ptr ds:[eax], al
0012CF9A     0000           add     byte ptr ds:[eax], al
0012CF9C     0000           add     byte ptr ds:[eax], al
0012CF9E     0000           add     byte ptr ds:[eax], al
0012CFA0     0000           add     byte ptr ds:[eax], al
0012CFA2     0000           add     byte ptr ds:[eax], al
0012CFA4     0000           add     byte ptr ds:[eax], al
0012CFA6     0000           add     byte ptr ds:[eax], al
0012CFA8     0000           add     byte ptr ds:[eax], al
0012CFAA     0000           add     byte ptr ds:[eax], al
0012CFAC     0000           add     byte ptr ds:[eax], al
0012CFAE     0000           add     byte ptr ds:[eax], al
0012CFB0     0000           add     byte ptr ds:[eax], al
0012CFB2     0000           add     byte ptr ds:[eax], al
0012CFB4     0000           add     byte ptr ds:[eax], al
0012CFB6     0000           add     byte ptr ds:[eax], al
0012CFB8     0000           add     byte ptr ds:[eax], al
0012CFBA     0000           add     byte ptr ds:[eax], al
0012CFBC     0000           add     byte ptr ds:[eax], al
0012CFBE     0000           add     byte ptr ds:[eax], al
0012CFC0     0000           add     byte ptr ds:[eax], al
0012CFC2     0000           add     byte ptr ds:[eax], al
0012CFC4     0000           add     byte ptr ds:[eax], al
0012CFC6     0000           add     byte ptr ds:[eax], al
0012CFC8     0000           add     byte ptr ds:[eax], al
0012CFCA     0000           add     byte ptr ds:[eax], al
0012CFCC     0000           add     byte ptr ds:[eax], al
0012CFCE     0000           add     byte ptr ds:[eax], al
0012CFD0     0000           add     byte ptr ds:[eax], al
0012CFD2     0000           add     byte ptr ds:[eax], al
0012CFD4     0000           add     byte ptr ds:[eax], al
0012CFD6     0000           add     byte ptr ds:[eax], al
0012CFD8     0000           add     byte ptr ds:[eax], al
0012CFDA     0000           add     byte ptr ds:[eax], al
0012CFDC     0000           add     byte ptr ds:[eax], al
0012CFDE     0000           add     byte ptr ds:[eax], al
0012CFE0     0000           add     byte ptr ds:[eax], al
0012CFE2     0000           add     byte ptr ds:[eax], al
0012CFE4     0000           add     byte ptr ds:[eax], al
0012CFE6     0000           add     byte ptr ds:[eax], al
0012CFE8     0000           add     byte ptr ds:[eax], al
0012CFEA     0000           add     byte ptr ds:[eax], al
0012CFEC     0000           add     byte ptr ds:[eax], al
0012CFEE     0000           add     byte ptr ds:[eax], al
0012CFF0     0000           add     byte ptr ds:[eax], al
0012CFF2     0000           add     byte ptr ds:[eax], al
0012CFF4     0000           add     byte ptr ds:[eax], al
0012CFF6     0000           add     byte ptr ds:[eax], al
0012CFF8     0000           add     byte ptr ds:[eax], al
0012CFFA     0000           add     byte ptr ds:[eax], al
0012CFFC     0000           add     byte ptr ds:[eax], al
0012CFFE     0000           add     byte ptr ds:[eax], al
0012D000     0000           add     byte ptr ds:[eax], al
0012D002     0000           add     byte ptr ds:[eax], al
0012D004     0000           add     byte ptr ds:[eax], al
0012D006     0000           add     byte ptr ds:[eax], al
0012D008     0000           add     byte ptr ds:[eax], al
0012D00A     0000           add     byte ptr ds:[eax], al
0012D00C     0000           add     byte ptr ds:[eax], al
0012D00E     0000           add     byte ptr ds:[eax], al
0012D010     0000           add     byte ptr ds:[eax], al
0012D012     0000           add     byte ptr ds:[eax], al
0012D014     0000           add     byte ptr ds:[eax], al
0012D016     0000           add     byte ptr ds:[eax], al
0012D018     0000           add     byte ptr ds:[eax], al
0012D01A     0000           add     byte ptr ds:[eax], al
0012D01C     0000           add     byte ptr ds:[eax], al
0012D01E     0000           add     byte ptr ds:[eax], al
0012D020     0000           add     byte ptr ds:[eax], al
0012D022     0000           add     byte ptr ds:[eax], al
0012D024     0000           add     byte ptr ds:[eax], al
0012D026     0000           add     byte ptr ds:[eax], al
0012D028     0000           add     byte ptr ds:[eax], al
0012D02A     0000           add     byte ptr ds:[eax], al
0012D02C     0000           add     byte ptr ds:[eax], al
0012D02E     0000           add     byte ptr ds:[eax], al
0012D030     0000           add     byte ptr ds:[eax], al
0012D032     0000           add     byte ptr ds:[eax], al
0012D034     0000           add     byte ptr ds:[eax], al
0012D036     0000           add     byte ptr ds:[eax], al
0012D038     0000           add     byte ptr ds:[eax], al
0012D03A     0000           add     byte ptr ds:[eax], al
0012D03C     0000           add     byte ptr ds:[eax], al
0012D03E     0000           add     byte ptr ds:[eax], al
0012D040     0000           add     byte ptr ds:[eax], al
0012D042     0000           add     byte ptr ds:[eax], al
0012D044     0000           add     byte ptr ds:[eax], al
0012D046     0000           add     byte ptr ds:[eax], al
0012D048     0000           add     byte ptr ds:[eax], al
0012D04A     0000           add     byte ptr ds:[eax], al
0012D04C     0000           add     byte ptr ds:[eax], al
0012D04E     0000           add     byte ptr ds:[eax], al
0012D050     0000           add     byte ptr ds:[eax], al
0012D052     0000           add     byte ptr ds:[eax], al
0012D054     0000           add     byte ptr ds:[eax], al
0012D056     0000           add     byte ptr ds:[eax], al
0012D058     0000           add     byte ptr ds:[eax], al
0012D05A     0000           add     byte ptr ds:[eax], al
0012D05C     0000           add     byte ptr ds:[eax], al
0012D05E     0000           add     byte ptr ds:[eax], al
0012D060     0000           add     byte ptr ds:[eax], al
0012D062     0000           add     byte ptr ds:[eax], al
0012D064     0000           add     byte ptr ds:[eax], al
0012D066     0000           add     byte ptr ds:[eax], al
0012D068     0000           add     byte ptr ds:[eax], al
0012D06A     0000           add     byte ptr ds:[eax], al
0012D06C     0000           add     byte ptr ds:[eax], al
0012D06E     0000           add     byte ptr ds:[eax], al
0012D070     0000           add     byte ptr ds:[eax], al
0012D072     0000           add     byte ptr ds:[eax], al
0012D074     0000           add     byte ptr ds:[eax], al
0012D076     0000           add     byte ptr ds:[eax], al
0012D078     0000           add     byte ptr ds:[eax], al
0012D07A     0000           add     byte ptr ds:[eax], al
0012D07C     0000           add     byte ptr ds:[eax], al
0012D07E     0000           add     byte ptr ds:[eax], al
0012D080     0000           add     byte ptr ds:[eax], al
0012D082     0000           add     byte ptr ds:[eax], al
0012D084     0000           add     byte ptr ds:[eax], al
0012D086     0000           add     byte ptr ds:[eax], al
0012D088     0000           add     byte ptr ds:[eax], al
0012D08A     0000           add     byte ptr ds:[eax], al
0012D08C     0000           add     byte ptr ds:[eax], al
0012D08E     0000           add     byte ptr ds:[eax], al
0012D090     0000           add     byte ptr ds:[eax], al
0012D092     0000           add     byte ptr ds:[eax], al
0012D094     0000           add     byte ptr ds:[eax], al
0012D096     0000           add     byte ptr ds:[eax], al
0012D098     0000           add     byte ptr ds:[eax], al
0012D09A     0000           add     byte ptr ds:[eax], al
0012D09C     0000           add     byte ptr ds:[eax], al
0012D09E     0000           add     byte ptr ds:[eax], al
0012D0A0     0000           add     byte ptr ds:[eax], al
0012D0A2     0000           add     byte ptr ds:[eax], al
0012D0A4     0000           add     byte ptr ds:[eax], al
0012D0A6     0000           add     byte ptr ds:[eax], al
0012D0A8     0000           add     byte ptr ds:[eax], al
0012D0AA     0000           add     byte ptr ds:[eax], al
0012D0AC     0000           add     byte ptr ds:[eax], al
0012D0AE     0000           add     byte ptr ds:[eax], al
0012D0B0     0000           add     byte ptr ds:[eax], al
0012D0B2     0000           add     byte ptr ds:[eax], al
0012D0B4     0000           add     byte ptr ds:[eax], al
0012D0B6     0000           add     byte ptr ds:[eax], al
0012D0B8     0000           add     byte ptr ds:[eax], al
0012D0BA     0000           add     byte ptr ds:[eax], al
0012D0BC     0000           add     byte ptr ds:[eax], al
0012D0BE     0000           add     byte ptr ds:[eax], al
0012D0C0     0000           add     byte ptr ds:[eax], al
0012D0C2     0000           add     byte ptr ds:[eax], al
0012D0C4     0000           add     byte ptr ds:[eax], al
0012D0C6     0000           add     byte ptr ds:[eax], al
0012D0C8     0000           add     byte ptr ds:[eax], al
0012D0CA     0000           add     byte ptr ds:[eax], al
0012D0CC     0000           add     byte ptr ds:[eax], al
0012D0CE     0000           add     byte ptr ds:[eax], al
0012D0D0     0000           add     byte ptr ds:[eax], al
0012D0D2     0000           add     byte ptr ds:[eax], al
0012D0D4     0000           add     byte ptr ds:[eax], al
0012D0D6     0000           add     byte ptr ds:[eax], al
0012D0D8     0000           add     byte ptr ds:[eax], al
0012D0DA     0000           add     byte ptr ds:[eax], al
0012D0DC     0000           add     byte ptr ds:[eax], al
0012D0DE     0000           add     byte ptr ds:[eax], al
0012D0E0     0000           add     byte ptr ds:[eax], al
0012D0E2     0000           add     byte ptr ds:[eax], al
0012D0E4     0000           add     byte ptr ds:[eax], al
0012D0E6     0000           add     byte ptr ds:[eax], al
0012D0E8     0000           add     byte ptr ds:[eax], al
0012D0EA     0000           add     byte ptr ds:[eax], al
0012D0EC     0000           add     byte ptr ds:[eax], al
0012D0EE     0000           add     byte ptr ds:[eax], al
0012D0F0     0000           add     byte ptr ds:[eax], al
0012D0F2     0000           add     byte ptr ds:[eax], al
0012D0F4     0000           add     byte ptr ds:[eax], al
0012D0F6     0000           add     byte ptr ds:[eax], al
0012D0F8     0000           add     byte ptr ds:[eax], al
0012D0FA     0000           add     byte ptr ds:[eax], al
0012D0FC     0000           add     byte ptr ds:[eax], al
0012D0FE     0000           add     byte ptr ds:[eax], al
0012D100     0000           add     byte ptr ds:[eax], al
0012D102     0000           add     byte ptr ds:[eax], al
0012D104     0000           add     byte ptr ds:[eax], al
0012D106     0000           add     byte ptr ds:[eax], al
0012D108     0000           add     byte ptr ds:[eax], al
0012D10A     0000           add     byte ptr ds:[eax], al
0012D10C     0000           add     byte ptr ds:[eax], al
0012D10E     0000           add     byte ptr ds:[eax], al
0012D110     0000           add     byte ptr ds:[eax], al
0012D112     0000           add     byte ptr ds:[eax], al
0012D114     0000           add     byte ptr ds:[eax], al
0012D116     0000           add     byte ptr ds:[eax], al
0012D118     0000           add     byte ptr ds:[eax], al
0012D11A     0000           add     byte ptr ds:[eax], al
0012D11C     0000           add     byte ptr ds:[eax], al
0012D11E     0000           add     byte ptr ds:[eax], al
0012D120     0000           add     byte ptr ds:[eax], al
0012D122     0000           add     byte ptr ds:[eax], al
0012D124     0000           add     byte ptr ds:[eax], al
0012D126     0000           add     byte ptr ds:[eax], al
0012D128     0000           add     byte ptr ds:[eax], al
0012D12A     0000           add     byte ptr ds:[eax], al
0012D12C     0000           add     byte ptr ds:[eax], al
0012D12E     0000           add     byte ptr ds:[eax], al
0012D130     0000           add     byte ptr ds:[eax], al
0012D132     0000           add     byte ptr ds:[eax], al
0012D134     0000           add     byte ptr ds:[eax], al
0012D136     0000           add     byte ptr ds:[eax], al
0012D138     0000           add     byte ptr ds:[eax], al
0012D13A     0000           add     byte ptr ds:[eax], al
0012D13C     0000           add     byte ptr ds:[eax], al
0012D13E     0000           add     byte ptr ds:[eax], al
0012D140     0000           add     byte ptr ds:[eax], al
0012D142     0000           add     byte ptr ds:[eax], al
0012D144     0000           add     byte ptr ds:[eax], al
0012D146     0000           add     byte ptr ds:[eax], al
0012D148     0000           add     byte ptr ds:[eax], al
0012D14A     0000           add     byte ptr ds:[eax], al
0012D14C     0000           add     byte ptr ds:[eax], al
0012D14E     0000           add     byte ptr ds:[eax], al
0012D150     0000           add     byte ptr ds:[eax], al
0012D152     0000           add     byte ptr ds:[eax], al
0012D154     0000           add     byte ptr ds:[eax], al
0012D156     0000           add     byte ptr ds:[eax], al
0012D158     0000           add     byte ptr ds:[eax], al
0012D15A     0000           add     byte ptr ds:[eax], al
0012D15C     0000           add     byte ptr ds:[eax], al
0012D15E     0000           add     byte ptr ds:[eax], al
0012D160     0000           add     byte ptr ds:[eax], al
0012D162     0000           add     byte ptr ds:[eax], al
0012D164     0000           add     byte ptr ds:[eax], al
0012D166     0000           add     byte ptr ds:[eax], al
0012D168     0000           add     byte ptr ds:[eax], al
0012D16A     0000           add     byte ptr ds:[eax], al
0012D16C     0000           add     byte ptr ds:[eax], al
0012D16E     0000           add     byte ptr ds:[eax], al
0012D170     0000           add     byte ptr ds:[eax], al
0012D172     0000           add     byte ptr ds:[eax], al
0012D174     0000           add     byte ptr ds:[eax], al
0012D176     0000           add     byte ptr ds:[eax], al
0012D178     0000           add     byte ptr ds:[eax], al
0012D17A     0000           add     byte ptr ds:[eax], al
0012D17C     0000           add     byte ptr ds:[eax], al
0012D17E     0000           add     byte ptr ds:[eax], al
0012D180     0000           add     byte ptr ds:[eax], al
0012D182     0000           add     byte ptr ds:[eax], al
0012D184     0000           add     byte ptr ds:[eax], al
0012D186     0000           add     byte ptr ds:[eax], al
0012D188     0000           add     byte ptr ds:[eax], al
0012D18A     0000           add     byte ptr ds:[eax], al
0012D18C     0000           add     byte ptr ds:[eax], al
0012D18E     0000           add     byte ptr ds:[eax], al
0012D190     0000           add     byte ptr ds:[eax], al
0012D192     0000           add     byte ptr ds:[eax], al
0012D194     0000           add     byte ptr ds:[eax], al
0012D196     0000           add     byte ptr ds:[eax], al
0012D198     0000           add     byte ptr ds:[eax], al
0012D19A     0000           add     byte ptr ds:[eax], al
0012D19C     0000           add     byte ptr ds:[eax], al
0012D19E     0000           add     byte ptr ds:[eax], al
0012D1A0     0000           add     byte ptr ds:[eax], al
0012D1A2     0000           add     byte ptr ds:[eax], al
0012D1A4     0000           add     byte ptr ds:[eax], al
0012D1A6     0000           add     byte ptr ds:[eax], al
0012D1A8     0000           add     byte ptr ds:[eax], al
0012D1AA     0000           add     byte ptr ds:[eax], al
0012D1AC     0000           add     byte ptr ds:[eax], al
0012D1AE     0000           add     byte ptr ds:[eax], al
0012D1B0     0000           add     byte ptr ds:[eax], al
0012D1B2     0000           add     byte ptr ds:[eax], al
0012D1B4     0000           add     byte ptr ds:[eax], al
0012D1B6     0000           add     byte ptr ds:[eax], al
0012D1B8     0000           add     byte ptr ds:[eax], al
0012D1BA     0000           add     byte ptr ds:[eax], al
0012D1BC     0000           add     byte ptr ds:[eax], al
0012D1BE     0000           add     byte ptr ds:[eax], al
0012D1C0     0000           add     byte ptr ds:[eax], al
0012D1C2     0000           add     byte ptr ds:[eax], al
0012D1C4     0000           add     byte ptr ds:[eax], al
0012D1C6     0000           add     byte ptr ds:[eax], al
0012D1C8     0000           add     byte ptr ds:[eax], al
0012D1CA     0000           add     byte ptr ds:[eax], al
0012D1CC     0000           add     byte ptr ds:[eax], al
0012D1CE     0000           add     byte ptr ds:[eax], al
0012D1D0     0000           add     byte ptr ds:[eax], al
0012D1D2     0000           add     byte ptr ds:[eax], al
0012D1D4     0000           add     byte ptr ds:[eax], al
0012D1D6     0000           add     byte ptr ds:[eax], al
0012D1D8     0000           add     byte ptr ds:[eax], al
0012D1DA     0000           add     byte ptr ds:[eax], al
0012D1DC     0000           add     byte ptr ds:[eax], al
0012D1DE     0000           add     byte ptr ds:[eax], al
0012D1E0     0000           add     byte ptr ds:[eax], al
0012D1E2     0000           add     byte ptr ds:[eax], al
0012D1E4     0000           add     byte ptr ds:[eax], al
0012D1E6     0000           add     byte ptr ds:[eax], al
0012D1E8     0000           add     byte ptr ds:[eax], al
0012D1EA     0000           add     byte ptr ds:[eax], al
0012D1EC     0000           add     byte ptr ds:[eax], al
0012D1EE     0000           add     byte ptr ds:[eax], al
0012D1F0     0000           add     byte ptr ds:[eax], al
0012D1F2     0000           add     byte ptr ds:[eax], al
0012D1F4     0000           add     byte ptr ds:[eax], al
0012D1F6     0000           add     byte ptr ds:[eax], al
0012D1F8     0000           add     byte ptr ds:[eax], al
0012D1FA     0000           add     byte ptr ds:[eax], al
0012D1FC     0000           add     byte ptr ds:[eax], al
0012D1FE     0000           add     byte ptr ds:[eax], al
0012D200     0000           add     byte ptr ds:[eax], al
0012D202     0000           add     byte ptr ds:[eax], al
0012D204     0000           add     byte ptr ds:[eax], al
0012D206     0000           add     byte ptr ds:[eax], al
0012D208     0000           add     byte ptr ds:[eax], al
0012D20A     0000           add     byte ptr ds:[eax], al
0012D20C     0000           add     byte ptr ds:[eax], al
0012D20E     0000           add     byte ptr ds:[eax], al
0012D210     0000           add     byte ptr ds:[eax], al
0012D212     0000           add     byte ptr ds:[eax], al
0012D214     0000           add     byte ptr ds:[eax], al
0012D216     0000           add     byte ptr ds:[eax], al
0012D218     0000           add     byte ptr ds:[eax], al
0012D21A     0000           add     byte ptr ds:[eax], al
0012D21C     0000           add     byte ptr ds:[eax], al
0012D21E     0000           add     byte ptr ds:[eax], al
0012D220     0000           add     byte ptr ds:[eax], al
0012D222     0000           add     byte ptr ds:[eax], al
0012D224     0000           add     byte ptr ds:[eax], al
0012D226     0000           add     byte ptr ds:[eax], al
0012D228     0000           add     byte ptr ds:[eax], al
0012D22A     0000           add     byte ptr ds:[eax], al
0012D22C     0000           add     byte ptr ds:[eax], al
0012D22E     0000           add     byte ptr ds:[eax], al
0012D230     0000           add     byte ptr ds:[eax], al
0012D232     0000           add     byte ptr ds:[eax], al
0012D234     0000           add     byte ptr ds:[eax], al
0012D236     0000           add     byte ptr ds:[eax], al
0012D238     0000           add     byte ptr ds:[eax], al
0012D23A     0000           add     byte ptr ds:[eax], al
0012D23C     0000           add     byte ptr ds:[eax], al
0012D23E     0000           add     byte ptr ds:[eax], al
0012D240     0000           add     byte ptr ds:[eax], al
0012D242     0000           add     byte ptr ds:[eax], al
0012D244     0000           add     byte ptr ds:[eax], al
0012D246     0000           add     byte ptr ds:[eax], al
0012D248     0000           add     byte ptr ds:[eax], al
0012D24A     0000           add     byte ptr ds:[eax], al
0012D24C     0000           add     byte ptr ds:[eax], al
0012D24E     0000           add     byte ptr ds:[eax], al
0012D250     0000           add     byte ptr ds:[eax], al
0012D252     0000           add     byte ptr ds:[eax], al
0012D254     0000           add     byte ptr ds:[eax], al
0012D256     0000           add     byte ptr ds:[eax], al
0012D258     0000           add     byte ptr ds:[eax], al
0012D25A     0000           add     byte ptr ds:[eax], al
0012D25C     0000           add     byte ptr ds:[eax], al
0012D25E     0000           add     byte ptr ds:[eax], al
0012D260     0000           add     byte ptr ds:[eax], al
0012D262     0000           add     byte ptr ds:[eax], al
0012D264     0000           add     byte ptr ds:[eax], al
0012D266     0000           add     byte ptr ds:[eax], al
0012D268     0000           add     byte ptr ds:[eax], al
0012D26A     0000           add     byte ptr ds:[eax], al
0012D26C     0000           add     byte ptr ds:[eax], al
0012D26E     0000           add     byte ptr ds:[eax], al
0012D270     0000           add     byte ptr ds:[eax], al
0012D272     0000           add     byte ptr ds:[eax], al
0012D274     0000           add     byte ptr ds:[eax], al
0012D276     0000           add     byte ptr ds:[eax], al
0012D278     0000           add     byte ptr ds:[eax], al
0012D27A     0000           add     byte ptr ds:[eax], al
0012D27C     0000           add     byte ptr ds:[eax], al
0012D27E     0000           add     byte ptr ds:[eax], al
0012D280     0000           add     byte ptr ds:[eax], al
0012D282     0000           add     byte ptr ds:[eax], al
0012D284     0000           add     byte ptr ds:[eax], al
0012D286     0000           add     byte ptr ds:[eax], al
0012D288     0000           add     byte ptr ds:[eax], al
0012D28A     0000           add     byte ptr ds:[eax], al
0012D28C     0000           add     byte ptr ds:[eax], al
0012D28E     0000           add     byte ptr ds:[eax], al
0012D290     0000           add     byte ptr ds:[eax], al
0012D292     0000           add     byte ptr ds:[eax], al
0012D294     0000           add     byte ptr ds:[eax], al
0012D296     0000           add     byte ptr ds:[eax], al
0012D298     0000           add     byte ptr ds:[eax], al
0012D29A     0000           add     byte ptr ds:[eax], al
0012D29C     0000           add     byte ptr ds:[eax], al
0012D29E     0000           add     byte ptr ds:[eax], al
0012D2A0     0000           add     byte ptr ds:[eax], al
0012D2A2     0000           add     byte ptr ds:[eax], al
0012D2A4     0000           add     byte ptr ds:[eax], al
0012D2A6     0000           add     byte ptr ds:[eax], al
0012D2A8     0000           add     byte ptr ds:[eax], al
0012D2AA     0000           add     byte ptr ds:[eax], al
0012D2AC     0000           add     byte ptr ds:[eax], al
0012D2AE     0000           add     byte ptr ds:[eax], al
0012D2B0     0000           add     byte ptr ds:[eax], al
0012D2B2     0000           add     byte ptr ds:[eax], al
0012D2B4     0000           add     byte ptr ds:[eax], al
0012D2B6     0000           add     byte ptr ds:[eax], al
0012D2B8     0000           add     byte ptr ds:[eax], al
0012D2BA     0000           add     byte ptr ds:[eax], al
0012D2BC     0000           add     byte ptr ds:[eax], al
0012D2BE     0000           add     byte ptr ds:[eax], al
0012D2C0     0000           add     byte ptr ds:[eax], al
0012D2C2     0000           add     byte ptr ds:[eax], al
0012D2C4     0000           add     byte ptr ds:[eax], al
0012D2C6     0000           add     byte ptr ds:[eax], al
0012D2C8     0000           add     byte ptr ds:[eax], al
0012D2CA     0000           add     byte ptr ds:[eax], al
0012D2CC     0000           add     byte ptr ds:[eax], al
0012D2CE     0000           add     byte ptr ds:[eax], al
0012D2D0     0000           add     byte ptr ds:[eax], al
0012D2D2     0000           add     byte ptr ds:[eax], al
0012D2D4     0000           add     byte ptr ds:[eax], al
0012D2D6     0000           add     byte ptr ds:[eax], al
0012D2D8     0000           add     byte ptr ds:[eax], al
0012D2DA     0000           add     byte ptr ds:[eax], al
0012D2DC     0000           add     byte ptr ds:[eax], al
0012D2DE     0000           add     byte ptr ds:[eax], al
0012D2E0     0000           add     byte ptr ds:[eax], al
0012D2E2     0000           add     byte ptr ds:[eax], al
0012D2E4     0000           add     byte ptr ds:[eax], al
0012D2E6     0000           add     byte ptr ds:[eax], al
0012D2E8     0000           add     byte ptr ds:[eax], al
0012D2EA     0000           add     byte ptr ds:[eax], al
0012D2EC     0000           add     byte ptr ds:[eax], al
0012D2EE     0000           add     byte ptr ds:[eax], al
0012D2F0     0000           add     byte ptr ds:[eax], al
0012D2F2     0000           add     byte ptr ds:[eax], al
0012D2F4     0000           add     byte ptr ds:[eax], al
0012D2F6     0000           add     byte ptr ds:[eax], al
0012D2F8     0000           add     byte ptr ds:[eax], al
0012D2FA     0000           add     byte ptr ds:[eax], al
0012D2FC     0000           add     byte ptr ds:[eax], al
0012D2FE     0000           add     byte ptr ds:[eax], al
0012D300     0000           add     byte ptr ds:[eax], al
0012D302     0000           add     byte ptr ds:[eax], al
0012D304     0000           add     byte ptr ds:[eax], al
0012D306     0000           add     byte ptr ds:[eax], al
0012D308     0000           add     byte ptr ds:[eax], al
0012D30A     0000           add     byte ptr ds:[eax], al
0012D30C     0000           add     byte ptr ds:[eax], al
0012D30E     0000           add     byte ptr ds:[eax], al
0012D310     0000           add     byte ptr ds:[eax], al
0012D312     0000           add     byte ptr ds:[eax], al
0012D314     0000           add     byte ptr ds:[eax], al
0012D316     0000           add     byte ptr ds:[eax], al
0012D318     0000           add     byte ptr ds:[eax], al
0012D31A     0000           add     byte ptr ds:[eax], al
0012D31C     0000           add     byte ptr ds:[eax], al
0012D31E     0000           add     byte ptr ds:[eax], al
0012D320     0000           add     byte ptr ds:[eax], al
0012D322     0000           add     byte ptr ds:[eax], al
0012D324     0000           add     byte ptr ds:[eax], al
0012D326     0000           add     byte ptr ds:[eax], al
0012D328     0000           add     byte ptr ds:[eax], al
0012D32A     0000           add     byte ptr ds:[eax], al
0012D32C     0000           add     byte ptr ds:[eax], al
0012D32E     0000           add     byte ptr ds:[eax], al
0012D330     0000           add     byte ptr ds:[eax], al
0012D332     0000           add     byte ptr ds:[eax], al
0012D334     0000           add     byte ptr ds:[eax], al
0012D336     0000           add     byte ptr ds:[eax], al
0012D338     0000           add     byte ptr ds:[eax], al
0012D33A     0000           add     byte ptr ds:[eax], al
0012D33C     0000           add     byte ptr ds:[eax], al
0012D33E     0000           add     byte ptr ds:[eax], al
0012D340     0000           add     byte ptr ds:[eax], al
0012D342     0000           add     byte ptr ds:[eax], al
0012D344     0000           add     byte ptr ds:[eax], al
0012D346     0000           add     byte ptr ds:[eax], al
0012D348     0000           add     byte ptr ds:[eax], al
0012D34A     0000           add     byte ptr ds:[eax], al
0012D34C     0000           add     byte ptr ds:[eax], al
0012D34E     0000           add     byte ptr ds:[eax], al
0012D350     0000           add     byte ptr ds:[eax], al
0012D352     0000           add     byte ptr ds:[eax], al
0012D354     0000           add     byte ptr ds:[eax], al
0012D356     0000           add     byte ptr ds:[eax], al
0012D358     0000           add     byte ptr ds:[eax], al
0012D35A     0000           add     byte ptr ds:[eax], al
0012D35C     0000           add     byte ptr ds:[eax], al
0012D35E     0000           add     byte ptr ds:[eax], al
0012D360     0000           add     byte ptr ds:[eax], al
0012D362     0000           add     byte ptr ds:[eax], al
0012D364     0000           add     byte ptr ds:[eax], al
0012D366     0000           add     byte ptr ds:[eax], al
0012D368     0000           add     byte ptr ds:[eax], al
0012D36A     0000           add     byte ptr ds:[eax], al
0012D36C     0000           add     byte ptr ds:[eax], al
0012D36E     0000           add     byte ptr ds:[eax], al
0012D370     0000           add     byte ptr ds:[eax], al
0012D372     0000           add     byte ptr ds:[eax], al
0012D374     0000           add     byte ptr ds:[eax], al
0012D376     0000           add     byte ptr ds:[eax], al
0012D378     0000           add     byte ptr ds:[eax], al
0012D37A     0000           add     byte ptr ds:[eax], al
0012D37C     0000           add     byte ptr ds:[eax], al
0012D37E     0000           add     byte ptr ds:[eax], al
0012D380     0000           add     byte ptr ds:[eax], al
0012D382     0000           add     byte ptr ds:[eax], al
0012D384     0000           add     byte ptr ds:[eax], al
0012D386     0000           add     byte ptr ds:[eax], al
0012D388     0000           add     byte ptr ds:[eax], al
0012D38A     0000           add     byte ptr ds:[eax], al
0012D38C     0000           add     byte ptr ds:[eax], al
0012D38E     0000           add     byte ptr ds:[eax], al
0012D390     0000           add     byte ptr ds:[eax], al
0012D392     0000           add     byte ptr ds:[eax], al
0012D394     0000           add     byte ptr ds:[eax], al
0012D396     0000           add     byte ptr ds:[eax], al
0012D398     0000           add     byte ptr ds:[eax], al
0012D39A     0000           add     byte ptr ds:[eax], al
0012D39C     0000           add     byte ptr ds:[eax], al
0012D39E     0000           add     byte ptr ds:[eax], al
0012D3A0     0000           add     byte ptr ds:[eax], al
0012D3A2     0000           add     byte ptr ds:[eax], al
0012D3A4     0000           add     byte ptr ds:[eax], al
0012D3A6     0000           add     byte ptr ds:[eax], al
0012D3A8     0000           add     byte ptr ds:[eax], al
0012D3AA     0000           add     byte ptr ds:[eax], al
0012D3AC     0000           add     byte ptr ds:[eax], al
0012D3AE     0000           add     byte ptr ds:[eax], al
0012D3B0     0000           add     byte ptr ds:[eax], al
0012D3B2     0000           add     byte ptr ds:[eax], al
0012D3B4     0000           add     byte ptr ds:[eax], al
0012D3B6     0000           add     byte ptr ds:[eax], al
0012D3B8     0000           add     byte ptr ds:[eax], al
0012D3BA     0000           add     byte ptr ds:[eax], al
0012D3BC     0000           add     byte ptr ds:[eax], al
0012D3BE     0000           add     byte ptr ds:[eax], al
0012D3C0     0000           add     byte ptr ds:[eax], al
0012D3C2     0000           add     byte ptr ds:[eax], al
0012D3C4     0000           add     byte ptr ds:[eax], al
0012D3C6     0000           add     byte ptr ds:[eax], al
0012D3C8     0000           add     byte ptr ds:[eax], al
0012D3CA     0000           add     byte ptr ds:[eax], al
0012D3CC     0000           add     byte ptr ds:[eax], al
0012D3CE     0000           add     byte ptr ds:[eax], al
0012D3D0     0000           add     byte ptr ds:[eax], al
0012D3D2     0000           add     byte ptr ds:[eax], al
0012D3D4     0000           add     byte ptr ds:[eax], al
0012D3D6     0000           add     byte ptr ds:[eax], al
0012D3D8     0000           add     byte ptr ds:[eax], al
0012D3DA     0000           add     byte ptr ds:[eax], al
0012D3DC     0000           add     byte ptr ds:[eax], al
0012D3DE     0000           add     byte ptr ds:[eax], al
0012D3E0     0000           add     byte ptr ds:[eax], al
0012D3E2     0000           add     byte ptr ds:[eax], al
0012D3E4     0000           add     byte ptr ds:[eax], al
0012D3E6     0000           add     byte ptr ds:[eax], al
0012D3E8     0000           add     byte ptr ds:[eax], al
0012D3EA     0000           add     byte ptr ds:[eax], al
0012D3EC     0000           add     byte ptr ds:[eax], al
0012D3EE     0000           add     byte ptr ds:[eax], al
0012D3F0     0000           add     byte ptr ds:[eax], al
0012D3F2     0000           add     byte ptr ds:[eax], al
0012D3F4     0000           add     byte ptr ds:[eax], al
0012D3F6     0000           add     byte ptr ds:[eax], al
0012D3F8     0000           add     byte ptr ds:[eax], al
0012D3FA     0000           add     byte ptr ds:[eax], al
0012D3FC     0000           add     byte ptr ds:[eax], al
0012D3FE     0000           add     byte ptr ds:[eax], al
0012D400     0000           add     byte ptr ds:[eax], al
0012D402     0000           add     byte ptr ds:[eax], al
0012D404     0000           add     byte ptr ds:[eax], al
0012D406     0000           add     byte ptr ds:[eax], al
0012D408     0000           add     byte ptr ds:[eax], al
0012D40A     0000           add     byte ptr ds:[eax], al
0012D40C     0000           add     byte ptr ds:[eax], al
0012D40E     0000           add     byte ptr ds:[eax], al
0012D410     0000           add     byte ptr ds:[eax], al
0012D412     0000           add     byte ptr ds:[eax], al
0012D414     0000           add     byte ptr ds:[eax], al
0012D416     0000           add     byte ptr ds:[eax], al
0012D418     0000           add     byte ptr ds:[eax], al
0012D41A     0000           add     byte ptr ds:[eax], al
0012D41C     0000           add     byte ptr ds:[eax], al
0012D41E     0000           add     byte ptr ds:[eax], al
0012D420     0000           add     byte ptr ds:[eax], al
0012D422     0000           add     byte ptr ds:[eax], al
0012D424     0000           add     byte ptr ds:[eax], al
0012D426     0000           add     byte ptr ds:[eax], al
0012D428     0000           add     byte ptr ds:[eax], al
0012D42A     0000           add     byte ptr ds:[eax], al
0012D42C     0000           add     byte ptr ds:[eax], al
0012D42E     0000           add     byte ptr ds:[eax], al
0012D430     0000           add     byte ptr ds:[eax], al
0012D432     0000           add     byte ptr ds:[eax], al
0012D434     0000           add     byte ptr ds:[eax], al
0012D436     0000           add     byte ptr ds:[eax], al
0012D438     0000           add     byte ptr ds:[eax], al
0012D43A     0000           add     byte ptr ds:[eax], al
0012D43C     0000           add     byte ptr ds:[eax], al
0012D43E     0000           add     byte ptr ds:[eax], al
0012D440     0000           add     byte ptr ds:[eax], al
0012D442     0000           add     byte ptr ds:[eax], al
0012D444     0000           add     byte ptr ds:[eax], al
0012D446     0000           add     byte ptr ds:[eax], al
0012D448     0000           add     byte ptr ds:[eax], al
0012D44A     0000           add     byte ptr ds:[eax], al
0012D44C     0000           add     byte ptr ds:[eax], al
0012D44E     0000           add     byte ptr ds:[eax], al
0012D450     0000           add     byte ptr ds:[eax], al
0012D452     0000           add     byte ptr ds:[eax], al
0012D454     0000           add     byte ptr ds:[eax], al
0012D456     0000           add     byte ptr ds:[eax], al
0012D458     0000           add     byte ptr ds:[eax], al
0012D45A     0000           add     byte ptr ds:[eax], al
0012D45C     0000           add     byte ptr ds:[eax], al
0012D45E     0000           add     byte ptr ds:[eax], al
0012D460     0000           add     byte ptr ds:[eax], al
0012D462     0000           add     byte ptr ds:[eax], al
0012D464     0000           add     byte ptr ds:[eax], al
0012D466     14 00          adc     al, 0
0012D468     21B7 947C94D6  and     dword ptr ds:[edi+D6947C94], esi
0012D46E     1200           adc     al, byte ptr ds:[eax]
0012D470     68 9F917CFA    push    FA7C919F
0012D475     9F             lahf
0012D476     91             xchg    eax, ecx
0012D477     7C 1A          jl      short 0012D493
0012D479     0200           add     al, byte ptr ds:[eax]
0012D47B     0000           add     byte ptr ds:[eax], al
0012D47D     001400         add     byte ptr ds:[eax+eax], dl
0012D480     0100           add     dword ptr ds:[eax], eax
0012D482     0000           add     byte ptr ds:[eax], al
0012D484     0000           add     byte ptr ds:[eax], al
0012D486     0000           add     byte ptr ds:[eax], al
0012D488     0000           add     byte ptr ds:[eax], al
0012D48A     0000           add     byte ptr ds:[eax], al
0012D48C     0000           add     byte ptr ds:[eax], al
0012D48E     0000           add     byte ptr ds:[eax], al
0012D490     0000           add     byte ptr ds:[eax], al
0012D492     0000           add     byte ptr ds:[eax], al
0012D494     0000           add     byte ptr ds:[eax], al
0012D496     0000           add     byte ptr ds:[eax], al
0012D498     0000           add     byte ptr ds:[eax], al
0012D49A     14 00          adc     al, 0
0012D49C     21B7 947CC8D6  and     dword ptr ds:[edi+D6C87C94], esi
0012D4A2     1200           adc     al, byte ptr ds:[eax]
0012D4A4     68 9F917CFA    push    FA7C919F
0012D4A9     9F             lahf
0012D4AA     91             xchg    eax, ecx
0012D4AB     7C 1A          jl      short 0012D4C7
0012D4AD     0200           add     al, byte ptr ds:[eax]
0012D4AF     0000           add     byte ptr ds:[eax], al
0012D4B1     001400         add     byte ptr ds:[eax+eax], dl
0012D4B4     0100           add     dword ptr ds:[eax], eax
0012D4B6     0000           add     byte ptr ds:[eax], al
0012D4B8     0000           add     byte ptr ds:[eax], al
0012D4BA     0000           add     byte ptr ds:[eax], al
0012D4BC     0000           add     byte ptr ds:[eax], al
0012D4BE     0000           add     byte ptr ds:[eax], al
0012D4C0     0000           add     byte ptr ds:[eax], al
0012D4C2     0000           add     byte ptr ds:[eax], al
0012D4C4     0000           add     byte ptr ds:[eax], al
0012D4C6     0000           add     byte ptr ds:[eax], al
0012D4C8     0000           add     byte ptr ds:[eax], al
0012D4CA     0000           add     byte ptr ds:[eax], al
0012D4CC     78 09          js      short 0012D4D7
0012D4CE     0000           add     byte ptr ds:[eax], al
0012D4D0     0000           add     byte ptr ds:[eax], al
0012D4D2     0000           add     byte ptr ds:[eax], al
0012D4D4     B0 68          mov     al, 68
0012D4D6     14 00          adc     al, 0
0012D4D8     0000           add     byte ptr ds:[eax], al
0012D4DA     0000           add     byte ptr ds:[eax], al
0012D4DC     1E             push    ds
0012D4DD     0000           add     byte ptr ds:[eax], al
0012D4DF     0000           add     byte ptr ds:[eax], al
0012D4E1     0000           add     byte ptr ds:[eax], al
0012D4E3     0078 01        add     byte ptr ds:[eax+1], bh
0012D4E6     14 00          adc     al, 0
0012D4E8     0000           add     byte ptr ds:[eax], al
0012D4EA     0000           add     byte ptr ds:[eax], al
0012D4EC     0000           add     byte ptr ds:[eax], al
0012D4EE     0000           add     byte ptr ds:[eax], al
0012D4F0     0000           add     byte ptr ds:[eax], al
0012D4F2     0000           add     byte ptr ds:[eax], al
0012D4F4     0000           add     byte ptr ds:[eax], al
0012D4F6     0000           add     byte ptr ds:[eax], al
0012D4F8     0000           add     byte ptr ds:[eax], al
0012D4FA     0000           add     byte ptr ds:[eax], al
0012D4FC     0000           add     byte ptr ds:[eax], al
0012D4FE     0000           add     byte ptr ds:[eax], al
0012D500     0000           add     byte ptr ds:[eax], al
0012D502     0000           add     byte ptr ds:[eax], al
0012D504     0000           add     byte ptr ds:[eax], al
0012D506     0000           add     byte ptr ds:[eax], al
0012D508     40             inc     eax
0012D509     06             push    es
0012D50A     14 00          adc     al, 0
0012D50C     0000           add     byte ptr ds:[eax], al
0012D50E     0000           add     byte ptr ds:[eax], al
0012D510     0000           add     byte ptr ds:[eax], al
0012D512     0000           add     byte ptr ds:[eax], al
0012D514     0000           add     byte ptr ds:[eax], al
0012D516     0000           add     byte ptr ds:[eax], al
0012D518     0000           add     byte ptr ds:[eax], al
0012D51A     0000           add     byte ptr ds:[eax], al
0012D51C     0000           add     byte ptr ds:[eax], al
0012D51E     0000           add     byte ptr ds:[eax], al
0012D520     0000           add     byte ptr ds:[eax], al
0012D522     0000           add     byte ptr ds:[eax], al
0012D524     0000           add     byte ptr ds:[eax], al
0012D526     0000           add     byte ptr ds:[eax], al
0012D528     0000           add     byte ptr ds:[eax], al
0012D52A     0000           add     byte ptr ds:[eax], al
0012D52C     0000           add     byte ptr ds:[eax], al
0012D52E     0000           add     byte ptr ds:[eax], al
0012D530     0000           add     byte ptr ds:[eax], al
0012D532     14 00          adc     al, 0
0012D534     21B7 947C60D7  and     dword ptr ds:[edi+D7607C94], esi
0012D53A     1200           adc     al, byte ptr ds:[eax]
0012D53C     68 9F917CFA    push    FA7C919F
0012D541     9F             lahf
0012D542     91             xchg    eax, ecx
0012D543     7C 1A          jl      short 0012D55F
0012D545     0200           add     al, byte ptr ds:[eax]
0012D547     0000           add     byte ptr ds:[eax], al
0012D549     001400         add     byte ptr ds:[eax+eax], dl
0012D54C     0100           add     dword ptr ds:[eax], eax
0012D54E     0000           add     byte ptr ds:[eax], al
0012D550     78 34          js      short 0012D586
0012D552     14 00          adc     al, 0
0012D554     0000           add     byte ptr ds:[eax], al
0012D556     0000           add     byte ptr ds:[eax], al
0012D558     0000           add     byte ptr ds:[eax], al
0012D55A     0000           add     byte ptr ds:[eax], al
0012D55C     0000           add     byte ptr ds:[eax], al
0012D55E     0000           add     byte ptr ds:[eax], al
0012D560     0000           add     byte ptr ds:[eax], al
0012D562     0000           add     byte ptr ds:[eax], al
0012D564     78 09          js      short 0012D56F
0012D566     0000           add     byte ptr ds:[eax], al
0012D568     0000           add     byte ptr ds:[eax], al
0012D56A     0000           add     byte ptr ds:[eax], al
0012D56C     B0 68          mov     al, 68
0012D56E     14 00          adc     al, 0
0012D570     0000           add     byte ptr ds:[eax], al
0012D572     0000           add     byte ptr ds:[eax], al
0012D574     1E             push    ds
0012D575     0000           add     byte ptr ds:[eax], al
0012D577     0000           add     byte ptr ds:[eax], al
0012D579     0000           add     byte ptr ds:[eax], al
0012D57B     0078 01        add     byte ptr ds:[eax+1], bh
0012D57E     14 00          adc     al, 0
0012D580     78 01          js      short 0012D583
0012D582     14 00          adc     al, 0
0012D584     B8 68140000    mov     eax, 1468
0012D589     0000           add     byte ptr ds:[eax], al
0012D58B     0000           add     byte ptr ds:[eax], al
0012D58D     0000           add     byte ptr ds:[eax], al
0012D58F     0000           add     byte ptr ds:[eax], al
0012D591     0000           add     byte ptr ds:[eax], al
0012D593     0000           add     byte ptr ds:[eax], al
0012D595     0000           add     byte ptr ds:[eax], al
0012D597     0000           add     byte ptr ds:[eax], al
0012D599     0000           add     byte ptr ds:[eax], al
0012D59B     0000           add     byte ptr ds:[eax], al
0012D59D     0000           add     byte ptr ds:[eax], al
0012D59F     0040 06        add     byte ptr ds:[eax+6], al
0012D5A2     14 00          adc     al, 0
0012D5A4     0000           add     byte ptr ds:[eax], al
0012D5A6     0000           add     byte ptr ds:[eax], al
0012D5A8     0000           add     byte ptr ds:[eax], al
0012D5AA     0000           add     byte ptr ds:[eax], al
0012D5AC     0000           add     byte ptr ds:[eax], al
0012D5AE     0000           add     byte ptr ds:[eax], al
0012D5B0     0000           add     byte ptr ds:[eax], al
0012D5B2     0000           add     byte ptr ds:[eax], al
0012D5B4     0000           add     byte ptr ds:[eax], al
0012D5B6     0000           add     byte ptr ds:[eax], al
0012D5B8     0000           add     byte ptr ds:[eax], al
0012D5BA     0000           add     byte ptr ds:[eax], al
0012D5BC     0000           add     byte ptr ds:[eax], al
0012D5BE     0000           add     byte ptr ds:[eax], al
0012D5C0     47             inc     edi
0012D5C1     0000           add     byte ptr ds:[eax], al
0012D5C3     0000           add     byte ptr ds:[eax], al
0012D5C5     0000           add     byte ptr ds:[eax], al
0012D5C7     0068 34        add     byte ptr ds:[eax+34], ch
0012D5CA     14 00          adc     al, 0
0012D5CC     0000           add     byte ptr ds:[eax], al
0012D5CE     14 00          adc     al, 0
0012D5D0     21B7 947CFCD7  and     dword ptr ds:[edi+D7FC7C94], esi
0012D5D6     1200           adc     al, byte ptr ds:[eax]
0012D5D8     68 9F917CFA    push    FA7C919F
0012D5DD     9F             lahf
0012D5DE     91             xchg    eax, ecx
0012D5DF     7C 1A          jl      short 0012D5FB
0012D5E1     0200           add     al, byte ptr ds:[eax]
0012D5E3     0000           add     byte ptr ds:[eax], al
0012D5E5     001400         add     byte ptr ds:[eax+eax], dl
0012D5E8     0100           add     dword ptr ds:[eax], eax
0012D5EA     0000           add     byte ptr ds:[eax], al
0012D5EC     0000           add     byte ptr ds:[eax], al
0012D5EE     0000           add     byte ptr ds:[eax], al
0012D5F0     B8 0D000000    mov     eax, 0D
0012D5F5     0000           add     byte ptr ds:[eax], al
0012D5F7     0000           add     byte ptr ds:[eax], al
0012D5F9     0000           add     byte ptr ds:[eax], al
0012D5FB     0078 01        add     byte ptr ds:[eax+1], bh
0012D5FE     14 00          adc     al, 0
0012D600     78 09          js      short 0012D60B
0012D602     0000           add     byte ptr ds:[eax], al
0012D604     78 01          js      short 0012D607
0012D606     14 00          adc     al, 0
0012D608     B0 68          mov     al, 68
0012D60A     14 00          adc     al, 0
0012D60C     40             inc     eax
0012D60D     321400         xor     dl, byte ptr ds:[eax+eax]
0012D610     1E             push    ds
0012D611     0000           add     byte ptr ds:[eax], al
0012D613     0000           add     byte ptr ds:[eax], al
0012D615     0000           add     byte ptr ds:[eax], al
0012D617     0078 01        add     byte ptr ds:[eax+1], bh
0012D61A     14 00          adc     al, 0
0012D61C     B8 68140000    mov     eax, 1468
0012D621     0000           add     byte ptr ds:[eax], al
0012D623     0078 09        add     byte ptr ds:[eax+9], bh
0012D626     0000           add     byte ptr ds:[eax], al
0012D628     3802           cmp     byte ptr ds:[edx], al
0012D62A     0000           add     byte ptr ds:[eax], al
0012D62C     0000           add     byte ptr ds:[eax], al
0012D62E     0000           add     byte ptr ds:[eax], al
0012D630     0000           add     byte ptr ds:[eax], al
0012D632     0000           add     byte ptr ds:[eax], al
0012D634     78 01          js      short 0012D637
0012D636     14 00          adc     al, 0
0012D638     78 01          js      short 0012D63B
0012D63A     14 00          adc     al, 0
0012D63C     40             inc     eax
0012D63D     06             push    es
0012D63E     14 00          adc     al, 0
0012D640     8066 14 00     and     byte ptr ds:[esi+14], 00
0012D644     0000           add     byte ptr ds:[eax], al
0012D646     0000           add     byte ptr ds:[eax], al
0012D648     0000           add     byte ptr ds:[eax], al
0012D64A     0000           add     byte ptr ds:[eax], al
0012D64C     0000           add     byte ptr ds:[eax], al
0012D64E     0000           add     byte ptr ds:[eax], al
0012D650     47             inc     edi
0012D651     0000           add     byte ptr ds:[eax], al
0012D653     0000           add     byte ptr ds:[eax], al
0012D655     0000           add     byte ptr ds:[eax], al
0012D657     0000           add     byte ptr ds:[eax], al
0012D659     0000           add     byte ptr ds:[eax], al
0012D65B     0038           add     byte ptr ds:[eax], bh
0012D65D     0200           add     al, byte ptr ds:[eax]
0012D65F     0000           add     byte ptr ds:[eax], al
0012D661     0000           add     byte ptr ds:[eax], al
0012D663     0000           add     byte ptr ds:[eax], al
0012D665     0000           add     byte ptr ds:[eax], al
0012D667     0078 66        add     byte ptr ds:[eax+66], bh
0012D66A     14 00          adc     al, 0
0012D66C     0000           add     byte ptr ds:[eax], al
0012D66E     0300           add     eax, dword ptr ds:[eax]
0012D670     78 66          js      short 0012D6D8
0012D672     14 00          adc     al, 0
0012D674     8066 14 00     and     byte ptr ds:[esi+14], 00
0012D678     0000           add     byte ptr ds:[eax], al
0012D67A     14 00          adc     al, 0
0012D67C   ^ 78 D4          js      short 0012D652
0012D67E     1200           adc     al, byte ptr ds:[eax]
0012D680     0000           add     byte ptr ds:[eax], al
0012D682     0000           add     byte ptr ds:[eax], al
0012D684     0000           add     byte ptr ds:[eax], al
0012D686     0000           add     byte ptr ds:[eax], al
0012D688     20E9           and     cl, ch
0012D68A     90             nop
0012D68B   ^ 7C CF          jl      short 0012D65C
0012D68D     0000           add     byte ptr ds:[eax], al
0012D68F     00FF           add     bh, bh
0012D691     FF             db FF                                                    ; Unknown command
0012D692     FF00           inc     dword ptr ds:[eax]
0012D694     A8 68          test    al, 68
0012D696     14 00          adc     al, 0
0012D698     78 01          js      short 0012D69B
0012D69A     14 00          adc     al, 0
0012D69C     68 01140000    push    1401
0012D6A1     0003           add     byte ptr ds:[ebx], al
0012D6A3     0078 01        add     byte ptr ds:[eax+1], bh
0012D6A6     14 00          adc     al, 0
0012D6A8     3802           cmp     byte ptr ds:[edx], al
0012D6AA     0000           add     byte ptr ds:[eax], al
0012D6AC   ^ 7A CF          jpe     short 0012D67D
0012D6AE     90             nop
0012D6AF     7C 7B          jl      short 0012D72C
0012D6B1     8B91 7CFFFFFF  mov     edx, dword ptr ds:[ecx-84]
0012D6B7     FFEC           jmp     esp                                              ; Illegal use of register
0012D6B9     D6             salc                                                     ; Undocumented instruction or encoding
0012D6BA     1200           adc     al, byte ptr ds:[eax]
0012D6BC     0202           add     al, byte ptr ds:[edx]
0012D6BE     0000           add     byte ptr ds:[eax], al
0012D6C0     E4 D6          in      al, 0D6                                          ; I/O command
0012D6C2     1200           adc     al, byte ptr ds:[eax]
0012D6C4     16             push    ss
0012D6C5     24 91          and     al, 91
0012D6C7     7C 00          jl      short 0012D6C9
0012D6C9     001400         add     byte ptr ds:[eax+eax], dl
0012D6CC     F0:6F          lock outs dx, dword ptr ds:[esi]                         ; LOCK prefix is not allowed
0012D6CE     14 00          adc     al, 0
0012D6D0     0000           add     byte ptr ds:[eax], al
0012D6D2     14 00          adc     al, 0
0012D6D4     F0:6F          lock outs dx, dword ptr ds:[esi]                         ; LOCK prefix is not allowed
0012D6D6     14 00          adc     al, 0
0012D6D8     0100           add     dword ptr ds:[eax], eax
0012D6DA     0000           add     byte ptr ds:[eax], al
0012D6DC     40             inc     eax
0012D6DD     06             push    es
0012D6DE     14 00          adc     al, 0
0012D6E0     0200           add     al, byte ptr ds:[eax]
0012D6E2     0000           add     byte ptr ds:[eax], al
0012D6E4     18D7           sbb     bh, dl
0012D6E6     1200           adc     al, byte ptr ds:[eax]
0012D6E8     D9             db D9                                                    ; Unknown command
0012D6E9     8C91 7C020200  mov     word ptr ds:[ecx+2027C], ss
0012D6EF     00F0           add     al, dh
0012D6F1     6F             outs    dx, dword ptr ds:[esi]                           ; I/O command
0012D6F2     14 10          adc     al, 10
0012D6F4     0000           add     byte ptr ds:[eax], al
0012D6F6     0000           add     byte ptr ds:[eax], al
0012D6F8     0000           add     byte ptr ds:[eax], al
0012D6FA     14 00          adc     al, 0
0012D6FC     78 01          js      short 0012D6FF
0012D6FE     14 00          adc     al, 0
0012D700     07             pop     es                                               ; Modification of segment register
0012D701     0000           add     byte ptr ds:[eax], al
0012D703     0001           add     byte ptr ds:[ecx], al
0012D705     0000           add     byte ptr ds:[eax], al
0012D707     0078 66        add     byte ptr ds:[eax+66], bh
0012D70A     14 00          adc     al, 0
0012D70C     0202           add     al, byte ptr ds:[edx]
0012D70E     0000           add     byte ptr ds:[eax], al
0012D710     40             inc     eax
0012D711     06             push    es
0012D712     14 00          adc     al, 0
0012D714     0000           add     byte ptr ds:[eax], al
0012D716     14 00          adc     al, 0
0012D718     21B7 947C44D9  and     dword ptr ds:[edi+D9447C94], esi
0012D71E     1200           adc     al, byte ptr ds:[eax]
0012D720     68 9F917CFA    push    FA7C919F
0012D725     9F             lahf
0012D726     91             xchg    eax, ecx
0012D727     7C 20          jl      short 0012D749
0012D729     0000           add     byte ptr ds:[eax], al
0012D72B     0000           add     byte ptr ds:[eax], al
0012D72D     001400         add     byte ptr ds:[eax+eax], dl
0012D730     0100           add     dword ptr ds:[eax], eax
0012D732     0000           add     byte ptr ds:[eax], al
0012D734     68 01140020    push    20001401
0012D739     0000           add     byte ptr ds:[eax], al
0012D73B     0000           add     byte ptr ds:[eax], al
0012D73D     0000           add     byte ptr ds:[eax], al
0012D73F     0038           add     byte ptr ds:[eax], bh
0012D741     0200           add     al, byte ptr ds:[eax]
0012D743     0078 09        add     byte ptr ds:[eax+9], bh
0012D746     0000           add     byte ptr ds:[eax], al
0012D748     90             nop
0012D749     0F0000         sldt    dword ptr ds:[eax]
0012D74C     B0 68          mov     al, 68
0012D74E     14 00          adc     al, 0
0012D750     98             cwde
0012D751     70 14          jo      short 0012D767
0012D753     001E           add     byte ptr ds:[esi], bl
0012D755     0000           add     byte ptr ds:[eax], al
0012D757     0018           add     byte ptr ds:[eax], bl
0012D759     0000           add     byte ptr ds:[eax], al
0012D75B     0078 01        add     byte ptr ds:[eax+1], bh
0012D75E     14 00          adc     al, 0
0012D760     78 01          js      short 0012D763
0012D762     14 00          adc     al, 0
0012D764     E4 D7          in      al, 0D7                                          ; I/O command
0012D766     1200           adc     al, byte ptr ds:[eax]
0012D768     78 01          js      short 0012D76B
0012D76A     14 00          adc     al, 0
0012D76C     78 01          js      short 0012D76F
0012D76E     14 00          adc     al, 0
0012D770     0000           add     byte ptr ds:[eax], al
0012D772     0000           add     byte ptr ds:[eax], al
0012D774     8066 14 00     and     byte ptr ds:[esi+14], 00
0012D778     0000           add     byte ptr ds:[eax], al
0012D77A     0000           add     byte ptr ds:[eax], al
0012D77C     0000           add     byte ptr ds:[eax], al
0012D77E     14 00          adc     al, 0
0012D780     40             inc     eax
0012D781     06             push    es
0012D782     14 00          adc     al, 0
0012D784     40             inc     eax
0012D785     06             push    es
0012D786     14 00          adc     al, 0
0012D788     0100           add     dword ptr ds:[eax], eax
0012D78A     0000           add     byte ptr ds:[eax], al
0012D78C     0000           add     byte ptr ds:[eax], al
0012D78E     0000           add     byte ptr ds:[eax], al
0012D790     3802           cmp     byte ptr ds:[edx], al
0012D792     0000           add     byte ptr ds:[eax], al
0012D794     0000           add     byte ptr ds:[eax], al
0012D796     0000           add     byte ptr ds:[eax], al
0012D798     0000           add     byte ptr ds:[eax], al
0012D79A     0000           add     byte ptr ds:[eax], al
0012D79C     78 66          js      short 0012D804
0012D79E     14 00          adc     al, 0
0012D7A0     0000           add     byte ptr ds:[eax], al
0012D7A2     0000           add     byte ptr ds:[eax], al
0012D7A4     78 66          js      short 0012D80C
0012D7A6     14 00          adc     al, 0
0012D7A8     0000           add     byte ptr ds:[eax], al
0012D7AA     14 00          adc     al, 0
0012D7AC     21B7 947CD8D9  and     dword ptr ds:[edi+D9D87C94], esi
0012D7B2     1200           adc     al, byte ptr ds:[eax]
0012D7B4     68 9F917CFA    push    FA7C919F
0012D7B9     9F             lahf
0012D7BA     91             xchg    eax, ecx
0012D7BB     7C 28          jl      short 0012D7E5
0012D7BD     0900           or      dword ptr ds:[eax], eax
0012D7BF     0000           add     byte ptr ds:[eax], al
0012D7C1     001400         add     byte ptr ds:[eax+eax], dl
0012D7C4     0100           add     dword ptr ds:[eax], eax
0012D7C6     0000           add     byte ptr ds:[eax], al
0012D7C8     0000           add     byte ptr ds:[eax], al
0012D7CA     0000           add     byte ptr ds:[eax], al
0012D7CC     0000           add     byte ptr ds:[eax], al
0012D7CE     0000           add     byte ptr ds:[eax], al
0012D7D0     0000           add     byte ptr ds:[eax], al
0012D7D2     0000           add     byte ptr ds:[eax], al
0012D7D4     B8 01140001    mov     eax, 1001401
0012D7D9     0000           add     byte ptr ds:[eax], al
0012D7DB     0048 64        add     byte ptr ds:[eax+64], cl
0012D7DE     14 00          adc     al, 0
0012D7E0     78 01          js      short 0012D7E3
0012D7E2     14 00          adc     al, 0
0012D7E4     B8 6F140044    mov     eax, 4400146F
0012D7E9     B2 94          mov     dl, 94
0012D7EB     7C 01          jl      short 0012D7EE
0012D7ED     0000           add     byte ptr ds:[eax], al
0012D7EF     0020           add     byte ptr ds:[eax], ah
0012D7F1     E9 907C8064    jmp     64935486
0012D7F6     14 00          adc     al, 0
0012D7F8     78 01          js      short 0012D7FB
0012D7FA     14 00          adc     al, 0
0012D7FC     78 01          js      short 0012D7FF
0012D7FE     14 00          adc     al, 0
0012D800     A0 70140090    mov     al, byte ptr ds:[90001470]
0012D805     FD             std
0012D806     96             xchg    eax, esi
0012D807     7C 08          jl      short 0012D811
0012D809     06             push    es
0012D80A     14 00          adc     al, 0
0012D80C   ^ 74 FD          je      short 0012D80B
0012D80E     96             xchg    eax, esi
0012D80F     7C 00          jl      short 0012D811
0012D811     001400         add     byte ptr ds:[eax+eax], dl
0012D814     0000           add     byte ptr ds:[eax], al
0012D816     0000           add     byte ptr ds:[eax], al
0012D818     40             inc     eax
0012D819     06             push    es
0012D81A     14 00          adc     al, 0
0012D81C     44             inc     esp
0012D81D     DA12           ficom   dword ptr ds:[edx]
0012D81F     0068 9F        add     byte ptr ds:[eax-61], ch
0012D822     91             xchg    eax, ecx
0012D823   ^ 7C FA          jl      short 0012D81F
0012D825     9F             lahf
0012D826     91             xchg    eax, ecx
0012D827     7C 1A          jl      short 0012D843
0012D829     0200           add     al, byte ptr ds:[eax]
0012D82B     0000           add     byte ptr ds:[eax], al
0012D82D     001400         add     byte ptr ds:[eax+eax], dl
0012D830     0100           add     dword ptr ds:[eax], eax
0012D832     0000           add     byte ptr ds:[eax], al
0012D834     0100           add     dword ptr ds:[eax], eax
0012D836     0000           add     byte ptr ds:[eax], al
0012D838     0000           add     byte ptr ds:[eax], al
0012D83A     0000           add     byte ptr ds:[eax], al
0012D83C     0000           add     byte ptr ds:[eax], al
0012D83E     0000           add     byte ptr ds:[eax], al
0012D840     0000           add     byte ptr ds:[eax], al
0012D842     14 00          adc     al, 0
0012D844     21B7 947C70DA  and     dword ptr ds:[edi+DA707C94], esi
0012D84A     1200           adc     al, byte ptr ds:[eax]
0012D84C     68 9F917C00    push    7C919F
0012D851     001400         add     byte ptr ds:[eax+eax], dl
0012D854     21B7 947C80DA  and     dword ptr ds:[edi+DA807C94], esi
0012D85A     1200           adc     al, byte ptr ds:[eax]
0012D85C     68 9F917CFA    push    FA7C919F
0012D861     9F             lahf
0012D862     91             xchg    eax, ecx
0012D863     7C 20          jl      short 0012D885
0012D865     0000           add     byte ptr ds:[eax], al
0012D867     0000           add     byte ptr ds:[eax], al
0012D869     001400         add     byte ptr ds:[eax+eax], dl
0012D86C     0100           add     dword ptr ds:[eax], eax
0012D86E     0000           add     byte ptr ds:[eax], al
0012D870     0C 00          or      al, 00
0012D872     0000           add     byte ptr ds:[eax], al
0012D874     78 0C          js      short 0012D882
0012D876     0000           add     byte ptr ds:[eax], al
0012D878     0000           add     byte ptr ds:[eax], al
0012D87A     0000           add     byte ptr ds:[eax], al
0012D87C     B0 73          mov     al, 73
0012D87E     14 00          adc     al, 0
0012D880   ^ 74 FD          je      short 0012D87F
0012D882     96             xchg    eax, esi
0012D883   ^ 7C E0          jl      short 0012D865
0012D885     0B00           or      eax, dword ptr ds:[eax]
0012D887     0001           add     byte ptr ds:[ecx], al
0012D889     0000           add     byte ptr ds:[eax], al
0012D88B     0048 74        add     byte ptr ds:[eax+74], cl
0012D88E     14 00          adc     al, 0
0012D890     C001 14        rol     byte ptr ds:[ecx], 14                            ; Shift out of range
0012D893     0018           add     byte ptr ds:[eax], bl
0012D895     0000           add     byte ptr ds:[eax], al
0012D897     0000           add     byte ptr ds:[eax], al
0012D899     001400         add     byte ptr ds:[eax+eax], dl
0012D89C     21B7 947CC8DA  and     dword ptr ds:[edi+DAC87C94], esi
0012D8A2     1200           adc     al, byte ptr ds:[eax]
0012D8A4     68 9F917CFA    push    FA7C919F
0012D8A9     9F             lahf
0012D8AA     91             xchg    eax, ecx
0012D8AB     7C 20          jl      short 0012D8CD
0012D8AD     0000           add     byte ptr ds:[eax], al
0012D8AF     0000           add     byte ptr ds:[eax], al
0012D8B1     001400         add     byte ptr ds:[eax+eax], dl
0012D8B4     0100           add     dword ptr ds:[eax], eax
0012D8B6     0000           add     byte ptr ds:[eax], al
0012D8B8     2E:0000        add     byte ptr cs:[eax], al
0012D8BB     0000           add     byte ptr ds:[eax], al
0012D8BD     0000           add     byte ptr ds:[eax], al
0012D8BF     0000           add     byte ptr ds:[eax], al
0012D8C1     0000           add     byte ptr ds:[eax], al
0012D8C3     0021           add     byte ptr ds:[ecx], ah
0012D8C5     B7 94          mov     bh, 94
0012D8C7     7C 40          jl      short 0012D909
0012D8C9     0C 00          or      al, 00
0012D8CB     00B0 0A000010  add     byte ptr ds:[eax+1000000A], dh
0012D8D1     74 14          je      short 0012D8E7
0012D8D3     0078 75        add     byte ptr ds:[eax+75], bh
0012D8D6     14 00          adc     al, 0
0012D8D8     1C 00          sbb     al, 0
0012D8DA     0000           add     byte ptr ds:[eax], al
0012D8DC     1800           sbb     byte ptr ds:[eax], al
0012D8DE     0000           add     byte ptr ds:[eax], al
0012D8E0     78 01          js      short 0012D8E3
0012D8E2     14 00          adc     al, 0
0012D8E4     78 01          js      short 0012D8E7
0012D8E6     14 00          adc     al, 0
0012D8E8     1A00           sbb     al, byte ptr ds:[eax]
0012D8EA     0000           add     byte ptr ds:[eax], al
0012D8EC     0000           add     byte ptr ds:[eax], al
0012D8EE     14 00          adc     al, 0
0012D8F0     21B7 947C1CDB  and     dword ptr ds:[edi+DB1C7C94], esi
0012D8F6     1200           adc     al, byte ptr ds:[eax]
0012D8F8     68 9F917CFA    push    FA7C919F
0012D8FD     9F             lahf
0012D8FE     91             xchg    eax, ecx
0012D8FF     7C 44          jl      short 0012D945
0012D901     0000           add     byte ptr ds:[eax], al
0012D903     0000           add     byte ptr ds:[eax], al
0012D905     001400         add     byte ptr ds:[eax+eax], dl
0012D908     0100           add     dword ptr ds:[eax], eax
0012D90A     0000           add     byte ptr ds:[eax], al
0012D90C     21B7 947C38DB  and     dword ptr ds:[edi+DB387C94], esi
0012D912     1200           adc     al, byte ptr ds:[eax]
0012D914     0000           add     byte ptr ds:[eax], al
0012D916     0000           add     byte ptr ds:[eax], al
0012D918     FA             cli
0012D919     9F             lahf
0012D91A     91             xchg    eax, ecx
0012D91B     7C 10          jl      short 0012D92D
0012D91D     0000           add     byte ptr ds:[eax], al
0012D91F     0078 0A        add     byte ptr ds:[eax+0A], bh
0012D922     0000           add     byte ptr ds:[eax], al
0012D924     0100           add     dword ptr ds:[eax], eax
0012D926     0000           add     byte ptr ds:[eax], al
0012D928     D875 14        fdiv    dword ptr ss:[ebp+14]
0012D92B     0021           add     byte ptr ds:[ecx], ah
0012D92D     B7 94          mov     bh, 94
0012D92F     7C 1C          jl      short 0012D94D
0012D931     0000           add     byte ptr ds:[eax], al
0012D933     0068 9F        add     byte ptr ds:[eax-61], ch
0012D936     91             xchg    eax, ecx
0012D937     7C 78          jl      short 0012D9B1
0012D939     011400         add     dword ptr ds:[eax+eax], edx
0012D93C     68 00000000    push    0
0012D941     001400         add     byte ptr ds:[eax+eax], dl
0012D944     0100           add     dword ptr ds:[eax], eax
0012D946     0000           add     byte ptr ds:[eax], al
0012D948     1800           sbb     byte ptr ds:[eax], al
0012D94A     0000           add     byte ptr ds:[eax], al
0012D94C     1800           sbb     byte ptr ds:[eax], al
0012D94E     0000           add     byte ptr ds:[eax], al
0012D950     0000           add     byte ptr ds:[eax], al
0012D952     0000           add     byte ptr ds:[eax], al
0012D954     78 01          js      short 0012D957
0012D956     14 00          adc     al, 0
0012D958     0000           add     byte ptr ds:[eax], al
0012D95A     14 00          adc     al, 0
0012D95C     40             inc     eax
0012D95D     06             push    es
0012D95E     14 00          adc     al, 0
0012D960     78 01          js      short 0012D963
0012D962     14 00          adc     al, 0
0012D964     78 01          js      short 0012D967
0012D966     14 00          adc     al, 0
0012D968     40             inc     eax
0012D969     06             push    es
0012D96A     14 00          adc     al, 0
0012D96C     1800           sbb     byte ptr ds:[eax], al
0012D96E     0000           add     byte ptr ds:[eax], al
0012D970     78 01          js      short 0012D973
0012D972     14 00          adc     al, 0
0012D974     78 01          js      short 0012D977
0012D976     14 00          adc     al, 0
0012D978     40             inc     eax
0012D979     06             push    es
0012D97A     14 00          adc     al, 0
0012D97C     78 01          js      short 0012D97F
0012D97E     14 00          adc     al, 0
0012D980     78 01          js      short 0012D983
0012D982     14 00          adc     al, 0
0012D984     8075 14 00     xor     byte ptr ss:[ebp+14], 00
0012D988     60             pushad
0012D989     021400         add     dl, byte ptr ds:[eax+eax]
0012D98C     78 01          js      short 0012D98F
0012D98E     14 00          adc     al, 0
0012D990     58             pop     eax
0012D991     71 14          jno     short 0012D9A7
0012D993     0060 70        add     byte ptr ds:[eax+70], ah
0012D996     14 00          adc     al, 0
0012D998     40             inc     eax
0012D999     06             push    es
0012D99A     14 00          adc     al, 0
0012D99C     6F             outs    dx, dword ptr ds:[esi]                           ; I/O command
0012D99D     0000           add     byte ptr ds:[eax], al
0012D99F     0003           add     byte ptr ds:[ebx], al
0012D9A1     0000           add     byte ptr ds:[eax], al
0012D9A3     00A8 73140068  add     byte ptr ds:[eax+68001473], ch
0012D9A9     70 14          jo      short 0012D9BF
0012D9AB     0082 00000058  add     byte ptr ds:[edx+58000000], al
0012D9B1     D912           fst     dword ptr ds:[edx]
0012D9B3     0040 74        add     byte ptr ds:[eax+74], al
0012D9B6     14 00          adc     al, 0
0012D9B8     78 01          js      short 0012D9BB
0012D9BA     14 00          adc     al, 0
0012D9BC     20E9           and     cl, ch
0012D9BE     90             nop
0012D9BF   ^ 7C 8A          jl      short 0012D94B
0012D9C1     0100           add     dword ptr ds:[eax], eax
0012D9C3     0078 01        add     byte ptr ds:[eax+1], bh
0012D9C6     14 00          adc     al, 0
0012D9C8     78 01          js      short 0012D9CB
0012D9CA     14 00          adc     al, 0
0012D9CC     78 0C          js      short 0012D9DA
0012D9CE     0000           add     byte ptr ds:[eax], al
0012D9D0     78 01          js      short 0012D9D3
0012D9D2     14 00          adc     al, 0
0012D9D4     78 01          js      short 0012D9D7
0012D9D6     14 00          adc     al, 0
0012D9D8     E0 75          loopnz  short 0012DA4F
0012D9DA     14 00          adc     al, 0
0012D9DC     E0 0B          loopnz  short 0012D9E9
0012D9DE     0000           add     byte ptr ds:[eax], al
0012D9E0     78 01          js      short 0012D9E3
0012D9E2     14 00          adc     al, 0
0012D9E4     0000           add     byte ptr ds:[eax], al
0012D9E6     0000           add     byte ptr ds:[eax], al
0012D9E8     8073 14 00     xor     byte ptr ds:[ebx+14], 00
0012D9EC     78 01          js      short 0012D9EF
0012D9EE     14 00          adc     al, 0
0012D9F0     78 01          js      short 0012D9F3
0012D9F2     14 00          adc     al, 0
0012D9F4     A8 00          test    al, 00
0012D9F6     0000           add     byte ptr ds:[eax], al
0012D9F8     187414 00      sbb     byte ptr ss:[edx+esp], dh
0012D9FC     70 75          jo      short 0012DA73
0012D9FE     14 00          adc     al, 0
0012DA00     2100           and     dword ptr ds:[eax], eax
0012DA02     0000           add     byte ptr ds:[eax], al
0012DA04     3800           cmp     byte ptr ds:[eax], al
0012DA06     0000           add     byte ptr ds:[eax], al
0012DA08     07             pop     es                                               ; Modification of segment register
0012DA09     0000           add     byte ptr ds:[eax], al
0012DA0B     00841F 240078  add     byte ptr ds:[ebx+edi+1780024], al
0012DA12     14 00          adc     al, 0
0012DA14     48             dec     eax
0012DA15     75 14          jne     short 0012DA2B
0012DA17     0051 01        add     byte ptr ds:[ecx+1], dl
0012DA1A     0000           add     byte ptr ds:[eax], al
0012DA1C     8073 14 00     xor     byte ptr ds:[ebx+14], 00
0012DA20     107414 00      adc     byte ptr ss:[edx+esp], dh
0012DA24     B0 0A          mov     al, 0A
0012DA26     0000           add     byte ptr ds:[eax], al
0012DA28     107414 00      adc     byte ptr ss:[edx+esp], dh
0012DA2C     187414 00      sbb     byte ptr ss:[edx+esp], dh
0012DA30     78 01          js      short 0012DA33
0012DA32     14 00          adc     al, 0
0012DA34     78 01          js      short 0012DA37
0012DA36     14 00          adc     al, 0
0012DA38     78 01          js      short 0012DA3B
0012DA3A     14 00          adc     al, 0
0012DA3C     0000           add     byte ptr ds:[eax], al
0012DA3E     0000           add     byte ptr ds:[eax], al
0012DA40     48             dec     eax
0012DA41     75 14          jne     short 0012DA57
0012DA43     0068 01        add     byte ptr ds:[eax+1], ch
0012DA46     14 00          adc     al, 0
0012DA48     AF             scas    dword ptr es:[edi]
0012DA49     0000           add     byte ptr ds:[eax], al
0012DA4B     0000           add     byte ptr ds:[eax], al
0012DA4D     0000           add     byte ptr ds:[eax], al
0012DA4F     00D0           add     al, dl
0012DA51     75 14          jne     short 0012DA67
0012DA53     0068 01        add     byte ptr ds:[eax+1], ch
0012DA56     14 00          adc     al, 0
0012DA58     0000           add     byte ptr ds:[eax], al
0012DA5A     0300           add     eax, dword ptr ds:[eax]
0012DA5C     3800           cmp     byte ptr ds:[eax], al
0012DA5E     0000           add     byte ptr ds:[eax], al
0012DA60     8E00           mov     es, dword ptr ds:[eax]                           ; Modification of segment register
0012DA62     0000           add     byte ptr ds:[eax], al
0012DA64     93             xchg    eax, ebx
0012DA65     0000           add     byte ptr ds:[eax], al
0012DA67     0040 75        add     byte ptr ds:[eax+75], al
0012DA6A     14 00          adc     al, 0
0012DA6C     45             inc     ebp
0012DA6D     0100           add     dword ptr ds:[eax], eax
0012DA6F     0040 75        add     byte ptr ds:[eax+75], al
0012DA72     14 00          adc     al, 0
0012DA74     48             dec     eax
0012DA75     75 14          jne     short 0012DA8B
0012DA77     0078 0A        add     byte ptr ds:[eax+0A], bh
0012DA7A     0000           add     byte ptr ds:[eax], al
0012DA7C     07             pop     es                                               ; Modification of segment register
0012DA7D     0000           add     byte ptr ds:[eax], al
0012DA7F     00FA           add     dl, bh
0012DA81     9F             lahf
0012DA82     91             xchg    eax, ecx
0012DA83     7C 00          jl      short 0012DA85
0012DA85     0000           add     byte ptr ds:[eax], al
0012DA87     0078 01        add     byte ptr ds:[eax+1], bh
0012DA8A     14 00          adc     al, 0
0012DA8C     78 01          js      short 0012DA8F
0012DA8E     14 00          adc     al, 0
0012DA90     0000           add     byte ptr ds:[eax], al
0012DA92     0000           add     byte ptr ds:[eax], al
0012DA94     8075 14 00     xor     byte ptr ss:[ebp+14], 00
0012DA98     0000           add     byte ptr ds:[eax], al
0012DA9A     0000           add     byte ptr ds:[eax], al
0012DA9C     68 01140000    push    1401
0012DAA1     0003           add     byte ptr ds:[ebx], al
0012DAA3     000C00         add     byte ptr ds:[eax+eax], cl
0012DAA6     0000           add     byte ptr ds:[eax], al
0012DAA8     3800           cmp     byte ptr ds:[eax], al
0012DAAA     0000           add     byte ptr ds:[eax], al
0012DAAC     0000           add     byte ptr ds:[eax], al
0012DAAE     14 00          adc     al, 0
0012DAB0     60             pushad
0012DAB1     0000           add     byte ptr ds:[eax], al
0012DAB3     0030           add     byte ptr ds:[eax], dh
0012DAB5     0B00           or      eax, dword ptr ds:[eax]
0012DAB7     003CDB         add     byte ptr ds:[ebx*8+ebx], bh
0012DABA     1200           adc     al, byte ptr ds:[eax]
0012DABC     78 75          js      short 0012DB33
0012DABE     14 00          adc     al, 0
0012DAC0     00A0 917C7875  add     byte ptr ds:[eax+75787C91], ah
0012DAC6     14 00          adc     al, 0
0012DAC8     8075 14 00     xor     byte ptr ss:[ebp+14], 00
0012DACC     0000           add     byte ptr ds:[eax], al
0012DACE     14 00          adc     al, 0
0012DAD0     21B7 947CFCDC  and     dword ptr ds:[edi+DCFC7C94], esi
0012DAD6     1200           adc     al, byte ptr ds:[eax]
0012DAD8     68 9F917CFA    push    FA7C919F
0012DADD     9F             lahf
0012DADE     91             xchg    eax, ecx
0012DADF     7C 1A          jl      short 0012DAFB
0012DAE1     0200           add     al, byte ptr ds:[eax]
0012DAE3     0000           add     byte ptr ds:[eax], al
0012DAE5     001400         add     byte ptr ds:[eax+eax], dl
0012DAE8     0100           add     dword ptr ds:[eax], eax
0012DAEA     0000           add     byte ptr ds:[eax], al
0012DAEC     0000           add     byte ptr ds:[eax], al
0012DAEE     0000           add     byte ptr ds:[eax], al
0012DAF0     68 01140000    push    1401
0012DAF5     0000           add     byte ptr ds:[eax], al
0012DAF7     0078 01        add     byte ptr ds:[eax+1], bh
0012DAFA     14 00          adc     al, 0
0012DAFC     60             pushad
0012DAFD     0000           add     byte ptr ds:[eax], al
0012DAFF     0020           add     byte ptr ds:[eax], ah
0012DB01     0800           or      byte ptr ds:[eax], al
0012DB03     0000           add     byte ptr ds:[eax], al
0012DB05     D912           fst     dword ptr ds:[edx]
0012DB07     0008           add     byte ptr ds:[eax], cl
0012DB09     7A 14          jpe     short 0012DB1F
0012DB0B     0090 DB12001E  add     byte ptr ds:[eax+1E0012DB], dl
0012DB11     0000           add     byte ptr ds:[eax], al
0012DB13     0000           add     byte ptr ds:[eax], al
0012DB15     A0 917C7801    mov     al, byte ptr ds:[1787C91]
0012DB1A     14 00          adc     al, 0
0012DB1C     FA             cli
0012DB1D     9F             lahf
0012DB1E     91             xchg    eax, ecx
0012DB1F   ^ 7C A0          jl      short 0012DAC1
0012DB21     DB12           fist    dword ptr ds:[edx]
0012DB23     0090 FD967C08  add     byte ptr ds:[eax+87C96FD], dl
0012DB29     06             push    es
0012DB2A     14 00          adc     al, 0
0012DB2C   ^ 74 FD          je      short 0012DB2B
0012DB2E     96             xchg    eax, esi
0012DB2F     7C 00          jl      short 0012DB31
0012DB31     001400         add     byte ptr ds:[eax+eax], dl
0012DB34     0000           add     byte ptr ds:[eax], al
0012DB36     0000           add     byte ptr ds:[eax], al
0012DB38     0000           add     byte ptr ds:[eax], al
0012DB3A     14 00          adc     al, 0
0012DB3C     40             inc     eax
0012DB3D     06             push    es
0012DB3E     14 00          adc     al, 0
0012DB40     20E9           and     cl, ch
0012DB42     90             nop
0012DB43   ^ 7C 98          jl      short 0012DADD
0012DB45     FD             std
0012DB46     96             xchg    eax, esi
0012DB47     7C FF          jl      short 0012DB48
0012DB49     FF             db FF                                                    ; Unknown command
0012DB4A     FF             db FF                                                    ; Unknown command
0012DB4B     FF74FD 96      push    dword ptr ss:[edi*8+ebp-6A]
0012DB4F     7C 44          jl      short 0012DB95
0012DB51     B2 94          mov     dl, 94
0012DB53     7C 00          jl      short 0012DB55
0012DB55     001400         add     byte ptr ds:[eax+eax], dl
0012DB58     61             popad
0012DB59     0100           add     dword ptr ds:[eax], eax
0012DB5B     50             push    eax
0012DB5C     FA             cli
0012DB5D     9F             lahf
0012DB5E     91             xchg    eax, ecx
0012DB5F     7C 00          jl      short 0012DB61
0012DB61     0000           add     byte ptr ds:[eax], al
0012DB63     00CC           add     ah, cl
0012DB65     74 14          je      short 0012DB7B
0012DB67     00D0           add     al, dl
0012DB69     75 14          jne     short 0012DB7F
0012DB6B     0078 75        add     byte ptr ds:[eax+75], bh
0012DB6E     14 00          adc     al, 0
0012DB70     60             pushad
0012DB71     0000           add     byte ptr ds:[eax], al
0012DB73     0000           add     byte ptr ds:[eax], al
0012DB75     001400         add     byte ptr ds:[eax+eax], dl
0012DB78     A8 72          test    al, 72
0012DB7A     14 00          adc     al, 0
0012DB7C     0000           add     byte ptr ds:[eax], al
0012DB7E     0000           add     byte ptr ds:[eax], al
0012DB80     8075 14 00     xor     byte ptr ss:[ebp+14], 00
0012DB84     B8 74140130    mov     eax, 30011474
0012DB89     DB12           fist    dword ptr ds:[edx]
0012DB8B     0028           add     byte ptr ds:[eax], ch
0012DB8D     0000           add     byte ptr ds:[eax], al
0012DB8F     00C0           add     al, al
0012DB91     DD12           fst     qword ptr ds:[edx]
0012DB93     0020           add     byte ptr ds:[eax], ah
0012DB95     E9 907C7801    jmp     018B582A
0012DB9A     14 00          adc     al, 0
0012DB9C     FF             db FF                                                    ; Unknown command
0012DB9D     FF             db FF                                                    ; Unknown command
0012DB9E     FF             db FF                                                    ; Unknown command
0012DB9F     FF74FD 96      push    dword ptr ss:[edi*8+ebp-6A]
0012DBA3     7C 44          jl      short 0012DBE9
0012DBA5     B2 94          mov     dl, 94
0012DBA7     7C 00          jl      short 0012DBA9
0012DBA9     001400         add     byte ptr ds:[eax+eax], dl
0012DBAC     61             popad
0012DBAD     0100           add     dword ptr ds:[eax], eax
0012DBAF     50             push    eax
0012DBB0     FA             cli
0012DBB1     9F             lahf
0012DBB2     91             xchg    eax, ecx
0012DBB3     7C 78          jl      short 0012DC2D
0012DBB5     011400         add     dword ptr ds:[eax+eax], edx
0012DBB8     107A 14        adc     byte ptr ds:[edx+14], bh
0012DBBB     0000           add     byte ptr ds:[eax], al
0012DBBD     001400         add     byte ptr ds:[eax+eax], dl
0012DBC0     44             inc     esp
0012DBC1     B2 94          mov     dl, 94
0012DBC3     016CDB 12      add     dword ptr ds:[ebx*8+ebx+12], ebp
0012DBC7     0061 01        add     byte ptr ds:[ecx+1], ah
0012DBCA     0050 FC        add     byte ptr ds:[eax-4], dl
0012DBCD     DD12           fst     qword ptr ds:[edx]
0012DBCF     0020           add     byte ptr ds:[eax], ah
0012DBD1     E9 907C98FD    jmp     FDAB5866
0012DBD6     96             xchg    eax, esi
0012DBD7     7C FF          jl      short 0012DBD8
0012DBD9     FF             db FF                                                    ; Unknown command
0012DBDA     FF             db FF                                                    ; Unknown command
0012DBDB     FF74FD 96      push    dword ptr ss:[edi*8+ebp-6A]
0012DBDF     7C 44          jl      short 0012DC25
0012DBE1     B2 94          mov     dl, 94
0012DBE3     7C 00          jl      short 0012DBE5
0012DBE5     001400         add     byte ptr ds:[eax+eax], dl
0012DBE8     61             popad
0012DBE9     0100           add     dword ptr ds:[eax], eax
0012DBEB     50             push    eax
0012DBEC     FA             cli
0012DBED     9F             lahf
0012DBEE     91             xchg    eax, ecx
0012DBEF     7C 00          jl      short 0012DBF1
0012DBF1     0000           add     byte ptr ds:[eax], al
0012DBF3     0001           add     byte ptr ds:[ecx], al
0012DBF5     0000           add     byte ptr ds:[eax], al
0012DBF7     0000           add     byte ptr ds:[eax], al
0012DBF9     001400         add     byte ptr ds:[eax+eax], dl
0012DBFC     6C             ins     byte ptr es:[edi], dx                            ; I/O command
0012DBFD     DD12           fst     qword ptr ds:[edx]
0012DBFF     0014DD 120038  add     byte ptr ds:[ebx*8+380012], dl
0012DC06     0000           add     byte ptr ds:[eax], al
0012DC08     40             inc     eax
0012DC09     0000           add     byte ptr ds:[eax], al
0012DC0B     0078 DC        add     byte ptr ds:[eax-24], bh
0012DC0E     1200           adc     al, byte ptr ds:[eax]
0012DC10     07             pop     es                                               ; Modification of segment register
0012DC11     88DD           mov     ch, bl
0012DC13     77 00          ja      short 0012DC15
0012DC15     0000           add     byte ptr ds:[eax], al
0012DC17     0074DD 12      add     byte ptr ss:[ebx*8+ebp+12], dh
0012DC1B     0000           add     byte ptr ds:[eax], al
0012DC1D     0000           add     byte ptr ds:[eax], al
0012DC1F     0018           add     byte ptr ds:[eax], bl
0012DC21     63E4           arpl    sp, sp
0012DC23   ^ 77 F8          ja      short 0012DC1D
0012DC25     62E4           bound   esp, esp                                         ; Illegal use of register
0012DC27   ^ 77 FA          ja      short 0012DC23
0012DC29     0000           add     byte ptr ds:[eax], al
0012DC2B     0080 00000000  add     byte ptr ds:[eax], al
0012DC31     7A 14          jpe     short 0012DC47
0012DC33     0000           add     byte ptr ds:[eax], al
0012DC35     0000           add     byte ptr ds:[eax], al
0012DC37     0000           add     byte ptr ds:[eax], al
0012DC39     0000           add     byte ptr ds:[eax], al
0012DC3B     0000           add     byte ptr ds:[eax], al
0012DC3D     0000           add     byte ptr ds:[eax], al
0012DC3F     0000           add     byte ptr ds:[eax], al
0012DC41     0000           add     byte ptr ds:[eax], al
0012DC43     0000           add     byte ptr ds:[eax], al
0012DC45     0000           add     byte ptr ds:[eax], al
0012DC47     0000           add     byte ptr ds:[eax], al
0012DC49     0000           add     byte ptr ds:[eax], al
0012DC4B     00BF 00000000  add     byte ptr ds:[edi], bh
0012DC51     0000           add     byte ptr ds:[eax], al
0012DC53     0000           add     byte ptr ds:[eax], al
0012DC55     0000           add     byte ptr ds:[eax], al
0012DC57     0020           add     byte ptr ds:[eax], ah
0012DC59     0800           or      byte ptr ds:[eax], al
0012DC5B     0000           add     byte ptr ds:[eax], al
0012DC5D     0000           add     byte ptr ds:[eax], al
0012DC5F     0000           add     byte ptr ds:[eax], al
0012DC61     0000           add     byte ptr ds:[eax], al
0012DC63     00F8           add     al, bh
0012DC65     62E4           bound   esp, esp                                         ; Illegal use of register
0012DC67     77 78          ja      short 0012DCE1
0012DC69     011400         add     dword ptr ds:[eax+eax], edx
0012DC6C     78 01          js      short 0012DC6F
0012DC6E     14 00          adc     al, 0
0012DC70     0000           add     byte ptr ds:[eax], al
0012DC72     0000           add     byte ptr ds:[eax], al
0012DC74     D877 14        fdiv    dword ptr ds:[edi+14]
0012DC77     0094DD 1200DF  add     byte ptr ss:[ebx*8+ebp+84DF0012], dl
0012DC7E     DD77 14        fsave   ds:[edi+14]
0012DC81     DD12           fst     qword ptr ds:[edx]
0012DC83     0047 00        add     byte ptr ds:[edi], al
0012DC86     0000           add     byte ptr ds:[eax], al
0012DC88     E0 DE          loopnz  short 0012DC68
0012DC8A     1200           adc     al, byte ptr ds:[eax]
0012DC8C     3C 85          cmp     al, 85
0012DC8E     DD77 38        fsave   ds:[edi+38]
0012DC91     0200           add     al, byte ptr ds:[eax]
0012DC93     0000           add     byte ptr ds:[eax], al
0012DC95     0000           add     byte ptr ds:[eax], al
0012DC97     0000           add     byte ptr ds:[eax], al
0012DC99     0000           add     byte ptr ds:[eax], al
0012DC9B     00D0           add     al, dl
0012DC9D     77 14          ja      short 0012DCB3
0012DC9F     0000           add     byte ptr ds:[eax], al
0012DCA1     0000           add     byte ptr ds:[eax], al
0012DCA3     00D0           add     al, dl
0012DCA5     77 14          ja      short 0012DCBB
0012DCA7     00D8           add     al, bl
0012DCA9     77 14          ja      short 0012DCBF
0012DCAB     0008           add     byte ptr ds:[eax], cl
0012DCAD     71 14          jno     short 0012DCC3
0012DCAF     0060 B0        add     byte ptr ds:[eax-50], ah
0012DCB2     94             xchg    eax, esp
0012DCB3     7C 60          jl      short 0012DD15
0012DCB5     71 14          jno     short 0012DCCB
0012DCB7     0000           add     byte ptr ds:[eax], al
0012DCB9     0000           add     byte ptr ds:[eax], al
0012DCBB     00EE           add     dh, ch
0012DCBD     FE             db FE                                                    ; Unknown command
0012DCBE     EE             out     dx, al                                           ; I/O command
0012DCBF     FE00           inc     byte ptr ds:[eax]
0012DCC1     001400         add     byte ptr ds:[eax+eax], dl
0012DCC4     0871 14        or      byte ptr ds:[ecx+14], dh
0012DCC7     0000           add     byte ptr ds:[eax], al
0012DCC9     0000           add     byte ptr ds:[eax], al
0012DCCB     0000           add     byte ptr ds:[eax], al
0012DCCD     0000           add     byte ptr ds:[eax], al
0012DCCF     0068 01        add     byte ptr ds:[eax+1], ch
0012DCD2     14 00          adc     al, 0
0012DCD4     0000           add     byte ptr ds:[eax], al
0012DCD6     0300           add     eax, dword ptr ds:[eax]
0012DCD8     78 01          js      short 0012DCDB
0012DCDA     14 00          adc     al, 0
0012DCDC     3802           cmp     byte ptr ds:[edx], al
0012DCDE     0000           add     byte ptr ds:[eax], al
0012DCE0     0000           add     byte ptr ds:[eax], al
0012DCE2     14 00          adc     al, 0
0012DCE4     E0 DA          loopnz  short 0012DCC0
0012DCE6     1200           adc     al, byte ptr ds:[eax]
0012DCE8     0000           add     byte ptr ds:[eax], al
0012DCEA     14 00          adc     al, 0
0012DCEC   ^ 70 DD          jo      short 0012DCCB
0012DCEE     1200           adc     al, byte ptr ds:[eax]
0012DCF0     20E9           and     cl, ch
0012DCF2     90             nop
0012DCF3     7C 00          jl      short 0012DCF5
0012DCF5     A0 917CFFFF    mov     al, byte ptr ds:[FFFF7C91]
0012DCFA     FF             db FF                                                    ; Unknown command
0012DCFB     FF             db FF                                                    ; Unknown command
0012DCFC     FA             cli
0012DCFD     9F             lahf
0012DCFE     91             xchg    eax, ecx
0012DCFF   ^ 7C 80          jl      short 0012DC81
0012DD01     DD12           fst     qword ptr ds:[edx]
0012DD03     0090 FD967C08  add     byte ptr ds:[eax+87C96FD], dl
0012DD09     06             push    es
0012DD0A     14 00          adc     al, 0
0012DD0C   ^ 74 FD          je      short 0012DD0B
0012DD0E     96             xchg    eax, esi
0012DD0F     7C 00          jl      short 0012DD11
0012DD11     001400         add     byte ptr ds:[eax+eax], dl
0012DD14     0000           add     byte ptr ds:[eax], al
0012DD16     0000           add     byte ptr ds:[eax], al
0012DD18     0000           add     byte ptr ds:[eax], al
0012DD1A     14 00          adc     al, 0
0012DD1C     18DB           sbb     bl, bl
0012DD1E     1200           adc     al, byte ptr ds:[eax]
0012DD20     FF             db FF                                                    ; Unknown command
0012DD21     FF             db FF                                                    ; Unknown command
0012DD22     FF             db FF                                                    ; Unknown command
0012DD23     FF58 DF        call    far fword ptr ds:[eax-21]                        ; Far jump or call
0012DD26     1200           adc     al, byte ptr ds:[eax]
0012DD28     0000           add     byte ptr ds:[eax], al
0012DD2A     0000           add     byte ptr ds:[eax], al
0012DD2C     00A0 917CFFFF  add     byte ptr ds:[eax+FFFF7C91], ah
0012DD32     FF             db FF                                                    ; Unknown command
0012DD33     FF             db FF                                                    ; Unknown command
0012DD34     FA             cli
0012DD35     9F             lahf
0012DD36     91             xchg    eax, ecx
0012DD37     7C 0C          jl      short 0012DD45
0012DD39     9C             pushfd
0012DD3A     91             xchg    eax, ecx
0012DD3B     7C 00          jl      short 0012DD3D
0012DD3D     001400         add     byte ptr ds:[eax+eax], dl
0012DD40     60             pushad
0012DD41     0000           add     byte ptr ds:[eax], al
0012DD43     40             inc     eax
0012DD44     0000           add     byte ptr ds:[eax], al
0012DD46     0000           add     byte ptr ds:[eax], al
0012DD48     007A 14        add     byte ptr ds:[edx+14], bh
0012DD4B     00D0           add     al, dl
0012DD4D     77 14          ja      short 0012DD63
0012DD4F     0038           add     byte ptr ds:[eax], bh
0012DD51     0200           add     al, byte ptr ds:[eax]
0012DD53     0000           add     byte ptr ds:[eax], al
0012DD55     001400         add     byte ptr ds:[eax+eax], dl
0012DD58     0100           add     dword ptr ds:[eax], eax
0012DD5A     0000           add     byte ptr ds:[eax], al
0012DD5C     0000           add     byte ptr ds:[eax], al
0012DD5E     0000           add     byte ptr ds:[eax], al
0012DD60     D877 14        fdiv    dword ptr ds:[edi+14]
0012DD63     0000           add     byte ptr ds:[eax], al
0012DD65     0000           add     byte ptr ds:[eax], al
0012DD67     0110           add     dword ptr ds:[eax], edx
0012DD69     DD12           fst     qword ptr ds:[edx]
0012DD6B     00A0 DF1200A0  add     byte ptr ds:[eax+A00012DF], ah
0012DD71     DF12           fist    word ptr ds:[edx]
0012DD73     0020           add     byte ptr ds:[eax], ah
0012DD75     E9 907C98FD    jmp     FDAB5A0A
0012DD7A     96             xchg    eax, esi
0012DD7B     7C FF          jl      short 0012DD7C
0012DD7D     FF             db FF                                                    ; Unknown command
0012DD7E     FF             db FF                                                    ; Unknown command
0012DD7F     FF74FD 96      push    dword ptr ss:[edi*8+ebp-6A]
0012DD83     7C 44          jl      short 0012DDC9
0012DD85     B2 94          mov     dl, 94
0012DD87     7C 00          jl      short 0012DD89
0012DD89     001400         add     byte ptr ds:[eax+eax], dl
0012DD8C     61             popad
0012DD8D     0100           add     dword ptr ds:[eax], eax
0012DD8F     50             push    eax
0012DD90     FA             cli
0012DD91     9F             lahf
0012DD92     91             xchg    eax, ecx
0012DD93     7C 00          jl      short 0012DD95
0012DD95     0000           add     byte ptr ds:[eax], al
0012DD97     00F0           add     al, dh
0012DD99     E4 12          in      al, 12                                           ; I/O command
0012DD9B     0000           add     byte ptr ds:[eax], al
0012DD9D     001400         add     byte ptr ds:[eax+eax], dl
0012DDA0     0000           add     byte ptr ds:[eax], al
0012DDA2     0000           add     byte ptr ds:[eax], al
0012DDA4     B8 DD12001C    mov     eax, 1C0012DD
0012DDA9     DE12           ficom   word ptr ds:[edx]
0012DDAB     0020           add     byte ptr ds:[eax], ah
0012DDAD     E9 907C0000    jmp     00135A42
0012DDB2     0000           add     byte ptr ds:[eax], al
0012DDB4     0000           add     byte ptr ds:[eax], al
0012DDB6     14 00          adc     al, 0
0012DDB8     B4 DB          mov     ah, 0DB
0012DDBA     1200           adc     al, byte ptr ds:[eax]
0012DDBC     2C DE          sub     al, 0DE
0012DDBE     1200           adc     al, byte ptr ds:[eax]
0012DDC0     F4             hlt                                                      ; Privileged instruction
0012DDC1     DF12           fist    word ptr ds:[edx]
0012DDC3     0020           add     byte ptr ds:[eax], ah
0012DDC5     E9 907C00A0    jmp     A0135A5A
0012DDCA     91             xchg    eax, ecx
0012DDCB     7C FF          jl      short 0012DDCC
0012DDCD     FF             db FF                                                    ; Unknown command
0012DDCE     FF             db FF                                                    ; Unknown command
0012DDCF     FF             db FF                                                    ; Unknown command
0012DDD0     FA             cli
0012DDD1     9F             lahf
0012DDD2     91             xchg    eax, ecx
0012DDD3     7C 0C          jl      short 0012DDE1
0012DDD5     9C             pushfd
0012DDD6     91             xchg    eax, ecx
0012DDD7     7C 00          jl      short 0012DDD9
0012DDD9     001400         add     byte ptr ds:[eax+eax], dl
0012DDDC     60             pushad
0012DDDD     0000           add     byte ptr ds:[eax], al
0012DDDF     40             inc     eax
0012DDE0     DB01           fild    dword ptr ds:[ecx]
0012DDE2     91             xchg    eax, ecx
0012DDE3     7C 00          jl      short 0012DDE5
0012DDE5     0000           add     byte ptr ds:[eax], al
0012DDE7     001475 14001D  add     byte ptr ds:[esi*2+161D0014], dl
0012DDEE     91             xchg    eax, ecx
0012DDEF     7C 00          jl      short 0012DDF1
0012DDF1     001400         add     byte ptr ds:[eax+eax], dl
0012DDF4     F0:DB12        lock fist dword ptr ds:[edx]                             ; LOCK prefix is not allowed
0012DDF7     0060 00        add     byte ptr ds:[eax], ah
0012DDFA     0040 30        add     byte ptr ds:[eax+30], al
0012DDFD     E0 12          loopnz  short 0012DE11
0012DDFF     0020           add     byte ptr ds:[eax], ah
0012DE01     E9 907C00A0    jmp     A0135A96
0012DE06     91             xchg    eax, ecx
0012DE07     7C FF          jl      short 0012DE08
0012DE09     FF             db FF                                                    ; Unknown command
0012DE0A     FF             db FF                                                    ; Unknown command
0012DE0B     FF             db FF                                                    ; Unknown command
0012DE0C     FA             cli
0012DE0D     9F             lahf
0012DE0E     91             xchg    eax, ecx
0012DE0F     7C 0C          jl      short 0012DE1D
0012DE11     9C             pushfd
0012DE12     91             xchg    eax, ecx
0012DE13     7C 00          jl      short 0012DE15
0012DE15     001400         add     byte ptr ds:[eax+eax], dl
0012DE18     60             pushad
0012DE19     0000           add     byte ptr ds:[eax], al
0012DE1B     40             inc     eax
0012DE1C     DB01           fild    dword ptr ds:[ecx]
0012DE1E     91             xchg    eax, ecx
0012DE1F     7C 01          jl      short 0012DE22
0012DE21     0000           add     byte ptr ds:[eax], al
0012DE23     0001           add     byte ptr ds:[ecx], al
0012DE25     0000           add     byte ptr ds:[eax], al
0012DE27     001D 16917CC4  add     byte ptr ds:[C47C9116], bl
0012DE2D     05 977CFCBA    add     eax, BAFC7C97
0012DE32     94             xchg    eax, esp
0012DE33     7C 00          jl      short 0012DE35
0012DE35     001400         add     byte ptr ds:[eax+eax], dl
0012DE38     61             popad
0012DE39     0000           add     byte ptr ds:[eax], al
0012DE3B     50             push    eax
0012DE3C     CB             retf                                                     ; Far jump or call
0012DE3D     A3 917C0000    mov     dword ptr ds:[7C91], eax
0012DE42     14 00          adc     al, 0
0012DE44     1071 14        adc     byte ptr ds:[ecx+14], dh
0012DE47     0060 00        add     byte ptr ds:[eax], ah
0012DE4A     0040 00        add     byte ptr ds:[eax], al
0012DE4D     0000           add     byte ptr ds:[eax], al
0012DE4F     0000           add     byte ptr ds:[eax], al
0012DE51     0000           add     byte ptr ds:[eax], al
0012DE53     0000           add     byte ptr ds:[eax], al
0012DE55     0000           add     byte ptr ds:[eax], al
0012DE57     0000           add     byte ptr ds:[eax], al
0012DE59     0000           add     byte ptr ds:[eax], al
0012DE5B     0000           add     byte ptr ds:[eax], al
0012DE5D     0000           add     byte ptr ds:[eax], al
0012DE5F     0000           add     byte ptr ds:[eax], al
0012DE61     0000           add     byte ptr ds:[eax], al
0012DE63     0000           add     byte ptr ds:[eax], al
0012DE65     0000           add     byte ptr ds:[eax], al
0012DE67     0000           add     byte ptr ds:[eax], al
0012DE69     0000           add     byte ptr ds:[eax], al
0012DE6B     0000           add     byte ptr ds:[eax], al
0012DE6D     0000           add     byte ptr ds:[eax], al
0012DE6F     0000           add     byte ptr ds:[eax], al
0012DE71     0000           add     byte ptr ds:[eax], al
0012DE73     0000           add     byte ptr ds:[eax], al
0012DE75     0000           add     byte ptr ds:[eax], al
0012DE77     0000           add     byte ptr ds:[eax], al
0012DE79     001400         add     byte ptr ds:[eax+eax], dl
0012DE7C     21B7 947CA8E0  and     dword ptr ds:[edi+E0A87C94], esi
0012DE82     1200           adc     al, byte ptr ds:[eax]
0012DE84     68 9F917CFA    push    FA7C919F
0012DE89     9F             lahf
0012DE8A     91             xchg    eax, ecx
0012DE8B     7C 00          jl      short 0012DE8D
0012DE8D     0200           add     al, byte ptr ds:[eax]
0012DE8F     0000           add     byte ptr ds:[eax], al
0012DE91     001400         add     byte ptr ds:[eax+eax], dl
0012DE94     0100           add     dword ptr ds:[eax], eax
0012DE96     0000           add     byte ptr ds:[eax], al
0012DE98     0000           add     byte ptr ds:[eax], al
0012DE9A     0000           add     byte ptr ds:[eax], al
0012DE9C     0000           add     byte ptr ds:[eax], al
0012DE9E     0000           add     byte ptr ds:[eax], al
0012DEA0     0000           add     byte ptr ds:[eax], al
0012DEA2     0000           add     byte ptr ds:[eax], al
0012DEA4     0000           add     byte ptr ds:[eax], al
0012DEA6     0000           add     byte ptr ds:[eax], al
0012DEA8     0000           add     byte ptr ds:[eax], al
0012DEAA     0000           add     byte ptr ds:[eax], al
0012DEAC     180A           sbb     byte ptr ds:[edx], cl
0012DEAE     0000           add     byte ptr ds:[eax], al
0012DEB0     0000           add     byte ptr ds:[eax], al
0012DEB2     0000           add     byte ptr ds:[eax], al
0012DEB4     F0:77 14       lock ja short 0012DECB                                   ; LOCK prefix is not allowed
0012DEB7     0000           add     byte ptr ds:[eax], al
0012DEB9     0000           add     byte ptr ds:[eax], al
0012DEBB     0018           add     byte ptr ds:[eax], bl
0012DEBD     0000           add     byte ptr ds:[eax], al
0012DEBF     006E D9        add     byte ptr ds:[esi-27], ch
0012DEC2     90             nop
0012DEC3     7C 78          jl      short 0012DF3D
0012DEC5     011400         add     dword ptr ds:[eax+eax], edx
0012DEC8     F8             clc
0012DEC9     DE12           ficom   word ptr ds:[edx]
0012DECB     005CF6 90      add     byte ptr ds:[esi*8+esi-70], bl
0012DECF     7C 61          jl      short 0012DF32
0012DED1     F690 7CF91591  not     byte ptr ds:[eax+9115F97C]
0012DED7   ^ 7C B4          jl      short 0012DE8D
0012DED9     72 14          jb      short 0012DEEF
0012DEDB     0080 73140000  add     byte ptr ds:[eax+1473], al
0012DEE1     0000           add     byte ptr ds:[eax], al
0012DEE3     0000           add     byte ptr ds:[eax], al
0012DEE5     001400         add     byte ptr ds:[eax+eax], dl
0012DEE8     40             inc     eax
0012DEE9     06             push    es
0012DEEA     14 00          adc     al, 0
0012DEEC     14 E1          adc     al, 0E1
0012DEEE     1200           adc     al, byte ptr ds:[eax]
0012DEF0     68 9F917CFA    push    FA7C919F
0012DEF5     9F             lahf
0012DEF6     91             xchg    eax, ecx
0012DEF7     7C 00          jl      short 0012DEF9
0012DEF9     0200           add     al, byte ptr ds:[eax]
0012DEFB     0000           add     byte ptr ds:[eax], al
0012DEFD     001400         add     byte ptr ds:[eax+eax], dl
0012DF00     0100           add     dword ptr ds:[eax], eax
0012DF02     0000           add     byte ptr ds:[eax], al
0012DF04     0000           add     byte ptr ds:[eax], al
0012DF06     0000           add     byte ptr ds:[eax], al
0012DF08     1D 16917C00    sbb     eax, 7C9116
0012DF0D     0000           add     byte ptr ds:[eax], al
0012DF0F     0000           add     byte ptr ds:[eax], al
0012DF11     DF12           fist    word ptr ds:[edx]
0012DF13     0068 00        add     byte ptr ds:[eax], ch
0012DF16     0000           add     byte ptr ds:[eax], al
0012DF18     180A           sbb     byte ptr ds:[edx], cl
0012DF1A     0000           add     byte ptr ds:[eax], al
0012DF1C     20E9           and     cl, ch
0012DF1E     90             nop
0012DF1F   ^ 7C F0          jl      short 0012DF11
0012DF21     77 14          ja      short 0012DF37
0012DF23     0000           add     byte ptr ds:[eax], al
0012DF25     0000           add     byte ptr ds:[eax], al
0012DF27     0018           add     byte ptr ds:[eax], bl
0012DF29     0000           add     byte ptr ds:[eax], al
0012DF2B     00F9           add     cl, bh
0012DF2D     15 917C7801    adc     eax, 1787C91
0012DF32     14 00          adc     al, 0
0012DF34     48             dec     eax
0012DF35     75 14          jne     short 0012DF4B
0012DF37     0000           add     byte ptr ds:[eax], al
0012DF39     0000           add     byte ptr ds:[eax], al
0012DF3B     001D 16917C38  add     byte ptr ds:[387C9116], bl
0012DF41     DD12           fst     qword ptr ds:[edx]
0012DF43     0000           add     byte ptr ds:[eax], al
0012DF45     0000           add     byte ptr ds:[eax], al
0012DF47     008CDF 000000  add     byte ptr ds:[ebx*8+edi], cl
0012DF4E     14 00          adc     al, 0
0012DF50     48             dec     eax
0012DF51     DD12           fst     qword ptr ds:[edx]
0012DF53     0040 06        add     byte ptr ds:[eax+6], al
0012DF56     14 00          adc     al, 0
0012DF58     00F0           add     al, dh
0012DF5A     FD             std
0012DF5B     7F 00          jg      short 0012DF5D
0012DF5D     0000           add     byte ptr ds:[eax], al
0012DF5F     0078 01        add     byte ptr ds:[eax+1], bh
0012DF62     14 00          adc     al, 0
0012DF64     F8             clc
0012DF65     77 14          ja      short 0012DF7B
0012DF67     00F8           add     al, bh
0012DF69     0040 00        add     byte ptr ds:[eax], al
0012DF6C     00A0 FD7F1415  add     byte ptr ds:[eax+15147FFD], ah
0012DF72     91             xchg    eax, ecx
0012DF73     7C 00          jl      short 0012DF75
0012DF75     0000           add     byte ptr ds:[eax], al
0012DF77     0000           add     byte ptr ds:[eax], al
0012DF79     000400         add     byte ptr ds:[eax+eax], al
0012DF7C     0000           add     byte ptr ds:[eax], al
0012DF7E     0000           add     byte ptr ds:[eax], al
0012DF80     0000           add     byte ptr ds:[eax], al
0012DF82     0000           add     byte ptr ds:[eax], al
0012DF84     0000           add     byte ptr ds:[eax], al
0012DF86     0000           add     byte ptr ds:[eax], al
0012DF88     34 DF          xor     al, DF
0012DF8A     1200           adc     al, byte ptr ds:[eax]
0012DF8C     00F0           add     al, dh
0012DF8E     FD             std
0012DF8F     7F 5C          jg      short 0012DFED
0012DF91     E0 00          loopnz  short 0012DF93
0012DF93     0000           add     byte ptr ds:[eax], al
0012DF95     001400         add     byte ptr ds:[eax+eax], dl
0012DF98     94             xchg    eax, esp
0012DF99     DD12           fst     qword ptr ds:[edx]
0012DF9B     00FF           add     bh, bh
0012DF9D     FF             db FF                                                    ; Unknown command
0012DF9E     FF             db FF                                                    ; Unknown command
0012DF9F     FFD4           call    esp
0012DFA1     E1 12          loopz   short 0012DFB5
0012DFA3     0020           add     byte ptr ds:[eax], ah
0012DFA5     E9 907C00A0    jmp     A0135C3A
0012DFAA     91             xchg    eax, ecx
0012DFAB     7C FF          jl      short 0012DFAC
0012DFAD     FF             db FF                                                    ; Unknown command
0012DFAE     FF             db FF                                                    ; Unknown command
0012DFAF     FF             db FF                                                    ; Unknown command
0012DFB0     FA             cli
0012DFB1     9F             lahf
0012DFB2     91             xchg    eax, ecx
0012DFB3     7C 0C          jl      short 0012DFC1
0012DFB5     9C             pushfd
0012DFB6     91             xchg    eax, ecx
0012DFB7     7C 00          jl      short 0012DFB9
0012DFB9     001400         add     byte ptr ds:[eax+eax], dl
0012DFBC     60             pushad
0012DFBD     0000           add     byte ptr ds:[eax], al
0012DFBF     40             inc     eax
0012DFC0     DB01           fild    dword ptr ds:[ecx]
0012DFC2     91             xchg    eax, ecx
0012DFC3     7C 00          jl      short 0012DFC5
0012DFC5     0000           add     byte ptr ds:[eax], al
0012DFC7     00F0           add     al, dh
0012DFC9     E4 12          in      al, 12                                           ; I/O command
0012DFCB     00E4           add     ah, ah
0012DFCD     E4 12          in      al, 12                                           ; I/O command
0012DFCF     0000           add     byte ptr ds:[eax], al
0012DFD1     0000           add     byte ptr ds:[eax], al
0012DFD3     00F0           add     al, dh
0012DFD5     DF12           fist    word ptr ds:[edx]
0012DFD7     0099 51917C18  add     byte ptr ds:[ecx+187C9151], bl
0012DFDD     E0 12          loopnz  short 0012DFF1
0012DFDF     00E4           add     ah, ah
0012DFE1     0013           add     byte ptr ds:[ebx], dl
0012DFE3     000400         add     byte ptr ds:[eax+eax], al
0012DFE6     0000           add     byte ptr ds:[eax], al
0012DFE8     D4 00          aam     0
0012DFEA     1300           adc     eax, dword ptr ds:[eax]
0012DFEC     0000           add     byte ptr ds:[eax], al
0012DFEE     1300           adc     eax, dword ptr ds:[eax]
0012DFF0     30E0           xor     al, ah
0012DFF2     1200           adc     al, byte ptr ds:[eax]
0012DFF4     8B53 91        mov     edx, dword ptr ds:[ebx-6F]
0012DFF7     7C 18          jl      short 0012E011
0012DFF9     E0 12          loopnz  short 0012E00D
0012DFFB     00D4           add     ah, dl
0012DFFD     0013           add     byte ptr ds:[ebx], dl
0012DFFF     0000           add     byte ptr ds:[eax], al
0012E001     0000           add     byte ptr ds:[eax], al
0012E003     0010           add     byte ptr ds:[eax], dl
0012E005     0000           add     byte ptr ds:[eax], al
0012E007     0000           add     byte ptr ds:[eax], al
0012E009     0000           add     byte ptr ds:[eax], al
0012E00B     00B4E0 1200A4  add     byte ptr ds:[eax+10A40012], dh
0012E012     1300           adc     eax, dword ptr ds:[eax]
0012E014     D4 57          aam     57
0012E016     68 F468E012    push    12E068F4
0012E01B     0021           add     byte ptr ds:[ecx], ah
0012E01D     57             push    edi
0012E01E     91             xchg    eax, ecx
0012E01F     7C 4C          jl      short 0012E06D
0012E021     E1 12          loopz   short 0012E035
0012E023     0000           add     byte ptr ds:[eax], al
0012E025     0000           add     byte ptr ds:[eax], al
0012E027     0001           add     byte ptr ds:[ecx], al
0012E029     0000           add     byte ptr ds:[eax], al
0012E02B     00BCE0 1200A4  add     byte ptr ds:[eax+10A40012], bh
0012E032     1300           adc     eax, dword ptr ds:[eax]
0012E034     0800           or      byte ptr ds:[eax], al
0012E036     15 C0F8FBFD    adc     eax, FDFBF8C0
0012E03B     7F 48          jg      short 0012E085
0012E03D     1F             pop     ds                                               ; Modification of segment register
0012E03E     24 00          and     al, 00
0012E040     841F           test    byte ptr ds:[edi], bl
0012E042     24 00          and     al, 00
0012E044     00E3           add     bl, ah
0012E046     1200           adc     al, byte ptr ds:[eax]
0012E048     D5 5E          aad     5E
0012E04A     91             xchg    eax, ecx
0012E04B     7C 1E          jl      short 0012E06B
0012E04D     04 92          add     al, 92
0012E04F     7C 12          jl      short 0012E063
0012E051     FC             cld
0012E052     FD             std
0012E053     7F 0C          jg      short 0012E061
0012E055     5F             pop     edi
0012E056     91             xchg    eax, ecx
0012E057   ^ 7C F8          jl      short 0012E051
0012E059     FB             sti
0012E05A     FD             std
0012E05B     7F 58          jg      short 0012E0B5
0012E05D     25 24000000    and     eax, 00000024
0012E062     0000           add     byte ptr ds:[eax], al
0012E064     D4 E0          aam     0E0
0012E066     1200           adc     al, byte ptr ds:[eax]
0012E068     C0E0 12        shl     al, 12                                           ; Shift out of range
0012E06B     0074E0 12      add     byte ptr ds:[eax+12], dh
0012E06F     00A410 130000  add     byte ptr ds:[edx+eax+13], ah
0012E076     0000           add     byte ptr ds:[eax], al
0012E078     C4E0           les     esp, eax                                         ; Illegal use of register
0012E07A     1200           adc     al, byte ptr ds:[eax]
0012E07C     4D             dec     ebp
0012E07D     55             push    ebp
0012E07E     91             xchg    eax, ecx
0012E07F   ^ 7C 9C          jl      short 0012E01D
0012E081     E0 12          loopnz  short 0012E095
0012E083     00E8           add     al, ch
0012E085     E2 97          loop    short 0012E01E
0012E087   ^ 7C C0          jl      short 0012E049
0012E089     E0 12          loopnz  short 0012E09D
0012E08B     00B8 E0120028  add     byte ptr ds:[eax+280012E0], bh
0012E091     E1 12          loopz   short 0012E0A5
0012E093     00F4           add     ah, dh
0012E095     E1 12          loopz   short 0012E0A9
0012E097     0000           add     byte ptr ds:[eax], al
0012E099     0000           add     byte ptr ds:[eax], al
0012E09B     0018           add     byte ptr ds:[eax], bl
0012E09D     0000           add     byte ptr ds:[eax], al
0012E09F     0003           add     byte ptr ds:[ebx], al
0012E0A1     0000           add     byte ptr ds:[eax], al
0012E0A3     009CE3 120000  add     byte ptr ds:[ebx+12], bl
0012E0AA     0000           add     byte ptr ds:[eax], al
0012E0AC     0300           add     eax, dword ptr ds:[eax]
0012E0AE     0000           add     byte ptr ds:[eax], al
0012E0B0     0200           add     al, byte ptr ds:[eax]
0012E0B2     0000           add     byte ptr ds:[eax], al
0012E0B4     0100           add     dword ptr ds:[eax], eax
0012E0B6     0000           add     byte ptr ds:[eax], al
0012E0B8     0000           add     byte ptr ds:[eax], al
0012E0BA     0000           add     byte ptr ds:[eax], al
0012E0BC     0000           add     byte ptr ds:[eax], al
0012E0BE     0000           add     byte ptr ds:[eax], al
0012E0C0     2C 03          sub     al, 3
0012E0C2     0000           add     byte ptr ds:[eax], al
0012E0C4     88E1           mov     cl, ah
0012E0C6     1200           adc     al, byte ptr ds:[eax]
0012E0C8     49             dec     ecx
0012E0C9     5C             pop     esp
0012E0CA     91             xchg    eax, ecx
0012E0CB     7C 03          jl      short 0012E0D0
0012E0CD     0000           add     byte ptr ds:[eax], al
0012E0CF     0100           add     dword ptr ds:[eax], eax
0012E0D1     0000           add     byte ptr ds:[eax], al
0012E0D3     00A410 13004C  add     byte ptr ds:[edx+eax+E14C0013], ah
0012E0DA     1200           adc     al, byte ptr ds:[eax]
0012E0DC     E8 E0120080    call    8012F3C1
0012E0E1     E3 97          jecxz   short 0012E07A
0012E0E3   ^ 7C A7          jl      short 0012E08C
0012E0E5     5C             pop     esp
0012E0E6     91             xchg    eax, ecx
0012E0E7     7C 40          jl      short 0012E129
0012E0E9     0000           add     byte ptr ds:[eax], al
0012E0EB     0000           add     byte ptr ds:[eax], al
0012E0ED     0000           add     byte ptr ds:[eax], al
0012E0EF     0000           add     byte ptr ds:[eax], al
0012E0F1     0000           add     byte ptr ds:[eax], al
0012E0F3     0000           add     byte ptr ds:[eax], al
0012E0F5     0000           add     byte ptr ds:[eax], al
0012E0F7     0000           add     byte ptr ds:[eax], al
0012E0F9     0000           add     byte ptr ds:[eax], al
0012E0FB     0000           add     byte ptr ds:[eax], al
0012E0FD     0000           add     byte ptr ds:[eax], al
0012E0FF     0000           add     byte ptr ds:[eax], al
0012E101     0000           add     byte ptr ds:[eax], al
0012E103     0000           add     byte ptr ds:[eax], al
0012E105     0000           add     byte ptr ds:[eax], al
0012E107     0000           add     byte ptr ds:[eax], al
0012E109     0000           add     byte ptr ds:[eax], al
0012E10B     0000           add     byte ptr ds:[eax], al
0012E10D     0000           add     byte ptr ds:[eax], al
0012E10F     0000           add     byte ptr ds:[eax], al
0012E111     0000           add     byte ptr ds:[eax], al
0012E113     0000           add     byte ptr ds:[eax], al
0012E115     0000           add     byte ptr ds:[eax], al
0012E117     0000           add     byte ptr ds:[eax], al
0012E119     0000           add     byte ptr ds:[eax], al
0012E11B     0000           add     byte ptr ds:[eax], al
0012E11D     0000           add     byte ptr ds:[eax], al
0012E11F     0000           add     byte ptr ds:[eax], al
0012E121     0000           add     byte ptr ds:[eax], al
0012E123     0000           add     byte ptr ds:[eax], al
0012E125     0000           add     byte ptr ds:[eax], al
0012E127     00A410 130000  add     byte ptr ds:[edx+eax+13], ah
0012E12E     0000           add     byte ptr ds:[eax], al
0012E130     0000           add     byte ptr ds:[eax], al
0012E132     0000           add     byte ptr ds:[eax], al
0012E134     4D             dec     ebp
0012E135     55             push    ebp
0012E136     91             xchg    eax, ecx
0012E137     7C 54          jl      short 0012E18D
0012E139     E1 12          loopz   short 0012E14D
0012E13B     0010           add     byte ptr ds:[eax], dl
0012E13D     E3 97          jecxz   short 0012E0D6
0012E13F     7C 78          jl      short 0012E1B9
0012E141     E1 12          loopz   short 0012E155
0012E143     0060 E1        add     byte ptr ds:[eax-1F], ah
0012E146     1200           adc     al, byte ptr ds:[eax]
0012E148     99             cdq
0012E149     51             push    ecx
0012E14A     91             xchg    eax, ecx
0012E14B   ^ 7C 88          jl      short 0012E0D5
0012E14D     E1 12          loopz   short 0012E161
0012E14F     00E4           add     ah, ah
0012E151     0013           add     byte ptr ds:[ebx], dl
0012E153     000400         add     byte ptr ds:[eax+eax], al
0012E156     0000           add     byte ptr ds:[eax], al
0012E158     D4 00          aam     0
0012E15A     1300           adc     eax, dword ptr ds:[eax]
0012E15C     0000           add     byte ptr ds:[eax], al
0012E15E     1300           adc     eax, dword ptr ds:[eax]
0012E160     A0 E112008B    mov     al, byte ptr ds:[8B0012E1]
0012E165     53             push    ebx
0012E166     91             xchg    eax, ecx
0012E167   ^ 7C 88          jl      short 0012E0F1
0012E169     E1 12          loopz   short 0012E17D
0012E16B     00D4           add     ah, dl
0012E16D     0013           add     byte ptr ds:[ebx], dl
0012E16F     0000           add     byte ptr ds:[eax], al
0012E171     0000           add     byte ptr ds:[eax], al
0012E173     0010           add     byte ptr ds:[eax], dl
0012E175     0000           add     byte ptr ds:[eax], al
0012E177     0000           add     byte ptr ds:[eax], al
0012E179     0000           add     byte ptr ds:[eax], al
0012E17B     0024E2         add     byte ptr ds:[edx], ah
0012E17E     1200           adc     al, byte ptr ds:[eax]
0012E180     A4             movs    byte ptr es:[edi], byte ptr ds:[esi]
0012E181     1013           adc     byte ptr ds:[ebx], dl
0012E183     0060 08        add     byte ptr ds:[eax+8], ah
0012E186     B0 0D          mov     al, 0D
0012E188     D8E1           fsub    st, st(1)
0012E18A     1200           adc     al, byte ptr ds:[eax]
0012E18C     2157 91        and     dword ptr ds:[edi-6F], edx
0012E18F   ^ 7C BC          jl      short 0012E14D
0012E191     E2 12          loop    short 0012E1A5
0012E193     0000           add     byte ptr ds:[eax], al
0012E195     0000           add     byte ptr ds:[eax], al
0012E197     0001           add     byte ptr ds:[ecx], al
0012E199     0000           add     byte ptr ds:[eax], al
0012E19B     002CE2         add     byte ptr ds:[edx], ch
0012E19E     1200           adc     al, byte ptr ds:[eax]
0012E1A0     A4             movs    byte ptr es:[edi], byte ptr ds:[esi]
0012E1A1     1013           adc     byte ptr ds:[ebx], dl
0012E1A3     0008           add     byte ptr ds:[eax], cl
0012E1A5     0015 C0F8FBFD  add     byte ptr ds:[FDFBF8C0], dl
0012E1AB     7F 10          jg      short 0012E1BD
0012E1AD     232400         and     esp, dword ptr ds:[eax+eax]
0012E1B0     4C             dec     esp
0012E1B1     232400         and     esp, dword ptr ds:[eax+eax]
0012E1B4   ^ 70 E4          jo      short 0012E19A
0012E1B6     1200           adc     al, byte ptr ds:[eax]
0012E1B8     D5 5E          aad     5E
0012E1BA     91             xchg    eax, ecx
0012E1BB   ^ 7C F4          jl      short 0012E1B1
0012E1BD     222400         and     ah, byte ptr ds:[eax+eax]
0012E1C0     14 FC          adc     al, 0FC
0012E1C2     FD             std
0012E1C3     7F 0C          jg      short 0012E1D1
0012E1C5     5F             pop     edi
0012E1C6     91             xchg    eax, ecx
0012E1C7   ^ 7C F8          jl      short 0012E1C1
0012E1C9     FB             sti
0012E1CA     FD             std
0012E1CB     7F 48          jg      short 0012E215
0012E1CD     1F             pop     ds                                               ; Modification of segment register
0012E1CE     24 00          and     al, 00
0012E1D0     0000           add     byte ptr ds:[eax], al
0012E1D2     0000           add     byte ptr ds:[eax], al
0012E1D4     44             inc     esp
0012E1D5     E2 12          loop    short 0012E1E9
0012E1D7     0030           add     byte ptr ds:[eax], dh
0012E1D9     E2 12          loop    short 0012E1ED
0012E1DB     00E4           add     ah, ah
0012E1DD     E1 12          loopz   short 0012E1F1
0012E1DF     00A410 130000  add     byte ptr ds:[edx+eax+13], ah
0012E1E6     0000           add     byte ptr ds:[eax], al
0012E1E8     34 E2          xor     al, E2
0012E1EA     1200           adc     al, byte ptr ds:[eax]
0012E1EC     4D             dec     ebp
0012E1ED     55             push    ebp
0012E1EE     91             xchg    eax, ecx
0012E1EF     7C 0C          jl      short 0012E1FD
0012E1F1     E2 12          loop    short 0012E205
0012E1F3     0020           add     byte ptr ds:[eax], ah
0012E1F5     E3 97          jecxz   short 0012E18E
0012E1F7     7C 30          jl      short 0012E229
0012E1F9     E2 12          loop    short 0012E20D
0012E1FB     0028           add     byte ptr ds:[eax], ch
0012E1FD     E2 12          loop    short 0012E211
0012E1FF     0098 E2120064  add     byte ptr ds:[eax+640012E2], bl
0012E205     E3 12          jecxz   short 0012E219
0012E207     0000           add     byte ptr ds:[eax], al
0012E209     0000           add     byte ptr ds:[eax], al
0012E20B     0018           add     byte ptr ds:[eax], bl
0012E20D     0000           add     byte ptr ds:[eax], al
0012E20F     0003           add     byte ptr ds:[ebx], al
0012E211     0000           add     byte ptr ds:[eax], al
0012E213     000CE5 120000  add     byte ptr ds:[12], cl
0012E21A     0000           add     byte ptr ds:[eax], al
0012E21C     0300           add     eax, dword ptr ds:[eax]
0012E21E     0000           add     byte ptr ds:[eax], al
0012E220     0200           add     al, byte ptr ds:[eax]
0012E222     0000           add     byte ptr ds:[eax], al
0012E224     0100           add     dword ptr ds:[eax], eax
0012E226     0000           add     byte ptr ds:[eax], al
0012E228     0000           add     byte ptr ds:[eax], al
0012E22A     0000           add     byte ptr ds:[eax], al
0012E22C     0000           add     byte ptr ds:[eax], al
0012E22E     0000           add     byte ptr ds:[eax], al
0012E230     2C 03          sub     al, 3
0012E232     0000           add     byte ptr ds:[eax], al
0012E234     F8             clc
0012E235     E2 12          loop    short 0012E249
0012E237     0049 5C        add     byte ptr ds:[ecx+5C], cl
0012E23A     91             xchg    eax, ecx
0012E23B     7C 03          jl      short 0012E240
0012E23D     0000           add     byte ptr ds:[eax], al
0012E23F     0100           add     dword ptr ds:[eax], eax
0012E241     0000           add     byte ptr ds:[eax], al
0012E243     00A410 1300BC  add     byte ptr ds:[edx+eax+E2BC0013], ah
0012E24A     1200           adc     al, byte ptr ds:[eax]
0012E24C     58             pop     eax
0012E24D     E2 12          loop    short 0012E261
0012E24F     0080 E3977CA7  add     byte ptr ds:[eax+A77C97E3], al
0012E255     5C             pop     esp
0012E256     91             xchg    eax, ecx
0012E257     7C 40          jl      short 0012E299
0012E259     0000           add     byte ptr ds:[eax], al
0012E25B     0000           add     byte ptr ds:[eax], al
0012E25D     0000           add     byte ptr ds:[eax], al
0012E25F     0000           add     byte ptr ds:[eax], al
0012E261     0000           add     byte ptr ds:[eax], al
0012E263     0000           add     byte ptr ds:[eax], al
0012E265     0000           add     byte ptr ds:[eax], al
0012E267     0000           add     byte ptr ds:[eax], al
0012E269     0000           add     byte ptr ds:[eax], al
0012E26B     0000           add     byte ptr ds:[eax], al
0012E26D     0000           add     byte ptr ds:[eax], al
0012E26F     0000           add     byte ptr ds:[eax], al
0012E271     0000           add     byte ptr ds:[eax], al
0012E273     0000           add     byte ptr ds:[eax], al
0012E275     0000           add     byte ptr ds:[eax], al
0012E277     0000           add     byte ptr ds:[eax], al
0012E279     0000           add     byte ptr ds:[eax], al
0012E27B     0000           add     byte ptr ds:[eax], al
0012E27D     0000           add     byte ptr ds:[eax], al
0012E27F     0000           add     byte ptr ds:[eax], al
0012E281     0000           add     byte ptr ds:[eax], al
0012E283     0000           add     byte ptr ds:[eax], al
0012E285     0000           add     byte ptr ds:[eax], al
0012E287     0000           add     byte ptr ds:[eax], al
0012E289     0000           add     byte ptr ds:[eax], al
0012E28B     0000           add     byte ptr ds:[eax], al
0012E28D     0000           add     byte ptr ds:[eax], al
0012E28F     0000           add     byte ptr ds:[eax], al
0012E291     0000           add     byte ptr ds:[eax], al
0012E293     0000           add     byte ptr ds:[eax], al
0012E295     0000           add     byte ptr ds:[eax], al
0012E297     00A410 130000  add     byte ptr ds:[edx+eax+13], ah
0012E29E     0000           add     byte ptr ds:[eax], al
0012E2A0     0000           add     byte ptr ds:[eax], al
0012E2A2     0000           add     byte ptr ds:[eax], al
0012E2A4     4D             dec     ebp
0012E2A5     55             push    ebp
0012E2A6     91             xchg    eax, ecx
0012E2A7   ^ 7C C4          jl      short 0012E26D
0012E2A9     E2 12          loop    short 0012E2BD
0012E2AB     00C0           add     al, al
0012E2AD     E2 97          loop    short 0012E246
0012E2AF   ^ 7C E8          jl      short 0012E299
0012E2B1     E2 12          loop    short 0012E2C5
0012E2B3     0024E3         add     byte ptr ds:[ebx], ah
0012E2B6     1200           adc     al, byte ptr ds:[eax]
0012E2B8     0000           add     byte ptr ds:[eax], al
0012E2BA     0000           add     byte ptr ds:[eax], al
0012E2BC     14 00          adc     al, 0
0012E2BE     0A02           or      al, byte ptr ds:[edx]
0012E2C0     00FC           add     ah, bh
0012E2C2     FD             std
0012E2C3   ^ 7F D9          jg      short 0012E29E
0012E2C5     0800           or      byte ptr ds:[eax], al
0012E2C7     0000           add     byte ptr ds:[eax], al
0012E2C9     0000           add     byte ptr ds:[eax], al
0012E2CB     005F 58        add     byte ptr ds:[edi+58], bl
0012E2CE     91             xchg    eax, ecx
0012E2CF     7C 00          jl      short 0012E2D1
0012E2D1     0002           add     byte ptr ds:[edx], al
0012E2D3     00F0           add     al, dh
0012E2D5     E2 12          loop    short 0012E2E9
0012E2D7     00F0           add     al, dh
0012E2D9     E2 12          loop    short 0012E2ED
0012E2DB     00F0           add     al, dh
0012E2DD     E2 12          loop    short 0012E2F1
0012E2DF     0002           add     byte ptr ds:[edx], al
0012E2E1     0000           add     byte ptr ds:[eax], al
0012E2E3     0002           add     byte ptr ds:[edx], al
0012E2E5     0000           add     byte ptr ds:[eax], al
0012E2E7     002C03         add     byte ptr ds:[eax+ebx], ch
0012E2EA     0000           add     byte ptr ds:[eax], al
0012E2EC     B0 E3          mov     al, 0E3
0012E2EE     1200           adc     al, byte ptr ds:[eax]
0012E2F0     0000           add     byte ptr ds:[eax], al
0012E2F2     0000           add     byte ptr ds:[eax], al
0012E2F4     D9             db D9                                                    ; Unknown command
0012E2F5     0800           or      byte ptr ds:[eax], al
0012E2F7     0060 E4        add     byte ptr ds:[eax-1C], ah
0012E2FA     1200           adc     al, byte ptr ds:[eax]
0012E2FC     98             cwde
0012E2FD     E3 12          jecxz   short 0012E311
0012E2FF     0060 E4        add     byte ptr ds:[eax-1C], ah
0012E302     1200           adc     al, byte ptr ds:[eax]
0012E304     58             pop     eax
0012E305     5B             pop     ebx
0012E306     91             xchg    eax, ecx
0012E307     7C 4C          jl      short 0012E355
0012E309     E3 12          jecxz   short 0012E31D
0012E30B     00F8           add     al, bh
0012E30D     FB             sti
0012E30E     FD             std
0012E30F     7F 48          jg      short 0012E359
0012E311     1F             pop     ds                                               ; Modification of segment register
0012E312     24 00          and     al, 00
0012E314     BD 5B917C00    mov     ebp, 7C915B
0012E319     0000           add     byte ptr ds:[eax], al
0012E31B     0080 E3977C00  add     byte ptr ds:[eax+7C97E3], al
0012E321     0000           add     byte ptr ds:[eax], al
0012E323     0000           add     byte ptr ds:[eax], al
0012E325     0000           add     byte ptr ds:[eax], al
0012E327     00F8           add     al, bh
0012E329     FB             sti
0012E32A     FD             std
0012E32B   ^ 7F BC          jg      short 0012E2E9
0012E32D     E4 12          in      al, 12                                           ; I/O command
0012E32F     0000           add     byte ptr ds:[eax], al
0012E331     0000           add     byte ptr ds:[eax], al
0012E333     0014E5 120000  add     byte ptr ds:[12], dl
0012E33A     0000           add     byte ptr ds:[eax], al
0012E33C     FC             cld
0012E33D     E5 12          in      eax, 12                                          ; I/O command
0012E33F     0000           add     byte ptr ds:[eax], al
0012E341     0000           add     byte ptr ds:[eax], al
0012E343     00BCE3 120000  add     byte ptr ds:[ebx+12], bh
0012E34A     0000           add     byte ptr ds:[eax], al
0012E34C     0000           add     byte ptr ds:[eax], al
0012E34E     0000           add     byte ptr ds:[eax], al
0012E350     0000           add     byte ptr ds:[eax], al
0012E352     0000           add     byte ptr ds:[eax], al
0012E354     14 00          adc     al, 0
0012E356     0A02           or      al, byte ptr ds:[edx]
0012E358     00FC           add     ah, bh
0012E35A     FD             std
0012E35B     7F 00          jg      short 0012E35D
0012E35D     0000           add     byte ptr ds:[eax], al
0012E35F     0000           add     byte ptr ds:[eax], al
0012E361     0000           add     byte ptr ds:[eax], al
0012E363     0000           add     byte ptr ds:[eax], al
0012E365     0000           add     byte ptr ds:[eax], al
0012E367     0000           add     byte ptr ds:[eax], al
0012E369     0000           add     byte ptr ds:[eax], al
0012E36B     0000           add     byte ptr ds:[eax], al
0012E36D     0000           add     byte ptr ds:[eax], al
0012E36F     0000           add     byte ptr ds:[eax], al
0012E371     0000           add     byte ptr ds:[eax], al
0012E373     0000           add     byte ptr ds:[eax], al
0012E375     0000           add     byte ptr ds:[eax], al
0012E377     0000           add     byte ptr ds:[eax], al
0012E379     0000           add     byte ptr ds:[eax], al
0012E37B     0000           add     byte ptr ds:[eax], al
0012E37D     0000           add     byte ptr ds:[eax], al
0012E37F     0000           add     byte ptr ds:[eax], al
0012E381     0000           add     byte ptr ds:[eax], al
0012E383     0000           add     byte ptr ds:[eax], al
0012E385     0000           add     byte ptr ds:[eax], al
0012E387     0000           add     byte ptr ds:[eax], al
0012E389     001400         add     byte ptr ds:[eax+eax], dl
0012E38C     21B7 947CB8E5  and     dword ptr ds:[edi+E5B87C94], esi
0012E392     1200           adc     al, byte ptr ds:[eax]
0012E394     68 9F917CFA    push    FA7C919F
0012E399     9F             lahf
0012E39A     91             xchg    eax, ecx
0012E39B     7C 00          jl      short 0012E39D
0012E39D     0200           add     al, byte ptr ds:[eax]
0012E39F     0000           add     byte ptr ds:[eax], al
0012E3A1     001400         add     byte ptr ds:[eax+eax], dl
0012E3A4     0100           add     dword ptr ds:[eax], eax
0012E3A6     0000           add     byte ptr ds:[eax], al
0012E3A8     68 E4120041    push    410012E4
0012E3AD     EA 907C0000 0  jmp     far 0000:00007C90                                ; Far jump or call
0012E3B4     68 E4120078    push    780012E4
0012E3B9     E4 12          in      al, 12                                           ; I/O command
0012E3BB     0018           add     byte ptr ds:[eax], bl
0012E3BD     0A00           or      al, byte ptr ds:[eax]
0012E3BF     0010           add     byte ptr ds:[eax], dl
0012E3C1     232400         and     esp, dword ptr ds:[eax+eax]
0012E3C4     F0:77 14       lock ja short 0012E3DB                                   ; LOCK prefix is not allowed
0012E3C7     007F 6E        add     byte ptr ds:[edi+6E], bh
0012E3CA     91             xchg    eax, ecx
0012E3CB     7C 18          jl      short 0012E3E5
0012E3CD     0000           add     byte ptr ds:[eax], al
0012E3CF     0086 6E917C78  add     byte ptr ds:[esi+787C916E], al
0012E3D5     011400         add     dword ptr ds:[eax+eax], edx
0012E3D8     1023           adc     byte ptr ds:[ebx], ah
0012E3DA     24 00          and     al, 00
0012E3DC     0000           add     byte ptr ds:[eax], al
0012E3DE     0000           add     byte ptr ds:[eax], al
0012E3E0     14 00          adc     al, 0
0012E3E2     0000           add     byte ptr ds:[eax], al
0012E3E4     0100           add     dword ptr ds:[eax], eax
0012E3E6     0000           add     byte ptr ds:[eax], al
0012E3E8     0000           add     byte ptr ds:[eax], al
0012E3EA     0000           add     byte ptr ds:[eax], al
0012E3EC     0000           add     byte ptr ds:[eax], al
0012E3EE     0000           add     byte ptr ds:[eax], al
0012E3F0     1000           adc     byte ptr ds:[eax], al
0012E3F2     0000           add     byte ptr ds:[eax], al
0012E3F4     FC             cld
0012E3F5     E5 12          in      eax, 12                                          ; I/O command
0012E3F7     0040 06        add     byte ptr ds:[eax+6], al
0012E3FA     14 00          adc     al, 0
0012E3FC   ^ 74 E4          je      short 0012E3E2
0012E3FE     1200           adc     al, byte ptr ds:[eax]
0012E400     0000           add     byte ptr ds:[eax], al
0012E402     0000           add     byte ptr ds:[eax], al
0012E404     0000           add     byte ptr ds:[eax], al
0012E406     0000           add     byte ptr ds:[eax], al
0012E408     0000           add     byte ptr ds:[eax], al
0012E40A     0000           add     byte ptr ds:[eax], al
0012E40C     1200           adc     al, byte ptr ds:[eax]
0012E40E     0A02           or      al, byte ptr ds:[edx]
0012E410     00FC           add     ah, bh
0012E412     FD             std
0012E413     7F 00          jg      short 0012E415
0012E415     0000           add     byte ptr ds:[eax], al
0012E417     0000           add     byte ptr ds:[eax], al
0012E419     E4 12          in      al, 12                                           ; I/O command
0012E41B     0000           add     byte ptr ds:[eax], al
0012E41D     0000           add     byte ptr ds:[eax], al
0012E41F     0000           add     byte ptr ds:[eax], al
0012E421     0000           add     byte ptr ds:[eax], al
0012E423     0000           add     byte ptr ds:[eax], al
0012E425     0000           add     byte ptr ds:[eax], al
0012E427     0000           add     byte ptr ds:[eax], al
0012E429     0000           add     byte ptr ds:[eax], al
0012E42B     0000           add     byte ptr ds:[eax], al
0012E42D     0000           add     byte ptr ds:[eax], al
0012E42F     0000           add     byte ptr ds:[eax], al
0012E431     0000           add     byte ptr ds:[eax], al
0012E433     0000           add     byte ptr ds:[eax], al
0012E435     0000           add     byte ptr ds:[eax], al
0012E437     0023           add     byte ptr ds:[ebx], ah
0012E439     0391 7C0000FD  add     edx, dword ptr ds:[ecx+FD00007C]
0012E43F     7F 20          jg      short 0012E461
0012E441     0000           add     byte ptr ds:[eax], al
0012E443     0001           add     byte ptr ds:[ecx], al
0012E445     6F             outs    dx, dword ptr ds:[esi]                           ; I/O command
0012E446     91             xchg    eax, ecx
0012E447     7C 18          jl      short 0012E461
0012E449     26:24 00       and     al, 00                                           ; Superfluous segment override prefix
0012E44C     00F0           add     al, dh
0012E44E     FD             std
0012E44F     7F 30          jg      short 0012E481
0012E451     E5 12          in      eax, 12                                          ; I/O command
0012E453     0078 01        add     byte ptr ds:[eax+1], bh
0012E456     14 00          adc     al, 0
0012E458     98             cwde
0012E459     E4 12          in      al, 12                                           ; I/O command
0012E45B     00DC           add     ah, bl
0012E45D     EA 907C20E5 1  jmp     far 0012:E5207C90                                ; Far jump or call
0012E464     41             inc     ecx
0012E465     EA 907CFFFF F  jmp     far FFFF:FFFF7C90                                ; Far jump or call
0012E46C     20E5           and     ch, ah
0012E46E     1200           adc     al, byte ptr ds:[eax]
0012E470     78 01          js      short 0012E473
0012E472     14 00          adc     al, 0
0012E474     F8             clc
0012E475     77 14          ja      short 0012E48B
0012E477     0010           add     byte ptr ds:[eax], dl
0012E479     232400         and     esp, dword ptr ds:[eax+eax]
0012E47C     0000           add     byte ptr ds:[eax], al
0012E47E     0000           add     byte ptr ds:[eax], al
0012E480     7F 6E          jg      short 0012E4F0
0012E482     91             xchg    eax, ecx
0012E483     7C 20          jl      short 0012E4A5
0012E485     E5 12          in      eax, 12                                          ; I/O command
0012E487     0086 6E917C18  add     byte ptr ds:[esi+187C916E], al
0012E48D     26:24 00       and     al, 00                                           ; Superfluous segment override prefix
0012E490     A0 27240000    mov     al, byte ptr ds:[2427]
0012E495     0000           add     byte ptr ds:[eax], al
0012E497     001400         add     byte ptr ds:[eax+eax], dl
0012E49A     0000           add     byte ptr ds:[eax], al
0012E49C     0100           add     dword ptr ds:[eax], eax
0012E49E     0000           add     byte ptr ds:[eax], al
0012E4A0     0000           add     byte ptr ds:[eax], al
0012E4A2     0000           add     byte ptr ds:[eax], al
0012E4A4     0000           add     byte ptr ds:[eax], al
0012E4A6     0000           add     byte ptr ds:[eax], al
0012E4A8     1000           adc     byte ptr ds:[eax], al
0012E4AA     0000           add     byte ptr ds:[eax], al
0012E4AC     0000           add     byte ptr ds:[eax], al
0012E4AE     0000           add     byte ptr ds:[eax], al
0012E4B0     CC             int3
0012E4B1     E8 12000A00    call    001CE4C8
0012E4B6     0B00           or      eax, dword ptr ds:[eax]
0012E4B8     E6 02          out     2, al                                            ; I/O command
0012E4BA     3976 00        cmp     dword ptr ds:[esi], esi
0012E4BD     0000           add     byte ptr ds:[eax], al
0012E4BF     0000           add     byte ptr ds:[eax], al
0012E4C1     0000           add     byte ptr ds:[eax], al
0012E4C3     004416 DD      add     byte ptr ds:[edx+esi-23], al
0012E4C7     77 00          ja      short 0012E4C9
0012E4C9     F0:FD          lock std                                                 ; LOCK prefix is not allowed
0012E4CB   ^ 7F B0          jg      short 0012E47D
0012E4CD     0239           add     bh, byte ptr ds:[ecx]
0012E4CF     76 00          jbe     short 0012E4D1
0012E4D1     3E:91          xchg    eax, ecx                                         ; Superfluous segment override prefix
0012E4D3   ^ 7C E6          jl      short 0012E4BB
0012E4D5     0239           add     bh, byte ptr ds:[ecx]
0012E4D7     76 50          jbe     short 0012E529
0012E4D9     0000           add     byte ptr ds:[eax], al
0012E4DB     00A0 27240080  add     byte ptr ds:[eax+80002427], ah
0012E4E1     0239           add     bh, byte ptr ds:[ecx]
0012E4E3   ^ 76 BB          jbe     short 0012E4A0
0012E4E5     0000           add     byte ptr ds:[eax], al
0012E4E7     007400 00      add     byte ptr ds:[eax+eax], dh
0012E4EB     00E8           add     al, ch
0012E4ED     77 14          ja      short 0012E503
0012E4EF     00F8           add     al, bh
0012E4F1     FB             sti
0012E4F2     FD             std
0012E4F3     7F 00          jg      short 0012E4F5
0012E4F5     0000           add     byte ptr ds:[eax], al
0012E4F7     0020           add     byte ptr ds:[eax], ah
0012E4F9     0000           add     byte ptr ds:[eax], al
0012E4FB     00B0 023976F8  add     byte ptr ds:[eax+F8763902], dh
0012E501     FB             sti
0012E502     FD             std
0012E503     7F 00          jg      short 0012E505
0012E505     0000           add     byte ptr ds:[eax], al
0012E507     0002           add     byte ptr ds:[edx], al
0012E509     0100           add     dword ptr ds:[eax], eax
0012E50B     0010           add     byte ptr ds:[eax], dl
0012E50D     232400         and     esp, dword ptr ds:[eax+eax]
0012E510     0000           add     byte ptr ds:[eax], al
0012E512     0000           add     byte ptr ds:[eax], al
0012E514     180A           sbb     byte ptr ds:[edx], cl
0012E516     0000           add     byte ptr ds:[eax], al
0012E518     8CE4           mov     esp, fs                                          ; Suspicious use of stack pointer
0012E51A     1200           adc     al, byte ptr ds:[eax]
0012E51C     20E9           and     cl, ch
0012E51E     90             nop
0012E51F   ^ 7C D8          jl      short 0012E4F9
0012E521     E5 12          in      eax, 12                                          ; I/O command
0012E523     0078 01        add     byte ptr ds:[eax+1], bh
0012E526     14 00          adc     al, 0
0012E528     78 01          js      short 0012E52B
0012E52A     14 00          adc     al, 0
0012E52C     0000           add     byte ptr ds:[eax], al
0012E52E     0000           add     byte ptr ds:[eax], al
0012E530     E0 75          loopnz  short 0012E5A7
0012E532     14 00          adc     al, 0
0012E534     E8 E512000D    call    0D12F81E
0012E539     6F             outs    dx, dword ptr ds:[esi]                           ; I/O command
0012E53A     91             xchg    eax, ecx
0012E53B     7C 50          jl      short 0012E58D
0012E53D     E5 12          in      eax, 12                                          ; I/O command
0012E53F     0043 00        add     byte ptr ds:[ebx], al
0012E542     0000           add     byte ptr ds:[eax], al
0012E544     16             push    ss
0012E545     0200           add     al, byte ptr ds:[eax]
0012E547     0094ED 120018  add     byte ptr ss:[ebp*8+ebp+2180012], dl
0012E54E     0000           add     byte ptr ds:[eax], al
0012E550   ^ 7C E7          jl      short 0012E539
0012E552     1200           adc     al, byte ptr ds:[eax]
0012E554   ^ 7C E7          jl      short 0012E53D
0012E556     1200           adc     al, byte ptr ds:[eax]
0012E558     D875 14        fdiv    dword ptr ss:[ebp+14]
0012E55B     00FA           add     dl, bh
0012E55D     9F             lahf
0012E55E     91             xchg    eax, ecx
0012E55F   ^ 7C D8          jl      short 0012E539
0012E561     75 14          jne     short 0012E577
0012E563     00E0           add     al, ah
0012E565     75 14          jne     short 0012E57B
0012E567     0001           add     byte ptr ds:[ecx], al
0012E569     0000           add     byte ptr ds:[eax], al
0012E56B     0009           add     byte ptr ds:[ecx], cl
0012E56D     000A           add     byte ptr ds:[edx], cl
0012E56F     00FA           add     dl, bh
0012E571     73 5E          jae     short 0012E5D1
0012E573     75 00          jne     short 0012E575
0012E575     0000           add     byte ptr ds:[eax], al
0012E577     0000           add     byte ptr ds:[eax], al
0012E579     0000           add     byte ptr ds:[eax], al
0012E57B     00DC           add     ah, bl
0012E57D     105C75 B8      adc     byte ptr ss:[esi*2+ebp-48], bl
0012E581     0000           add     byte ptr ds:[eax], al
0012E583     0000           add     byte ptr ds:[eax], al
0012E585     0000           add     byte ptr ds:[eax], al
0012E587     0000           add     byte ptr ds:[eax], al
0012E589     0000           add     byte ptr ds:[eax], al
0012E58B     0068 01        add     byte ptr ds:[eax+1], ch
0012E58E     14 00          adc     al, 0
0012E590     0000           add     byte ptr ds:[eax], al
0012E592     0300           add     eax, dword ptr ds:[eax]
0012E594     78 01          js      short 0012E597
0012E596     14 00          adc     al, 0
0012E598     1802           sbb     byte ptr ds:[edx], al
0012E59A     0000           add     byte ptr ds:[eax], al
0012E59C     0000           add     byte ptr ds:[eax], al
0012E59E     14 00          adc     al, 0
0012E5A0     9C             pushfd
0012E5A1     E3 12          jecxz   short 0012E5B5
0012E5A3     00FC           add     ah, bh
0012E5A5     64:5E          pop     esi                                              ; Superfluous segment override prefix
0012E5A7     75 2C          jne     short 0012E5D5
0012E5A9     E6 12          out     12, al                                           ; I/O command
0012E5AB     0020           add     byte ptr ds:[eax], ah
0012E5AD     E9 907C00A0    jmp     A0136242
0012E5B2     91             xchg    eax, ecx
0012E5B3     7C FF          jl      short 0012E5B4
0012E5B5     FF             db FF                                                    ; Unknown command
0012E5B6     FF             db FF                                                    ; Unknown command
0012E5B7     FF             db FF                                                    ; Unknown command
0012E5B8     FA             cli
0012E5B9     9F             lahf
0012E5BA     91             xchg    eax, ecx
0012E5BB     7C 3C          jl      short 0012E5F9
0012E5BD     E6 12          out     12, al                                           ; I/O command
0012E5BF     0090 FD967C08  add     byte ptr ds:[eax+87C96FD], dl
0012E5C5     06             push    es
0012E5C6     14 00          adc     al, 0
0012E5C8   ^ 74 FD          je      short 0012E5C7
0012E5CA     96             xchg    eax, esi
0012E5CB     7C 00          jl      short 0012E5CD
0012E5CD     001400         add     byte ptr ds:[eax+eax], dl
0012E5D0     0000           add     byte ptr ds:[eax], al
0012E5D2     0000           add     byte ptr ds:[eax], al
0012E5D4     0000           add     byte ptr ds:[eax], al
0012E5D6     14 00          adc     al, 0
0012E5D8     0100           add     dword ptr ds:[eax], eax
0012E5DA     0000           add     byte ptr ds:[eax], al
0012E5DC     20E9           and     cl, ch
0012E5DE     90             nop
0012E5DF   ^ 7C 90          jl      short 0012E571
0012E5E1     6E             outs    dx, byte ptr ds:[esi]                            ; I/O command
0012E5E2     91             xchg    eax, ecx
0012E5E3     7C 00          jl      short 0012E5E5
0012E5E5     0000           add     byte ptr ds:[eax], al
0012E5E7     0086 6E917C08  add     byte ptr ds:[esi+87C916E], al
0012E5ED     6E             outs    dx, byte ptr ds:[esi]                            ; I/O command
0012E5EE     91             xchg    eax, ecx
0012E5EF   ^ 7C E0          jl      short 0012E5D1
0012E5F1     0000           add     byte ptr ds:[eax], al
0012E5F3     0001           add     byte ptr ds:[ecx], al
0012E5F5     0000           add     byte ptr ds:[eax], al
0012E5F7     00B0 65140000  add     byte ptr ds:[eax+1465], dh
0012E5FD     0008           add     byte ptr ds:[eax], cl
0012E5FF     021C00         add     bl, byte ptr ds:[eax+eax]
0012E602     0000           add     byte ptr ds:[eax], al
0012E604     E8 771400D8    call    D812FA80
0012E609     75 14          jne     short 0012E61F
0012E60B     0018           add     byte ptr ds:[eax], bl
0012E60D     0200           add     al, byte ptr ds:[eax]
0012E60F     0000           add     byte ptr ds:[eax], al
0012E611     001400         add     byte ptr ds:[eax+eax], dl
0012E614     2066 14        and     byte ptr ds:[esi+14], ah
0012E617     0000           add     byte ptr ds:[eax], al
0012E619     0000           add     byte ptr ds:[eax], al
0012E61B     00E0           add     al, ah
0012E61D     75 14          jne     short 0012E633
0012E61F     0000           add     byte ptr ds:[eax], al
0012E621     0000           add     byte ptr ds:[eax], al
0012E623     01CC           add     esp, ecx
0012E625     E5 12          in      eax, 12                                          ; I/O command
0012E627     0000           add     byte ptr ds:[eax], al
0012E629     0000           add     byte ptr ds:[eax], al
0012E62B     005CE8 12      add     byte ptr ds:[ebp*8+eax+12], bl
0012E62F     0020           add     byte ptr ds:[eax], ah
0012E631     E9 907C98FD    jmp     FDAB62C6
0012E636     96             xchg    eax, esi
0012E637     7C FF          jl      short 0012E638
0012E639     FF             db FF                                                    ; Unknown command
0012E63A     FF             db FF                                                    ; Unknown command
0012E63B     FF74FD 96      push    dword ptr ss:[edi*8+ebp-6A]
0012E63F     7C 44          jl      short 0012E685
0012E641     B2 94          mov     dl, 94
0012E643     7C 00          jl      short 0012E645
0012E645     001400         add     byte ptr ds:[eax+eax], dl
0012E648     61             popad
0012E649     0100           add     dword ptr ds:[eax], eax
0012E64B     50             push    eax
0012E64C     FA             cli
0012E64D     9F             lahf
0012E64E     91             xchg    eax, ecx
0012E64F     7C 00          jl      short 0012E651
0012E651     0000           add     byte ptr ds:[eax], al
0012E653     0000           add     byte ptr ds:[eax], al
0012E655     0200           add     al, byte ptr ds:[eax]
0012E657     0000           add     byte ptr ds:[eax], al
0012E659     001400         add     byte ptr ds:[eax+eax], dl
0012E65C     0000           add     byte ptr ds:[eax], al
0012E65E     0000           add     byte ptr ds:[eax], al
0012E660     0000           add     byte ptr ds:[eax], al
0012E662     0000           add     byte ptr ds:[eax], al
0012E664     0000           add     byte ptr ds:[eax], al
0012E666     0000           add     byte ptr ds:[eax], al
0012E668     0000           add     byte ptr ds:[eax], al
0012E66A     0000           add     byte ptr ds:[eax], al
0012E66C     0000           add     byte ptr ds:[eax], al
0012E66E     0000           add     byte ptr ds:[eax], al
0012E670     0000           add     byte ptr ds:[eax], al
0012E672     0000           add     byte ptr ds:[eax], al
0012E674     0000           add     byte ptr ds:[eax], al
0012E676     0000           add     byte ptr ds:[eax], al
0012E678     0000           add     byte ptr ds:[eax], al
0012E67A     0000           add     byte ptr ds:[eax], al
0012E67C     40             inc     eax
0012E67D     021400         add     dl, byte ptr ds:[eax+eax]
0012E680     40             inc     eax
0012E681     0000           add     byte ptr ds:[eax], al
0012E683     00B8 65140068  add     byte ptr ds:[eax+68001465], bh
0012E689     021400         add     dl, byte ptr ds:[eax+eax]
0012E68C     0000           add     byte ptr ds:[eax], al
0012E68E     0000           add     byte ptr ds:[eax], al
0012E690     0000           add     byte ptr ds:[eax], al
0012E692     0000           add     byte ptr ds:[eax], al
0012E694     0300           add     eax, dword ptr ds:[eax]
0012E696     0000           add     byte ptr ds:[eax], al
0012E698     0000           add     byte ptr ds:[eax], al
0012E69A     0000           add     byte ptr ds:[eax], al
0012E69C     78 66          js      short 0012E704
0012E69E     14 00          adc     al, 0
0012E6A0     0000           add     byte ptr ds:[eax], al
0012E6A2     0000           add     byte ptr ds:[eax], al
0012E6A4     0000           add     byte ptr ds:[eax], al
0012E6A6     0000           add     byte ptr ds:[eax], al
0012E6A8     B6 00          mov     dh, 0
0012E6AA     0000           add     byte ptr ds:[eax], al
0012E6AC     0000           add     byte ptr ds:[eax], al
0012E6AE     0000           add     byte ptr ds:[eax], al
0012E6B0     1066 14        adc     byte ptr ds:[esi+14], ah
0012E6B3     0000           add     byte ptr ds:[eax], al
0012E6B5     0000           add     byte ptr ds:[eax], al
0012E6B7     0000           add     byte ptr ds:[eax], al
0012E6B9     0000           add     byte ptr ds:[eax], al
0012E6BB     0000           add     byte ptr ds:[eax], al
0012E6BD     0000           add     byte ptr ds:[eax], al
0012E6BF     0010           add     byte ptr ds:[eax], dl
0012E6C1     0000           add     byte ptr ds:[eax], al
0012E6C3     0000           add     byte ptr ds:[eax], al
0012E6C5     0000           add     byte ptr ds:[eax], al
0012E6C7     0000           add     byte ptr ds:[eax], al
0012E6C9     0000           add     byte ptr ds:[eax], al
0012E6CB     000C00         add     byte ptr ds:[eax+eax], cl
0012E6CE     0000           add     byte ptr ds:[eax], al
0012E6D0     0000           add     byte ptr ds:[eax], al
0012E6D2     0000           add     byte ptr ds:[eax], al
0012E6D4     0000           add     byte ptr ds:[eax], al
0012E6D6     0000           add     byte ptr ds:[eax], al
0012E6D8     B8 00000000    mov     eax, 0
0012E6DD     0000           add     byte ptr ds:[eax], al
0012E6DF     0000           add     byte ptr ds:[eax], al
0012E6E1     0000           add     byte ptr ds:[eax], al
0012E6E3     0000           add     byte ptr ds:[eax], al
0012E6E5     0000           add     byte ptr ds:[eax], al
0012E6E7     0000           add     byte ptr ds:[eax], al
0012E6E9     0000           add     byte ptr ds:[eax], al
0012E6EB     0000           add     byte ptr ds:[eax], al
0012E6ED     0000           add     byte ptr ds:[eax], al
0012E6EF     004C00 00      add     byte ptr ds:[eax+eax], cl
0012E6F3     0000           add     byte ptr ds:[eax], al
0012E6F5     0000           add     byte ptr ds:[eax], al
0012E6F7     00D8           add     al, bl
0012E6F9     011400         add     dword ptr ds:[eax+eax], edx
0012E6FC     0000           add     byte ptr ds:[eax], al
0012E6FE     0000           add     byte ptr ds:[eax], al
0012E700     0000           add     byte ptr ds:[eax], al
0012E702     0000           add     byte ptr ds:[eax], al
0012E704     0D 00000000    or      eax, 00000000
0012E709     0000           add     byte ptr ds:[eax], al
0012E70B     0000           add     byte ptr ds:[eax], al
0012E70D     0000           add     byte ptr ds:[eax], al
0012E70F     0068 00        add     byte ptr ds:[eax], ch
0012E712     0000           add     byte ptr ds:[eax], al
0012E714     0000           add     byte ptr ds:[eax], al
0012E716     0000           add     byte ptr ds:[eax], al
0012E718     B1 00          mov     cl, 0
0012E71A     0000           add     byte ptr ds:[eax], al
0012E71C     B0 65          mov     al, 65
0012E71E     14 00          adc     al, 0
0012E720     A8 65          test    al, 65
0012E722     14 00          adc     al, 0
0012E724     B0 65          mov     al, 65
0012E726     14 00          adc     al, 0
0012E728     B8 65140000    mov     eax, 1465
0012E72D     0000           add     byte ptr ds:[eax], al
0012E72F     000D 00000000  add     byte ptr ds:[0], cl
0012E735     0000           add     byte ptr ds:[eax], al
0012E737     0000           add     byte ptr ds:[eax], al
0012E739     1000           adc     byte ptr ds:[eax], al
0012E73B     0019           add     byte ptr ds:[ecx], bl
0012E73D     0000           add     byte ptr ds:[eax], al
0012E73F     0000           add     byte ptr ds:[eax], al
0012E741     0000           add     byte ptr ds:[eax], al
0012E743     0000           add     byte ptr ds:[eax], al
0012E745     0000           add     byte ptr ds:[eax], al
0012E747     0000           add     byte ptr ds:[eax], al
0012E749     0000           add     byte ptr ds:[eax], al
0012E74B     0000           add     byte ptr ds:[eax], al
0012E74D     0000           add     byte ptr ds:[eax], al
0012E74F     005C01 14      add     byte ptr ds:[eax+ecx+14], bl
0012E753     0000           add     byte ptr ds:[eax], al
0012E755     0003           add     byte ptr ds:[ebx], al
0012E757     0040 02        add     byte ptr ds:[eax+2], al
0012E75A     14 00          adc     al, 0
0012E75C     68 00000000    push    0
0012E761     001400         add     byte ptr ds:[eax+eax], dl
0012E764     D875 14        fdiv    dword ptr ss:[ebp+14]
0012E767     0060 B0        add     byte ptr ds:[eax-50], ah
0012E76A     94             xchg    eax, esp
0012E76B     7C 00          jl      short 0012E76D
0012E76D     78 14          js      short 0012E783
0012E76F     0000           add     byte ptr ds:[eax], al
0012E771     0800           or      byte ptr ds:[eax], al
0012E773     00EE           add     dh, ch
0012E775     FE             db FE                                                    ; Unknown command
0012E776     EE             out     dx, al                                           ; I/O command
0012E777     FE00           inc     byte ptr ds:[eax]
0012E779     001400         add     byte ptr ds:[eax+eax], dl
0012E77C     D875 14        fdiv    dword ptr ss:[ebp+14]
0012E77F     0000           add     byte ptr ds:[eax], al
0012E781     0000           add     byte ptr ds:[eax], al
0012E783     0070 E8        add     byte ptr ds:[eax-18], dh
0012E786     1200           adc     al, byte ptr ds:[eax]
0012E788     0000           add     byte ptr ds:[eax], al
0012E78A     0000           add     byte ptr ds:[eax], al
0012E78C   ^ 70 E8          jo      short 0012E776
0012E78E     1200           adc     al, byte ptr ds:[eax]
0012E790     51             push    ecx
0012E791     A3 917C0000    mov     dword ptr ds:[7C91], eax
0012E796     14 00          adc     al, 0
0012E798     CB             retf                                                     ; Far jump or call
0012E799     A3 917CD875    mov     dword ptr ds:[75D87C91], eax
0012E79E     14 00          adc     al, 0
0012E7A0     0000           add     byte ptr ds:[eax], al
0012E7A2     14 00          adc     al, 0
0012E7A4     E0 75          loopnz  short 0012E81B
0012E7A6     14 00          adc     al, 0
0012E7A8     0000           add     byte ptr ds:[eax], al
0012E7AA     0000           add     byte ptr ds:[eax], al
0012E7AC     0000           add     byte ptr ds:[eax], al
0012E7AE     0000           add     byte ptr ds:[eax], al
0012E7B0     0000           add     byte ptr ds:[eax], al
0012E7B2     0000           add     byte ptr ds:[eax], al
0012E7B4     0000           add     byte ptr ds:[eax], al
0012E7B6     0000           add     byte ptr ds:[eax], al
0012E7B8     0000           add     byte ptr ds:[eax], al
0012E7BA     0000           add     byte ptr ds:[eax], al
0012E7BC     E0 75          loopnz  short 0012E833
0012E7BE     14 00          adc     al, 0
0012E7C0     5C             pop     esp
0012E7C1     011400         add     dword ptr ds:[eax+eax], edx
0012E7C4     0000           add     byte ptr ds:[eax], al
0012E7C6     0300           add     eax, dword ptr ds:[eax]
0012E7C8     1066 14        adc     byte ptr ds:[esi+14], ah
0012E7CB     00B0 65140068  add     byte ptr ds:[eax+68001465], dh
0012E7D1     0000           add     byte ptr ds:[eax], al
0012E7D3     0000           add     byte ptr ds:[eax], al
0012E7D5     001400         add     byte ptr ds:[eax+eax], dl
0012E7D8     0000           add     byte ptr ds:[eax], al
0012E7DA     0000           add     byte ptr ds:[eax], al
0012E7DC     0000           add     byte ptr ds:[eax], al
0012E7DE     0000           add     byte ptr ds:[eax], al
0012E7E0     0000           add     byte ptr ds:[eax], al
0012E7E2     0000           add     byte ptr ds:[eax], al
0012E7E4     00A0 910190E7  add     byte ptr ds:[eax+E7900191], ah
0012E7EA     1200           adc     al, byte ptr ds:[eax]
0012E7EC     FA             cli
0012E7ED     9F             lahf
0012E7EE     91             xchg    eax, ecx
0012E7EF     7C 20          jl      short 0012E811
0012E7F1     EA 120020E9 9  jmp     far 7C90:E9200012                                ; Far jump or call
0012E7F8     78 01          js      short 0012E7FB
0012E7FA     14 00          adc     al, 0
0012E7FC     FF             db FF                                                    ; Unknown command
0012E7FD     FF             db FF                                                    ; Unknown command
0012E7FE     FF             db FF                                                    ; Unknown command
0012E7FF     FFD8           call    eax                                              ; Illegal use of register
0012E801     75 14          jne     short 0012E817
0012E803     0018           add     byte ptr ds:[eax], bl
0012E805     0200           add     al, byte ptr ds:[eax]
0012E807     0078 01        add     byte ptr ds:[eax+1], bh
0012E80A     14 00          adc     al, 0
0012E80C     6901 14500100  imul    eax, dword ptr ds:[ecx], 15014
0012E812     0000           add     byte ptr ds:[eax], al
0012E814     78 01          js      short 0012E817
0012E816     14 00          adc     al, 0
0012E818     0000           add     byte ptr ds:[eax], al
0012E81A     0000           add     byte ptr ds:[eax], al
0012E81C     0000           add     byte ptr ds:[eax], al
0012E81E     14 00          adc     al, 0
0012E820     0800           or      byte ptr ds:[eax], al
0012E822     15 C0000000    adc     eax, 0C0
0012E827     0000           add     byte ptr ds:[eax], al
0012E829     0000           add     byte ptr ds:[eax], al
0012E82B     0084E8 120038  add     byte ptr ds:[ebp*8+eax+E8380012], al
0012E832     1200           adc     al, byte ptr ds:[eax]
0012E834     A4             movs    byte ptr es:[edi], byte ptr ds:[esi]
0012E835     1013           adc     byte ptr ds:[ebx], dl
0012E837     0000           add     byte ptr ds:[eax], al
0012E839     001400         add     byte ptr ds:[eax+eax], dl
0012E83C     CB             retf                                                     ; Far jump or call
0012E83D     A3 917C74E8    mov     dword ptr ds:[E8747C91], eax
0012E842     1200           adc     al, byte ptr ds:[eax]
0012E844     D7             xlat    byte ptr ds:[ebx+al]
0012E845     F2:96          repne xchg eax, esi                                      ; Superfluous REPxx prefix
0012E847     7C 00          jl      short 0012E849
0012E849     001400         add     byte ptr ds:[eax+eax], dl
0012E84C     1F             pop     ds                                               ; Modification of segment register
0012E84D     FF28           jmp     far fword ptr ds:[eax]                           ; Far jump or call
0012E84F     DAB2 3705C290  fidiv   dword ptr ds:[edx+90C20537]
0012E855     60             pushad
0012E856   ^ 7E C4          jle     short 0012E81C
0012E858   ^ 77 E8          ja      short 0012E842
0012E85A     2E:2F          das                                                      ; Superfluous segment override prefix
0012E85C     35 A76E21FF    xor     eax, FF216EA7
0012E861     FA             cli
0012E862     28C7           sub     bh, al
0012E864     B3 17          mov     bl, 17
0012E866     06             push    es
0012E867     CE             into
0012E868     F2:47          repne inc edi                                            ; Superfluous REPxx prefix
0012E86A     99             cdq
0012E86B     0E             push    cs
0012E86C     3B69 21        cmp     ebp, dword ptr ds:[ecx+21]
0012E86F     65:6D          ins     dword ptr es:[edi], dx                           ; Superfluous segment override prefix
0012E871     FFE2           jmp     edx
0012E873     5F             pop     edi
0012E874     E8 0D020000   .call    0012EA86
0012E879     33C0           xor     eax, eax
0012E87B     C3             retn
0012E87C     8B5424 0C      mov     edx, dword ptr ss:[esp+0C]
0012E880     8B4C24 04      mov     ecx, dword ptr ss:[esp+4]
0012E884     8BC2           mov     eax, edx
0012E886     4A             dec     edx
0012E887     57             push    edi
0012E888     8BF9           mov     edi, ecx
0012E88A     85C0           test    eax, eax
0012E88C     74 12          je      short 0012E8A0
0012E88E     56             push    esi
0012E88F     8D72 01        lea     esi, [edx+1]
0012E892     8B5424 10      mov     edx, dword ptr ss:[esp+10]
0012E896     8A02           mov     al, byte ptr ds:[edx]
0012E898     8801           mov     byte ptr ds:[ecx], al
0012E89A     41             inc     ecx
0012E89B     42             inc     edx
0012E89C     4E             dec     esi
0012E89D   ^ 75 F7          jne     short 0012E896
0012E89F     5E             pop     esi
0012E8A0     8BC7           mov     eax, edi
0012E8A2     5F             pop     edi
0012E8A3     C3             retn
0012E8A4     55             push    ebp
0012E8A5     8BEC           mov     ebp, esp
0012E8A7     51             push    ecx
0012E8A8     51             push    ecx
0012E8A9     53             push    ebx
0012E8AA     56             push    esi
0012E8AB     57             push    edi
0012E8AC     68 86570D00    push    0D5786
0012E8B1     68 884E0D00    push    0D4E88
0012E8B6     E8 1A000000    call    0012E8D5
0012E8BB     8945 FC        mov     dword ptr ss:[ebp-4], eax
0012E8BE     68 FA8B3400    push    348BFA
0012E8C3     68 884E0D00    push    0D4E88
0012E8C8     E8 08000000    call    0012E8D5
0012E8CD     8945 F8        mov     dword ptr ss:[ebp-8], eax
0012E8D0     E9 B5000000    jmp     0012E98A
0012E8D5     55             push    ebp
0012E8D6     8BEC           mov     ebp, esp
0012E8D8     53             push    ebx
0012E8D9     56             push    esi
0012E8DA     57             push    edi
0012E8DB     51             push    ecx
0012E8DC     64:FF35 30000  push    dword ptr fs:[30]
0012E8E3     58             pop     eax
0012E8E4     8B40 0C        mov     eax, dword ptr ds:[eax+0C]
0012E8E7     8B48 0C        mov     ecx, dword ptr ds:[eax+0C]
0012E8EA     8B11           mov     edx, dword ptr ds:[ecx]
0012E8EC     8B41 30        mov     eax, dword ptr ds:[ecx+30]
0012E8EF     6A 02          push    2
0012E8F1     8B7D 08        mov     edi, dword ptr ss:[ebp+8]
0012E8F4     57             push    edi
0012E8F5     50             push    eax
0012E8F6     E8 5B000000    call    0012E956
0012E8FB     85C0           test    eax, eax
0012E8FD     74 04          je      short 0012E903
0012E8FF     8BCA           mov     ecx, edx
0012E901   ^ EB E7          jmp     short 0012E8EA
0012E903     8B41 18        mov     eax, dword ptr ds:[ecx+18]
0012E906     50             push    eax
0012E907     8B58 3C        mov     ebx, dword ptr ds:[eax+3C]
0012E90A     03C3           add     eax, ebx
0012E90C     8B58 78        mov     ebx, dword ptr ds:[eax+78]
0012E90F     58             pop     eax
0012E910     50             push    eax
0012E911     03D8           add     ebx, eax
0012E913     8B4B 1C        mov     ecx, dword ptr ds:[ebx+1C]
0012E916     8B53 20        mov     edx, dword ptr ds:[ebx+20]
0012E919     8B5B 24        mov     ebx, dword ptr ds:[ebx+24]
0012E91C     03C8           add     ecx, eax
0012E91E     03D0           add     edx, eax
0012E920     03D8           add     ebx, eax
0012E922     8B32           mov     esi, dword ptr ds:[edx]
0012E924     58             pop     eax
0012E925     50             push    eax
0012E926     03F0           add     esi, eax
0012E928     6A 01          push    1
0012E92A     FF75 0C        push    dword ptr ss:[ebp+0C]
0012E92D     56             push    esi
0012E92E     E8 23000000    call    0012E956
0012E933     85C0           test    eax, eax
0012E935     74 08          je      short 0012E93F
0012E937     83C2 04        add     edx, 4
0012E93A     83C3 02        add     ebx, 2
0012E93D   ^ EB E3          jmp     short 0012E922
0012E93F     58             pop     eax
0012E940     33D2           xor     edx, edx
0012E942     66:8B13        mov     dx, word ptr ds:[ebx]
0012E945     C1E2 02        shl     edx, 2
0012E948     03CA           add     ecx, edx
0012E94A     0301           add     eax, dword ptr ds:[ecx]
0012E94C     59             pop     ecx
0012E94D     5F             pop     edi
0012E94E     5E             pop     esi
0012E94F     5B             pop     ebx
0012E950     8BE5           mov     esp, ebp
0012E952     5D             pop     ebp
0012E953     C2 0800        retn    8
0012E956     55             push    ebp
0012E957     8BEC           mov     ebp, esp
0012E959     51             push    ecx
0012E95A     53             push    ebx
0012E95B     52             push    edx
0012E95C     33C9           xor     ecx, ecx
0012E95E     33DB           xor     ebx, ebx
0012E960     33D2           xor     edx, edx
0012E962     8B45 08        mov     eax, dword ptr ss:[ebp+8]
0012E965     8A10           mov     dl, byte ptr ds:[eax]
0012E967     80CA 60        or      dl, 60
0012E96A     03DA           add     ebx, edx
0012E96C     D1E3           shl     ebx, 1
0012E96E     0345 10        add     eax, dword ptr ss:[ebp+10]
0012E971     8A08           mov     cl, byte ptr ds:[eax]
0012E973     84C9           test    cl, cl
0012E975     E0 EE          loopnz  short 0012E965
0012E977     33C0           xor     eax, eax
0012E979     8B4D 0C        mov     ecx, dword ptr ss:[ebp+0C]
0012E97C     3BD9           cmp     ebx, ecx
0012E97E     74 01          je      short 0012E981
0012E980     40             inc     eax
0012E981     5A             pop     edx
0012E982     5B             pop     ebx
0012E983     59             pop     ecx
0012E984     8BE5           mov     esp, ebp
0012E986     5D             pop     ebp
0012E987     C2 0C00        retn    0C
0012E98A     8B45 08        mov     eax, dword ptr ss:[ebp+8]
0012E98D     8B4D FC        mov     ecx, dword ptr ss:[ebp-4]
0012E990     5F             pop     edi
0012E991     5E             pop     esi
0012E992     8908           mov     dword ptr ds:[eax], ecx
0012E994     8B45 0C        mov     eax, dword ptr ss:[ebp+0C]
0012E997     8B4D F8        mov     ecx, dword ptr ss:[ebp-8]
0012E99A     5B             pop     ebx
0012E99B     8908           mov     dword ptr ds:[eax], ecx
0012E99D     C9             leave
0012E99E     C3             retn
0012E99F     55             push    ebp
0012E9A0     8BEC           mov     ebp, esp
0012E9A2     81EC 08040000  sub     esp, 408
0012E9A8     53             push    ebx
0012E9A9     56             push    esi
0012E9AA     33DB           xor     ebx, ebx
0012E9AC     57             push    edi
0012E9AD     33D2           xor     edx, edx
0012E9AF     8D85 F8FBFFFF  lea     eax, [ebp-408]
0012E9B5     B9 00010000    mov     ecx, 100
0012E9BA     8910           mov     dword ptr ds:[eax], edx
0012E9BC     42             inc     edx
0012E9BD     83C0 04        add     eax, 4
0012E9C0     3BD1           cmp     edx, ecx
0012E9C2   ^ 7C F6          jl      short 0012E9BA
0012E9C4     33FF           xor     edi, edi
0012E9C6     8DB5 F8FBFFFF  lea     esi, [ebp-408]
0012E9CC     8BC7           mov     eax, edi
0012E9CE     33D2           xor     edx, edx
0012E9D0     F775 14        div     dword ptr ss:[ebp+14]
0012E9D3     8B45 0C        mov     eax, dword ptr ss:[ebp+0C]
0012E9D6     0FB60402       movzx   eax, byte ptr ds:[eax+edx]
0012E9DA     0306           add     eax, dword ptr ds:[esi]
0012E9DC     03C3           add     eax, ebx
0012E9DE     8BD9           mov     ebx, ecx
0012E9E0     99             cdq
0012E9E1     F7FB           idiv    ebx
0012E9E3     8A06           mov     al, byte ptr ds:[esi]
0012E9E5     47             inc     edi
0012E9E6     8845 FF        mov     byte ptr ss:[ebp-1], al
0012E9E9     8BDA           mov     ebx, edx
0012E9EB     8B949D F8FBFF  mov     edx, dword ptr ss:[ebx*4+ebp-408]
0012E9F2     8916           mov     dword ptr ds:[esi], edx
0012E9F4     83C6 04        add     esi, 4
0012E9F7     0FB655 FF      movzx   edx, byte ptr ss:[ebp-1]
0012E9FB     8D849D F8FBFF  lea     eax, [ebx*4+ebp-408]
0012EA02     3BF9           cmp     edi, ecx
0012EA04     8910           mov     dword ptr ds:[eax], edx
0012EA06   ^ 7C C4          jl      short 0012E9CC
0012EA08     8365 14 00     and     dword ptr ss:[ebp+14], 00000000
0012EA0C     837D 10 00     cmp     dword ptr ss:[ebp+10], 0
0012EA10     76 6B          jbe     short 0012EA7D
0012EA12     8D47 01        lea     eax, [edi+1]
0012EA15     8BF1           mov     esi, ecx
0012EA17     99             cdq
0012EA18     F7FE           idiv    esi
0012EA1A     8BFA           mov     edi, edx
0012EA1C     8B84BD F8FBFF  mov     eax, dword ptr ss:[edi*4+ebp-408]
0012EA23     8DB4BD F8FBFF  lea     esi, [edi*4+ebp-408]
0012EA2A     03C3           add     eax, ebx
0012EA2C     8BD9           mov     ebx, ecx
0012EA2E     99             cdq
0012EA2F     F7FB           idiv    ebx
0012EA31     8A06           mov     al, byte ptr ds:[esi]
0012EA33     8845 FF        mov     byte ptr ss:[ebp-1], al
0012EA36     8BDA           mov     ebx, edx
0012EA38     8B949D F8FBFF  mov     edx, dword ptr ss:[ebx*4+ebp-408]
0012EA3F     8916           mov     dword ptr ds:[esi], edx
0012EA41     0FB655 FF      movzx   edx, byte ptr ss:[ebp-1]
0012EA45     8D849D F8FBFF  lea     eax, [ebx*4+ebp-408]
0012EA4C     8955 0C        mov     dword ptr ss:[ebp+0C], edx
0012EA4F     8910           mov     dword ptr ds:[eax], edx
0012EA51     8B45 14        mov     eax, dword ptr ss:[ebp+14]
0012EA54     8B55 08        mov     edx, dword ptr ss:[ebp+8]
0012EA57     03C2           add     eax, edx
0012EA59     8945 F8        mov     dword ptr ss:[ebp-8], eax
0012EA5C     8B06           mov     eax, dword ptr ds:[esi]
0012EA5E     0345 0C        add     eax, dword ptr ss:[ebp+0C]
0012EA61     8BF1           mov     esi, ecx
0012EA63     99             cdq
0012EA64     F7FE           idiv    esi
0012EA66     8B75 F8        mov     esi, dword ptr ss:[ebp-8]
0012EA69     8A8495 F8FBFF  mov     al, byte ptr ss:[edx*4+ebp-408]
0012EA70     3006           xor     byte ptr ds:[esi], al
0012EA72     FF45 14        inc     dword ptr ss:[ebp+14]
0012EA75     8B45 14        mov     eax, dword ptr ss:[ebp+14]
0012EA78     3B45 10        cmp     eax, dword ptr ss:[ebp+10]
0012EA7B   ^ 72 95          jb      short 0012EA12
0012EA7D     8B45 08        mov     eax, dword ptr ss:[ebp+8]
0012EA80     5F             pop     edi
0012EA81     5E             pop     esi
0012EA82     5B             pop     ebx
0012EA83     C9             leave
0012EA84     C3             retn
0012EA85     C3             retn
0012EA86     55             push    ebp
0012EA87     8BEC           mov     ebp, esp
0012EA89     B8 20410000    mov     eax, 4120
0012EA8E     E8 71030000    call    0012EE04
0012EA93     53             push    ebx
0012EA94     56             push    esi
0012EA95     57             push    edi
0012EA96     E8 EAFFFFFF    call    0012EA85
0012EA9B     33DB           xor     ebx, ebx
0012EA9D     C645 E8 6B     mov     byte ptr ss:[ebp-18], 6B
0012EAA1     C645 E9 65     mov     byte ptr ss:[ebp-17], 65
0012EAA5     C645 EA 72     mov     byte ptr ss:[ebp-16], 72
0012EAA9     C645 EB 6E     mov     byte ptr ss:[ebp-15], 6E
0012EAAD     C645 EC 65     mov     byte ptr ss:[ebp-14], 65
0012EAB1     C645 ED 6C     mov     byte ptr ss:[ebp-13], 6C
0012EAB5     C645 EE 33     mov     byte ptr ss:[ebp-12], 33
0012EAB9     C645 EF 32     mov     byte ptr ss:[ebp-11], 32
0012EABD     C645 F0 2E     mov     byte ptr ss:[ebp-10], 2E
0012EAC1     C645 F1 64     mov     byte ptr ss:[ebp-0F], 64
0012EAC5     C645 F2 6C     mov     byte ptr ss:[ebp-0E], 6C
0012EAC9     C645 F3 6C     mov     byte ptr ss:[ebp-0D], 6C
0012EACD     885D F4        mov     byte ptr ss:[ebp-0C], bl
0012EAD0     C645 94 47     mov     byte ptr ss:[ebp-6C], 47
0012EAD4     C645 95 65     mov     byte ptr ss:[ebp-6B], 65
0012EAD8     C645 96 74     mov     byte ptr ss:[ebp-6A], 74
0012EADC     C645 97 4D     mov     byte ptr ss:[ebp-69], 4D
0012EAE0     C645 98 6F     mov     byte ptr ss:[ebp-68], 6F
0012EAE4     C645 99 64     mov     byte ptr ss:[ebp-67], 64
0012EAE8     C645 9A 75     mov     byte ptr ss:[ebp-66], 75
0012EAEC     C645 9B 6C     mov     byte ptr ss:[ebp-65], 6C
0012EAF0     C645 9C 65     mov     byte ptr ss:[ebp-64], 65
0012EAF4     C645 9D 46     mov     byte ptr ss:[ebp-63], 46
0012EAF8     C645 9E 69     mov     byte ptr ss:[ebp-62], 69
0012EAFC     C645 9F 6C     mov     byte ptr ss:[ebp-61], 6C
0012EB00     C645 A0 65     mov     byte ptr ss:[ebp-60], 65
0012EB04     C645 A1 4E     mov     byte ptr ss:[ebp-5F], 4E
0012EB08     C645 A2 61     mov     byte ptr ss:[ebp-5E], 61
0012EB0C     C645 A3 6D     mov     byte ptr ss:[ebp-5D], 6D
0012EB10     C645 A4 65     mov     byte ptr ss:[ebp-5C], 65
0012EB14     C645 A5 57     mov     byte ptr ss:[ebp-5B], 57
0012EB18     885D A6        mov     byte ptr ss:[ebp-5A], bl
0012EB1B     C645 B8 43     mov     byte ptr ss:[ebp-48], 43
0012EB1F     C645 B9 72     mov     byte ptr ss:[ebp-47], 72
0012EB23     C645 BA 65     mov     byte ptr ss:[ebp-46], 65
0012EB27     C645 BB 61     mov     byte ptr ss:[ebp-45], 61
0012EB2B     C645 BC 74     mov     byte ptr ss:[ebp-44], 74
0012EB2F     C645 BD 65     mov     byte ptr ss:[ebp-43], 65
0012EB33     C645 BE 46     mov     byte ptr ss:[ebp-42], 46
0012EB37     C645 BF 69     mov     byte ptr ss:[ebp-41], 69
0012EB3B     C645 C0 6C     mov     byte ptr ss:[ebp-40], 6C
0012EB3F     C645 C1 65     mov     byte ptr ss:[ebp-3F], 65
0012EB43     C645 C2 57     mov     byte ptr ss:[ebp-3E], 57
0012EB47     885D C3        mov     byte ptr ss:[ebp-3D], bl
0012EB4A     C645 A8 56     mov     byte ptr ss:[ebp-58], 56
0012EB4E     C645 A9 69     mov     byte ptr ss:[ebp-57], 69
0012EB52     C645 AA 72     mov     byte ptr ss:[ebp-56], 72
0012EB56     C645 AB 74     mov     byte ptr ss:[ebp-55], 74
0012EB5A     C645 AC 75     mov     byte ptr ss:[ebp-54], 75
0012EB5E     C645 AD 61     mov     byte ptr ss:[ebp-53], 61
0012EB62     C645 AE 6C     mov     byte ptr ss:[ebp-52], 6C
0012EB66     C645 AF 41     mov     byte ptr ss:[ebp-51], 41
0012EB6A     C645 B0 6C     mov     byte ptr ss:[ebp-50], 6C
0012EB6E     C645 B1 6C     mov     byte ptr ss:[ebp-4F], 6C
0012EB72     C645 B2 6F     mov     byte ptr ss:[ebp-4E], 6F
0012EB76     C645 B3 63     mov     byte ptr ss:[ebp-4D], 63
0012EB7A     885D B4        mov     byte ptr ss:[ebp-4C], bl
0012EB7D     C645 D0 47     mov     byte ptr ss:[ebp-30], 47
0012EB81     C645 D1 65     mov     byte ptr ss:[ebp-2F], 65
0012EB85     C645 D2 74     mov     byte ptr ss:[ebp-2E], 74
0012EB89     C645 D3 46     mov     byte ptr ss:[ebp-2D], 46
0012EB8D     C645 D4 69     mov     byte ptr ss:[ebp-2C], 69
0012EB91     C645 D5 6C     mov     byte ptr ss:[ebp-2B], 6C
0012EB95     C645 D6 65     mov     byte ptr ss:[ebp-2A], 65
0012EB99     C645 D7 53     mov     byte ptr ss:[ebp-29], 53
0012EB9D     C645 D8 69     mov     byte ptr ss:[ebp-28], 69
0012EBA1     C645 D9 7A     mov     byte ptr ss:[ebp-27], 7A
0012EBA5     C645 DA 65     mov     byte ptr ss:[ebp-26], 65
0012EBA9     885D DB        mov     byte ptr ss:[ebp-25], bl
0012EBAC     C645 DC 52     mov     byte ptr ss:[ebp-24], 52
0012EBB0     C645 DD 65     mov     byte ptr ss:[ebp-23], 65
0012EBB4     C645 DE 61     mov     byte ptr ss:[ebp-22], 61
0012EBB8     C645 DF 64     mov     byte ptr ss:[ebp-21], 64
0012EBBC     C645 E0 46     mov     byte ptr ss:[ebp-20], 46
0012EBC0     8D45 FC        lea     eax, [ebp-4]
0012EBC3     C645 E1 69     mov     byte ptr ss:[ebp-1F], 69
0012EBC7     50             push    eax
0012EBC8     8D45 F8        lea     eax, [ebp-8]
0012EBCB     50             push    eax
0012EBCC     C645 E2 6C     mov     byte ptr ss:[ebp-1E], 6C
0012EBD0     C645 E3 65     mov     byte ptr ss:[ebp-1D], 65
0012EBD4     885D E4        mov     byte ptr ss:[ebp-1C], bl
0012EBD7     C645 C4 43     mov     byte ptr ss:[ebp-3C], 43
0012EBDB     C645 C5 6C     mov     byte ptr ss:[ebp-3B], 6C
0012EBDF     C645 C6 6F     mov     byte ptr ss:[ebp-3A], 6F
0012EBE3     C645 C7 73     mov     byte ptr ss:[ebp-39], 73
0012EBE7     C645 C8 65     mov     byte ptr ss:[ebp-38], 65
0012EBEB     C645 C9 48     mov     byte ptr ss:[ebp-37], 48
0012EBEF     C645 CA 61     mov     byte ptr ss:[ebp-36], 61
0012EBF3     C645 CB 6E     mov     byte ptr ss:[ebp-35], 6E
0012EBF7     C645 CC 64     mov     byte ptr ss:[ebp-34], 64
0012EBFB     C645 CD 6C     mov     byte ptr ss:[ebp-33], 6C
0012EBFF     C645 CE 65     mov     byte ptr ss:[ebp-32], 65
0012EC03     885D CF        mov     byte ptr ss:[ebp-31], bl
0012EC06     E8 99FCFFFF    call    0012E8A4
0012EC0B     59             pop     ecx
0012EC0C     8D45 94        lea     eax, [ebp-6C]
0012EC0F     59             pop     ecx
0012EC10     50             push    eax
0012EC11     8D45 E8        lea     eax, [ebp-18]
0012EC14     50             push    eax
0012EC15     FF55 F8        call    dword ptr ss:[ebp-8]
0012EC18     50             push    eax
0012EC19     FF55 FC        call    dword ptr ss:[ebp-4]
0012EC1C     8BF0           mov     esi, eax
0012EC1E     8D45 B8        lea     eax, [ebp-48]
0012EC21     50             push    eax
0012EC22     8D45 E8        lea     eax, [ebp-18]
0012EC25     50             push    eax
0012EC26     FF55 F8        call    dword ptr ss:[ebp-8]
0012EC29     50             push    eax
0012EC2A     FF55 FC        call    dword ptr ss:[ebp-4]
0012EC2D     8985 70FFFFFF  mov     dword ptr ss:[ebp-90], eax
0012EC33     8D45 A8        lea     eax, [ebp-58]
0012EC36     50             push    eax
0012EC37     8D45 E8        lea     eax, [ebp-18]
0012EC3A     50             push    eax
0012EC3B     FF55 F8        call    dword ptr ss:[ebp-8]
0012EC3E     50             push    eax
0012EC3F     FF55 FC        call    dword ptr ss:[ebp-4]
0012EC42     8945 8C        mov     dword ptr ss:[ebp-74], eax
0012EC45     8D45 D0        lea     eax, [ebp-30]
0012EC48     50             push    eax
0012EC49     8D45 E8        lea     eax, [ebp-18]
0012EC4C     50             push    eax
0012EC4D     FF55 F8        call    dword ptr ss:[ebp-8]
0012EC50     50             push    eax
0012EC51     FF55 FC        call    dword ptr ss:[ebp-4]
0012EC54     8945 90        mov     dword ptr ss:[ebp-70], eax
0012EC57     8D45 DC        lea     eax, [ebp-24]
0012EC5A     50             push    eax
0012EC5B     8D45 E8        lea     eax, [ebp-18]
0012EC5E     50             push    eax
0012EC5F     FF55 F8        call    dword ptr ss:[ebp-8]
0012EC62     50             push    eax
0012EC63     FF55 FC        call    dword ptr ss:[ebp-4]
0012EC66     8985 74FFFFFF  mov     dword ptr ss:[ebp-8C], eax
0012EC6C     8D45 C4        lea     eax, [ebp-3C]
0012EC6F     50             push    eax
0012EC70     8D45 E8        lea     eax, [ebp-18]
0012EC73     50             push    eax
0012EC74     FF55 F8        call    dword ptr ss:[ebp-8]
0012EC77     50             push    eax
0012EC78     FF55 FC        call    dword ptr ss:[ebp-4]
0012EC7B     8985 6CFFFFFF  mov     dword ptr ss:[ebp-94], eax
0012EC81     B9 81000000    mov     ecx, 81
0012EC86     33C0           xor     eax, eax
0012EC88     8DBD 62FDFFFF  lea     edi, [ebp-29E]
0012EC8E     66:899D 60FDF  mov     word ptr ss:[ebp-2A0], bx
0012EC95     68 04010000    push    104
0012EC9A     F3:AB          rep stos dword ptr es:[edi]
0012EC9C     66:AB          stos    word ptr es:[edi]
0012EC9E     8D85 60FDFFFF  lea     eax, [ebp-2A0]
0012ECA4     50             push    eax
0012ECA5     53             push    ebx
0012ECA6     FFD6           call    esi
0012ECA8     53             push    ebx
0012ECA9     53             push    ebx
0012ECAA     6A 03          push    3
0012ECAC     53             push    ebx
0012ECAD     6A 01          push    1
0012ECAF     8D85 60FDFFFF  lea     eax, [ebp-2A0]
0012ECB5     68 00000080    push    80000000
0012ECBA     50             push    eax
0012ECBB     FF95 70FFFFFF  call    dword ptr ss:[ebp-90]
0012ECC1     8BF8           mov     edi, eax
0012ECC3     53             push    ebx
0012ECC4     57             push    edi
0012ECC5     FF55 90        call    dword ptr ss:[ebp-70]
0012ECC8     8BF0           mov     esi, eax
0012ECCA     6A 40          push    40
0012ECCC     68 00300000    push    3000
0012ECD1     8D86 00040000  lea     eax, [esi+400]
0012ECD7     50             push    eax
0012ECD8     53             push    ebx
0012ECD9     FF55 8C        call    dword ptr ss:[ebp-74]
0012ECDC     8D8D 68FFFFFF  lea     ecx, [ebp-98]
0012ECE2     53             push    ebx
0012ECE3     51             push    ecx
0012ECE4     56             push    esi
0012ECE5     50             push    eax
0012ECE6     57             push    edi
0012ECE7     8945 90        mov     dword ptr ss:[ebp-70], eax
0012ECEA     FF95 74FFFFFF  call    dword ptr ss:[ebp-8C]
0012ECF0     57             push    edi
0012ECF1     FF95 6CFFFFFF  call    dword ptr ss:[ebp-94]
0012ECF7     B9 9F0F0000    mov     ecx, 0F9F
0012ECFC     33C0           xor     eax, eax
0012ECFE     8DBD E1BEFFFF  lea     edi, [ebp+FFFFBEE1]
0012ED04     889D E0BEFFFF  mov     byte ptr ss:[ebp+FFFFBEE0], bl
0012ED0A     F3:AB          rep stos dword ptr es:[edi]
0012ED0C     66:AB          stos    word ptr es:[edi]
0012ED0E     AA             stos    byte ptr es:[edi]
0012ED0F     33C0           xor     eax, eax
0012ED11     8DBD 7FFFFFFF  lea     edi, [ebp-81]
0012ED17     C685 78FFFFFF  mov     byte ptr ss:[ebp-88], 1D
0012ED1E     C685 79FFFFFF  mov     byte ptr ss:[ebp-87], 0B9
0012ED25     C685 7AFFFFFF  mov     byte ptr ss:[ebp-86], 50
0012ED2C     C685 7BFFFFFF  mov     byte ptr ss:[ebp-85], 0B7
0012ED33     C685 7CFFFFFF  mov     byte ptr ss:[ebp-84], 74
0012ED3A     C685 7DFFFFFF  mov     byte ptr ss:[ebp-83], 32
0012ED41     C685 7EFFFFFF  mov     byte ptr ss:[ebp-82], 0C2
0012ED48     AB             stos    dword ptr es:[edi]
0012ED49     AB             stos    dword ptr es:[edi]
0012ED4A     AB             stos    dword ptr es:[edi]
0012ED4B     AA             stos    byte ptr es:[edi]
0012ED4C     33C0           xor     eax, eax
0012ED4E     3BF3           cmp     esi, ebx
0012ED50     76 6A          jbe     short 0012EDBC
0012ED52     8B7D 90        mov     edi, dword ptr ss:[ebp-70]
0012ED55     8A0C38         mov     cl, byte ptr ds:[edi+eax]
0012ED58     3A8D 78FFFFFF  cmp     cl, byte ptr ss:[ebp-88]
0012ED5E     75 24          jne     short 0012ED84
0012ED60     8A4C38 02      mov     cl, byte ptr ds:[edi+eax+2]
0012ED64     3A8D 7AFFFFFF  cmp     cl, byte ptr ss:[ebp-86]
0012ED6A     75 18          jne     short 0012ED84
0012ED6C     8A4C38 04      mov     cl, byte ptr ds:[edi+eax+4]
0012ED70     3A8D 7CFFFFFF  cmp     cl, byte ptr ss:[ebp-84]
0012ED76     75 0C          jne     short 0012ED84
0012ED78     8A4C38 06      mov     cl, byte ptr ds:[edi+eax+6]
0012ED7C     3A8D 7EFFFFFF  cmp     cl, byte ptr ss:[ebp-82]
0012ED82     74 0E          je      short 0012ED92
0012ED84     8D4E FF        lea     ecx, [esi-1]
0012ED87     3BC1           cmp     eax, ecx
0012ED89     74 70          je      short 0012EDFB
0012ED8B     40             inc     eax
0012ED8C     3BC6           cmp     eax, esi
0012ED8E   ^ 72 C2          jb      short 0012ED52
0012ED90     EB 2A          jmp     short 0012EDBC
0012ED92     33F6           xor     esi, esi
0012ED94     03C7           add     eax, edi
0012ED96     8A4C30 14      mov     cl, byte ptr ds:[esi+eax+14]
0012ED9A     888C35 E0BEFF  mov     byte ptr ss:[esi+ebp+FFFFBEE0], cl
0012EDA1     46             inc     esi
0012EDA2     81FE 943E0000  cmp     esi, 3E94
0012EDA8   ^ 72 EC          jb      short 0012ED96
0012EDAA     33F6           xor     esi, esi
0012EDAC     8A0C30         mov     cl, byte ptr ds:[esi+eax]
0012EDAF     888C35 78FFFF  mov     byte ptr ss:[esi+ebp-88], cl
0012EDB6     46             inc     esi
0012EDB7     83FE 14        cmp     esi, 14
0012EDBA   ^ 72 F0          jb      short 0012EDAC
0012EDBC     BE 803E0000    mov     esi, 3E80
0012EDC1     6A 14          push    14
0012EDC3     8D85 78FFFFFF  lea     eax, [ebp-88]
0012EDC9     56             push    esi
0012EDCA     50             push    eax
0012EDCB     8D85 E0BEFFFF  lea     eax, [ebp+FFFFBEE0]
0012EDD1     50             push    eax
0012EDD2     E8 C8FBFFFF    call    0012E99F
0012EDD7     83C4 10        add     esp, 10
0012EDDA     6A 40          push    40
0012EDDC     68 00300000    push    3000
0012EDE1     56             push    esi
0012EDE2     53             push    ebx
0012EDE3     FF55 8C        call    dword ptr ss:[ebp-74]
0012EDE6     8BF8           mov     edi, eax
0012EDE8     8D85 E0BEFFFF  lea     eax, [ebp+FFFFBEE0]
0012EDEE     56             push    esi
0012EDEF     50             push    eax
0012EDF0     57             push    edi
0012EDF1     E8 86FAFFFF    call    0012E87C
0012EDF6     83C4 0C        add     esp, 0C
0012EDF9     FFD7           call    edi
0012EDFB     5F             pop     edi
0012EDFC     5E             pop     esi
0012EDFD     33C0           xor     eax, eax
0012EDFF     5B             pop     ebx
0012EE00     C9             leave
0012EE01     C3             retn
0012EE02     CC             int3
0012EE03     CC             int3
0012EE04     51             push    ecx
0012EE05     3D 00100000    cmp     eax, 1000
0012EE0A     8D4C24 08      lea     ecx, [esp+8]
0012EE0E     72 14          jb      short 0012EE24
0012EE10     81E9 00100000  sub     ecx, 1000
0012EE16     2D 00100000    sub     eax, 1000
0012EE1B     8501           test    dword ptr ds:[ecx], eax
0012EE1D     3D 00100000    cmp     eax, 1000
0012EE22   ^ 73 EC          jae     short 0012EE10
0012EE24     2BC8           sub     ecx, eax
0012EE26     8BC4           mov     eax, esp
0012EE28     8501           test    dword ptr ds:[ecx], eax
0012EE2A     8BE1           mov     esp, ecx
0012EE2C     8B08           mov     ecx, dword ptr ds:[eax]
0012EE2E     8B40 04        mov     eax, dword ptr ds:[eax+4]
0012EE31     50             push    eax
0012EE32     C3             retn
0012EE33     40             inc     eax
0012EE34     96             xchg    eax, esi
0012EE35     6330           arpl    word ptr ds:[eax], si
0012EE37     CA 8E80        retf    808E                                             ; Far jump or call
0012EE3A     AC             lods    byte ptr ds:[esi]
0012EE3B     A4             movs    byte ptr es:[edi], byte ptr ds:[esi]
0012EE3C     A3 8BBFACA0    mov     dword ptr ds:[A0ACBF8B], eax
0012EE41     A8 CD          test    al, CD
0012EE43     CD CD          int     0CD
0012EE45     CD CD          int     0CD
0012EE47     CD CD          int     0CD
0012EE49     CD CD          int     0CD
0012EE4B     CD CD          int     0CD
0012EE4D     CD CD          int     0CD
0012EE4F     CD CC          int     0CC
0012EE51     CD CD          int     0CD
0012EE53     CD CD          int     0CD
0012EE55     CD CD          int     0CD
0012EE57     CD 6D          int     6D
0012EE59     F9             stc
0012EE5A     8DCD           lea     ecx, ebp                                         ; Illegal use of register
0012EE5C     CC             int3
0012EE5D     CD CD          int     0CD
0012EE5F     CD CD          int     0CD
0012EE61     CD CD          int     0CD
0012EE63     CD CD          int     0CD
0012EE65     CD CD          int     0CD
0012EE67     CD CD          int     0CD
0012EE69     CD CD          int     0CD
0012EE6B     CD CC          int     0CC
0012EE6D     CD CD          int     0CD
0012EE6F     CD CD          int     0CD
0012EE71     CD CD          int     0CD
0012EE73     CD 45          int     45
0012EE75     FD             std
0012EE76     D9CD           fxch    st(5)
0012EE78     CD CD          int     0CD
0012EE7A     CD CD          int     0CD
0012EE7C     CD CD          int     0CD
0012EE7E     CD CD          int     0CD
0012EE80     CC             int3
0012EE81     CD CD          int     0CD
0012EE83     CD 32          int     32
0012EE85     3131           xor     dword ptr ds:[ecx], esi
0012EE87     31C9           xor     ecx, ecx
0012EE89     CC             int3
0012EE8A     CD CD          int     0CD
0012EE8C     CD CD          int     0CD
0012EE8E     CD CD          int     0CD
0012EE90     CD CD          int     0CD
0012EE92     CD CD          int     0CD
0012EE94     CD CD          int     0CD
0012EE96     CD CD          int     0CD
0012EE98     CD CD          int     0CD
0012EE9A     CD CD          int     0CD
0012EE9C     CD CD          int     0CD
0012EE9E     CD CD          int     0CD
0012EEA0     CD CD          int     0CD
0012EEA2     CD CD          int     0CD
0012EEA4     CD CD          int     0CD
0012EEA6     CD CD          int     0CD
0012EEA8     CD CD          int     0CD
0012EEAA     CD CD          int     0CD
0012EEAC     CD CD          int     0CD
0012EEAE     CD CD          int     0CD
0012EEB0     CD CD          int     0CD
0012EEB2     CD CD          int     0CD
0012EEB4     CD CD          int     0CD
0012EEB6     CD CD          int     0CD
0012EEB8     40             inc     eax
0012EEB9     CD CD          int     0CD
0012EEBB     CD 07          int     7
0012EEBD     CD CD          int     0CD
0012EEBF     CD CD          int     0CD
0012EEC1     CD CD          int     0CD
0012EEC3     CD CD          int     0CD
0012EEC5     CD 8D          int     8D
0012EEC7     CD CD          int     0CD
0012EEC9     CD CD          int     0CD
0012EECB     CD AD          int     0AD
0012EECD     50             push    eax
0012EECE     0D BAC7CDCD    or      eax, CDCDC7BA
0012EED3     CD D5          int     0D5
0012EED5     EA FECD14F4 F  jmp     far CDFE:F414CDFE                                ; Far jump or call
0012EEDC     E5 82          in      eax, 82                                          ; I/O command
0012EEDE     FECD           dec     ch
0012EEE0     CD CD          int     0CD
0012EEE2     CD CD          int     0CD
0012EEE4     3C EB          cmp     al, 0EB
0012EEE6     FECD           dec     ch
0012EEE8     8DEA           lea     ebp, edx                                         ; Illegal use of register
0012EEEA     FECD           dec     ch
0012EEEC     65:EA FECDCDC  jmp     far CDCD:CDCDCDFE                                ; Superfluous segment override prefix
0012EEF4     CD CD          int     0CD
0012EEF6     CD CD          int     0CD
0012EEF8     CD CD          int     0CD
0012EEFA     CD CD          int     0CD
0012EEFC     CD CD          int     0CD
0012EEFE     CD CD          int     0CD
0012EF00     CD CD          int     0CD
0012EF02     CD CD          int     0CD
0012EF04     D5 F7          aad     0F7
0012EF06     FECD           dec     ch
0012EF08     CD CD          int     0CD
0012EF0A     CD CD          int     0CD
0012EF0C     CD CD          int     0CD
0012EF0E     CD CD          int     0CD
0012EF10     CD CD          int     0CD
0012EF12     CD CD          int     0CD
0012EF14     CD CF          int     0CF
0012EF16     CD CD          int     0CD
0012EF18     CD CD          int     0CD
0012EF1A     CD CD          int     0CD
0012EF1C     CD CD          int     0CD
0012EF1E     CD CD          int     0CD
0012EF20     CD CD          int     0CD
0012EF22     CD CD          int     0CD
0012EF24     CD CD          int     0CD
0012EF26     CD CD          int     0CD
0012EF28     CD CD          int     0CD
0012EF2A     CD CD          int     0CD
0012EF2C     CD CD          int     0CD
0012EF2E     CD CD          int     0CD
0012EF30     CD CD          int     0CD
0012EF32     CD CD          int     0CD
0012EF34     CC             int3
0012EF35     CD CD          int     0CD
0012EF37     CD CD          int     0CD
0012EF39     CD CD          int     0CD
0012EF3B     CD 31          int     31
0012EF3D     3131           xor     dword ptr ds:[ecx], esi
0012EF3F     3131           xor     dword ptr ds:[ecx], esi
0012EF41     3131           xor     dword ptr ds:[ecx], esi
0012EF43     31CD           xor     ebp, ecx
0012EF45     CD CD          int     0CD
0012EF47     CD CD          int     0CD
0012EF49     CD CD          int     0CD
0012EF4B     CD CD          int     0CD
0012EF4D     CD CD          int     0CD
0012EF4F     CD CD          int     0CD
0012EF51     CD CD          int     0CD
0012EF53     CD CD          int     0CD
0012EF55     CD CD          int     0CD
0012EF57     CD CD          int     0CD
0012EF59     CD CD          int     0CD
0012EF5B     CD CD          int     0CD
0012EF5D     CD CD          int     0CD
0012EF5F     CD CD          int     0CD
0012EF61     CD CD          int     0CD
0012EF63     CD CD          int     0CD
0012EF65     CD CD          int     0CD
0012EF67     CD CD          int     0CD
0012EF69     CD CD          int     0CD
0012EF6B     CD CD          int     0CD
0012EF6D     CD CD          int     0CD
0012EF6F     CD CD          int     0CD
0012EF71     CD CD          int     0CD
0012EF73     CD CD          int     0CD
0012EF75     CD CD          int     0CD
0012EF77     CD CD          int     0CD
0012EF79     CD CD          int     0CD
0012EF7B     CD CD          int     0CD
0012EF7D     CD CD          int     0CD
0012EF7F     CD CD          int     0CD
0012EF81     CD CD          int     0CD
0012EF83     CD CD          int     0CD
0012EF85     CD CD          int     0CD
0012EF87     CD CD          int     0CD
0012EF89     CD CD          int     0CD
0012EF8B     CD CD          int     0CD
0012EF8D     CD CD          int     0CD
0012EF8F     CD CD          int     0CD
0012EF91     CD CD          int     0CD
0012EF93     CD CD          int     0CD
0012EF95     CD CD          int     0CD
0012EF97     CD CD          int     0CD
0012EF99     CD CD          int     0CD
0012EF9B     CD CD          int     0CD
0012EF9D     CD CD          int     0CD
0012EF9F     CD CD          int     0CD
0012EFA1     CD CD          int     0CD
0012EFA3     CD CD          int     0CD
0012EFA5     CD CD          int     0CD
0012EFA7     CD CD          int     0CD
0012EFA9     CD CD          int     0CD
0012EFAB     CD CD          int     0CD
0012EFAD     CD CD          int     0CD
0012EFAF     CD CD          int     0CD
0012EFB1     CD CD          int     0CD
0012EFB3     CD CD          int     0CD
0012EFB5     CD CD          int     0CD
0012EFB7     CD CD          int     0CD
0012EFB9     CD CD          int     0CD
0012EFBB     CD CD          int     0CD
0012EFBD     CD CD          int     0CD
0012EFBF     CD CD          int     0CD
0012EFC1     CD CD          int     0CD
0012EFC3     CD CD          int     0CD
0012EFC5     CD CD          int     0CD
0012EFC7     CD CD          int     0CD
0012EFC9     CD CD          int     0CD
0012EFCB     CD CD          int     0CD
0012EFCD     CD CD          int     0CD
0012EFCF     CD CD          int     0CD
0012EFD1     CD CD          int     0CD
0012EFD3     CD CD          int     0CD
0012EFD5     CD CD          int     0CD
0012EFD7     CD CD          int     0CD
0012EFD9     CD CD          int     0CD
0012EFDB     CD CD          int     0CD
0012EFDD     CD CD          int     0CD
0012EFDF     CD CD          int     0CD
0012EFE1     CD CD          int     0CD
0012EFE3     CD CD          int     0CD
0012EFE5     CD CD          int     0CD
0012EFE7     CD CD          int     0CD
0012EFE9     CD CD          int     0CD
0012EFEB     CD CD          int     0CD
0012EFED     CD CD          int     0CD
0012EFEF     CD CD          int     0CD
0012EFF1     CD CD          int     0CD
0012EFF3     CD CD          int     0CD
0012EFF5     CD CD          int     0CD
0012EFF7     CD CD          int     0CD
0012EFF9     CD CD          int     0CD
0012EFFB     CD CD          int     0CD
0012EFFD     CD CD          int     0CD
0012EFFF     CD CD          int     0CD
0012F001     CD CD          int     0CD
0012F003     CD CD          int     0CD
0012F005     CD CD          int     0CD
0012F007     CD CD          int     0CD
0012F009     CD CD          int     0CD
0012F00B     CD CD          int     0CD
0012F00D     CD CD          int     0CD
0012F00F     CD CD          int     0CD
0012F011     CD CD          int     0CD
0012F013     CD CD          int     0CD
0012F015     CD CD          int     0CD
0012F017     CD CD          int     0CD
0012F019     CD CD          int     0CD
0012F01B     CD CD          int     0CD
0012F01D     CD CD          int     0CD
0012F01F     CD CD          int     0CD
0012F021     CD CD          int     0CD
0012F023     CD CD          int     0CD
0012F025     CD CD          int     0CD
0012F027     CD CD          int     0CD
0012F029     CD CD          int     0CD
0012F02B     CD CD          int     0CD
0012F02D     CD CD          int     0CD
0012F02F     CD CD          int     0CD
0012F031     CD CD          int     0CD
0012F033     CD CD          int     0CD
0012F035     CD CD          int     0CD
0012F037     CD CD          int     0CD
0012F039     CD CD          int     0CD
0012F03B     CD CD          int     0CD
0012F03D     CD CD          int     0CD
0012F03F     CD CD          int     0CD
0012F041     CD CD          int     0CD
0012F043     CD CD          int     0CD
0012F045     CD CD          int     0CD
0012F047     CD CD          int     0CD
0012F049     CD CD          int     0CD
0012F04B     CD CD          int     0CD
0012F04D     CD CD          int     0CD
0012F04F     CD CD          int     0CD
0012F051     CD CD          int     0CD
0012F053     CD CD          int     0CD
0012F055     CD CD          int     0CD
0012F057     CD CD          int     0CD
0012F059     CD CD          int     0CD
0012F05B     CD CD          int     0CD
0012F05D     CD CD          int     0CD
0012F05F     CD CD          int     0CD
0012F061     CD CD          int     0CD
0012F063     CD CD          int     0CD
0012F065     CD CD          int     0CD
0012F067     CD CD          int     0CD
0012F069     CD CD          int     0CD
0012F06B     CD CD          int     0CD
0012F06D     CD CD          int     0CD
0012F06F     CD CD          int     0CD
0012F071     CD CD          int     0CD
0012F073     CD CD          int     0CD
0012F075     CD CD          int     0CD
0012F077     CD CD          int     0CD
0012F079     CD CD          int     0CD
0012F07B     CD CD          int     0CD
0012F07D     CD CD          int     0CD
0012F07F     CD CD          int     0CD
0012F081     CD CD          int     0CD
0012F083     CD CD          int     0CD
0012F085     CD CD          int     0CD
0012F087     CD CD          int     0CD
0012F089     CD CD          int     0CD
0012F08B     CD CD          int     0CD
0012F08D     CD CD          int     0CD
0012F08F     CD CD          int     0CD
0012F091     CD CD          int     0CD
0012F093     CD CD          int     0CD
0012F095     CD CD          int     0CD
0012F097     CD CD          int     0CD
0012F099     CD CD          int     0CD
0012F09B     CD CD          int     0CD
0012F09D     CD CD          int     0CD
0012F09F     CD CD          int     0CD
0012F0A1     CD CD          int     0CD
0012F0A3     CD CD          int     0CD
0012F0A5     CD CD          int     0CD
0012F0A7     CD CD          int     0CD
0012F0A9     CD CD          int     0CD
0012F0AB     CD CD          int     0CD
0012F0AD     CD CD          int     0CD
0012F0AF     CD CD          int     0CD
0012F0B1     CD CD          int     0CD
0012F0B3     CD CD          int     0CD
0012F0B5     CD CD          int     0CD
0012F0B7     CD CD          int     0CD
0012F0B9     CD CD          int     0CD
0012F0BB     CD CD          int     0CD
0012F0BD     CD CD          int     0CD
0012F0BF     CD CD          int     0CD
0012F0C1     CD CD          int     0CD
0012F0C3     CD CD          int     0CD
0012F0C5     CD CD          int     0CD
0012F0C7     CD CD          int     0CD
0012F0C9     CD CD          int     0CD
0012F0CB     CD CD          int     0CD
0012F0CD     CD CD          int     0CD
0012F0CF     CD CD          int     0CD
0012F0D1     CD CD          int     0CD
0012F0D3     CD CD          int     0CD
0012F0D5     CD CD          int     0CD
0012F0D7     CD CD          int     0CD
0012F0D9     CD CD          int     0CD
0012F0DB     CD CD          int     0CD
0012F0DD     CD CD          int     0CD
0012F0DF     CD CD          int     0CD
0012F0E1     CD CD          int     0CD
0012F0E3     CD CD          int     0CD
0012F0E5     CD CD          int     0CD
0012F0E7     CD CD          int     0CD
0012F0E9     CD CD          int     0CD
0012F0EB     CD CD          int     0CD
0012F0ED     CD CD          int     0CD
0012F0EF     CD CD          int     0CD
0012F0F1     CD CD          int     0CD
0012F0F3     CD CD          int     0CD
0012F0F5     CD CD          int     0CD
0012F0F7     CD CD          int     0CD
0012F0F9     CD CD          int     0CD
0012F0FB     CD CD          int     0CD
0012F0FD     CD CD          int     0CD
0012F0FF     CD CD          int     0CD
0012F101     CD CD          int     0CD
0012F103     CD CD          int     0CD
0012F105     CD CD          int     0CD
0012F107     CD CD          int     0CD
0012F109     CD CD          int     0CD
0012F10B     CD CD          int     0CD
0012F10D     CD CD          int     0CD
0012F10F     CD CD          int     0CD
0012F111     CD CD          int     0CD
0012F113     CD CD          int     0CD
0012F115     CD CD          int     0CD
0012F117     CD CD          int     0CD
0012F119     CD CD          int     0CD
0012F11B     CD CD          int     0CD
0012F11D     CD CD          int     0CD
0012F11F     CD CD          int     0CD
0012F121     CD CD          int     0CD
0012F123     CD CD          int     0CD
0012F125     CD CD          int     0CD
0012F127     CD CD          int     0CD
0012F129     CD CD          int     0CD
0012F12B     CD CD          int     0CD
0012F12D     CD CD          int     0CD
0012F12F     CD CD          int     0CD
0012F131     CD CD          int     0CD
0012F133     CD CD          int     0CD
0012F135     CD CD          int     0CD
0012F137     CD CD          int     0CD
0012F139     CD CD          int     0CD
0012F13B     CD CD          int     0CD
0012F13D     CD CD          int     0CD
0012F13F     CD CD          int     0CD
0012F141     CD CD          int     0CD
0012F143     CD CD          int     0CD
0012F145     CD CD          int     0CD
0012F147     CD CD          int     0CD
0012F149     CD CD          int     0CD
0012F14B     CD CD          int     0CD
0012F14D     CD CD          int     0CD
0012F14F     CD CD          int     0CD
0012F151     CD CD          int     0CD
0012F153     CD CD          int     0CD
0012F155     CD CD          int     0CD
0012F157     CD CD          int     0CD
0012F159     CD CD          int     0CD
0012F15B     CD CD          int     0CD
0012F15D     CD CD          int     0CD
0012F15F     CD CD          int     0CD
0012F161     CD CD          int     0CD
0012F163     CD CD          int     0CD
0012F165     CD CD          int     0CD
0012F167     CD CD          int     0CD
0012F169     CD CD          int     0CD
0012F16B     CD CD          int     0CD
0012F16D     CD CD          int     0CD
0012F16F     CD CD          int     0CD
0012F171     CD CD          int     0CD
0012F173     CD CD          int     0CD
0012F175     CD 86          int     86
0012F177     00B9 5C00006C  add     byte ptr ds:[ecx+6C00005C], bh
0012F17D     F9             stc
0012F17E     06             push    es
0012F17F     0073 E4        add     byte ptr ds:[ebx-1C], dh
0012F182     90             nop
0012F183   ^ 7C F0          jl      short 0012F175
0012F185     F5             cmc
0012F186     06             push    es
0012F187     002C00         add     byte ptr ds:[eax+eax], ch
0012F18A     0000           add     byte ptr ds:[eax], al
0012F18C     2C 00          sub     al, 0
0012F18E     0000           add     byte ptr ds:[eax], al
0012F190     2800           sub     byte ptr ds:[eax], al
0012F192     0000           add     byte ptr ds:[eax], al
0012F194     0100           add     dword ptr ds:[eax], eax
0012F196     0000           add     byte ptr ds:[eax], al
0012F198     1C 73          sbb     al, 73
0012F19A     1ABA 28000000  sbb     bh, byte ptr ds:[edx+28]
0012F1A0   ^ 7F 98          jg      short 0012F13A
0012F1A2     0000           add     byte ptr ds:[eax], al
0012F1A4     B4 F1          mov     ah, 0F1
0012F1A6     1200           adc     al, byte ptr ds:[eax]
0012F1A8     BB 77397609    mov     ebx, 9763977
0012F1AD     04 09          add     al, 9
0012F1AF     04 00          add     al, 0
0012F1B1     0000           add     byte ptr ds:[eax], al
0012F1B3     00C4           add     ah, al
0012F1B5     F1             int1                                                     ; Undocumented instruction or encoding
0012F1B6     1200           adc     al, byte ptr ds:[eax]
0012F1B8   ^ 70 B5          jo      short 0012F16F
0012F1BA     46             inc     esi
0012F1BB     7E 09          jle     short 0012F1C6
0012F1BD     04 09          add     al, 9
0012F1BF     04 90          add     al, 90
0012F1C1     57             push    edi
0012F1C2     14 00          adc     al, 0
0012F1C4     14 F4          adc     al, 0F4
0012F1C6     1200           adc     al, byte ptr ds:[eax]
0012F1C8     00BE 467E9057  add     byte ptr ds:[esi+57907E46], bh
0012F1CE     14 00          adc     al, 0
0012F1D0     2839           sub     byte ptr ds:[ecx], bh
0012F1D2     6200           bound   eax, qword ptr ds:[eax]
0012F1D4     8702           xchg    dword ptr ds:[edx], eax
0012F1D6     0000           add     byte ptr ds:[eax], al
0012F1D8     8ABE 467E10F4  mov     bh, byte ptr ds:[esi+F4107E46]
0012F1DE     1200           adc     al, byte ptr ds:[eax]
0012F1E0     AC             lods    byte ptr ds:[esi]
0012F1E1     8142 7E 00007  add     dword ptr ds:[edx+7E], 74720000
0012F1E8     04 F2          add     al, 0F2
0012F1EA     1200           adc     al, byte ptr ds:[eax]
0012F1EC     04 01          add     al, 1
0012F1EE     0000           add     byte ptr ds:[eax], al
0012F1F0     07             pop     es                                               ; Modification of segment register
0012F1F1     0000           add     byte ptr ds:[eax], al
0012F1F3     00CD           add     ch, cl
0012F1F5     04 73          add     al, 73
0012F1F7     74 10          je      short 0012F209
0012F1F9     0000           add     byte ptr ds:[eax], al
0012F1FB     00B0 53887C48  add     byte ptr ds:[eax+487C8853], dh
0012F201     F2:1200        repne adc al, byte ptr ds:[eax]                          ; Superfluous REPxx prefix
0012F204     0000           add     byte ptr ds:[eax], al
0012F206     0000           add     byte ptr ds:[eax], al
0012F208     34 F2          xor     al, F2
0012F20A     1200           adc     al, byte ptr ds:[eax]
0012F20C     2000           and     byte ptr ds:[eax], al
0012F20E     0000           add     byte ptr ds:[eax], al
0012F210     5C             pop     esp
0012F211     F2:1200        repne adc al, byte ptr ds:[eax]                          ; Superfluous REPxx prefix
0012F214     F8             clc
0012F215     FB             sti
0012F216     FD             std
0012F217     7F 48          jg      short 0012F261
0012F219     5D             pop     ebp
0012F21A     90             nop
0012F21B   ^ 7C EA          jl      short 0012F207
0012F21D     F2:1200        repne adc al, byte ptr ds:[eax]                          ; Superfluous REPxx prefix
0012F220     003490         add     byte ptr ds:[edx*4+eax], dh
0012F223     7C 01          jl      short 0012F226
0012F225     0200           add     al, byte ptr ds:[eax]
0012F227     0078 F2        add     byte ptr ds:[eax-0E], bh
0012F22A     1200           adc     al, byte ptr ds:[eax]
0012F22C     3B7D 91        cmp     edi, dword ptr ss:[ebp-6F]
0012F22F   ^ 7C EA          jl      short 0012F21B
0012F231     F2:1200        repne adc al, byte ptr ds:[eax]                          ; Superfluous REPxx prefix
0012F234     24 05          and     al, 05
0012F236     0000           add     byte ptr ds:[eax], al
0012F238     0000           add     byte ptr ds:[eax], al
0012F23A     90             nop
0012F23B   ^ 7C B8          jl      short 0012F1F5
0012F23D     48             dec     eax
0012F23E     90             nop
0012F23F     7C 48          jl      short 0012F289
0012F241     5D             pop     ebp
0012F242     90             nop
0012F243     7C 00          jl      short 0012F245
0012F245     0000           add     byte ptr ds:[eax], al
0012F247     0001           add     byte ptr ds:[ecx], al
0012F249     0000           add     byte ptr ds:[eax], al
0012F24B     00E8           add     al, ch
0012F24D     F2:1200        repne adc al, byte ptr ds:[eax]                          ; Superfluous REPxx prefix
0012F250     0000           add     byte ptr ds:[eax], al
0012F252     0000           add     byte ptr ds:[eax], al
0012F254     0100           add     dword ptr ds:[eax], eax
0012F256     0000           add     byte ptr ds:[eax], al
0012F258     0000           add     byte ptr ds:[eax], al
0012F25A     90             nop
0012F25B   ^ 7C D0          jl      short 0012F22D
0012F25D     0090 7C50F212  add     byte ptr ds:[eax+12F2507C], dl
0012F263     0001           add     byte ptr ds:[ecx], al
0012F265     0000           add     byte ptr ds:[eax], al
0012F267     0088 F2120085  add     byte ptr ds:[eax+850012F2], cl
0012F26D     0391 7C000090  add     edx, dword ptr ds:[ecx+9000007C]
0012F273     7C 00          jl      short 0012F275
0012F275     0000           add     byte ptr ds:[eax], al
0012F277     0044F3 12      add     byte ptr ds:[esi*8+ebx+12], al
0012F27B     0002           add     byte ptr ds:[edx], al
0012F27D   ^ 7C 91          jl      short 0012F210
0012F27F     7C 00          jl      short 0012F281
0012F281     0090 7CEAF212  add     byte ptr ds:[eax+12F2EA7C], dl
0012F287     00E4           add     ah, ah
0012F289     F2:1200        repne adc al, byte ptr ds:[eax]                          ; Superfluous REPxx prefix
0012F28C     E4 F2          in      al, 0F2                                          ; I/O command
0012F28E     1200           adc     al, byte ptr ds:[eax]
0012F290     EA F21200A7 7  jmp     far 917C:A70012F2                                ; Far jump or call
0012F297     7C 74          jl      short 0012F30D
0012F299     E1 97          loopz   short 0012F232
0012F29B     7C 51          jl      short 0012F2EE
0012F29D   ^ 7C 91          jl      short 0012F230
0012F29F   ^ 7C 98          jl      short 0012F239
0012F2A1     225C75 00      and     bl, byte ptr ss:[esi*2+ebp]
0012F2A5     0000           add     byte ptr ds:[eax], al
0012F2A7     00FF           add     bh, bh
0012F2A9     FF00           inc     dword ptr ds:[eax]
0012F2AB     0000           add     byte ptr ds:[eax], al
0012F2AD     F0:FD          lock std                                                 ; LOCK prefix is not allowed
0012F2AF     7F 60          jg      short 0012F311
0012F2B1     282400         sub     byte ptr ds:[eax+eax], ah
0012F2B4     2852 14        sub     byte ptr ds:[edx+14], dl
0012F2B7     0000           add     byte ptr ds:[eax], al
0012F2B9     34 90          xor     al, 90
0012F2BB     7C 00          jl      short 0012F2BD
0012F2BD     0000           add     byte ptr ds:[eax], al
0012F2BF     0070 28        add     byte ptr ds:[eax+28], dh
0012F2C2     24 00          and     al, 00
0012F2C4     94             xchg    eax, esp
0012F2C5     F3:1200        rep adc al, byte ptr ds:[eax]                            ; Superfluous REPxx prefix
0012F2C8     0000           add     byte ptr ds:[eax], al
0012F2CA     90             nop
0012F2CB   ^ 7C A2          jl      short 0012F26F
0012F2CD     0205 00E8F212  add     al, byte ptr ds:[12F2E800]
0012F2D3     00E8           add     al, ch
0012F2D5     F2:1200        repne adc al, byte ptr ds:[eax]                          ; Superfluous REPxx prefix
0012F2D8     0000           add     byte ptr ds:[eax], al
0012F2DA     0000           add     byte ptr ds:[eax], al
0012F2DC     5E             pop     esi
0012F2DD     9A 0000481F 2  call    far 0024:1F480000                                ; Far jump or call
0012F2E4     07             pop     es                                               ; Modification of segment register
0012F2E5     36:91          xchg    eax, ecx                                         ; Superfluous segment override prefix
0012F2E7     7C 00          jl      short 0012F2E9
0012F2E9     0052 74        add     byte ptr ds:[edx+74], dl
0012F2EC     6C             ins     byte ptr es:[edi], dx                            ; I/O command
0012F2ED     44             inc     esp
0012F2EE     6C             ins     byte ptr es:[edi], dx                            ; I/O command
0012F2EF     6C             ins     byte ptr es:[edi], dx                            ; I/O command
0012F2F0     53             push    ebx
0012F2F1     68 7574646F    push    6F647475
0012F2F6     77 6E          ja      short 0012F366
0012F2F8     49             dec     ecx
0012F2F9     6E             outs    dx, byte ptr ds:[esi]                            ; I/O command
0012F2FA     50             push    eax
0012F2FB     72 6F          jb      short 0012F36C
0012F2FD     67:72 65       jb      short 0012F365                                   ; Superfluous address size prefix
0012F300     73 73          jae     short 0012F375
0012F302     0000           add     byte ptr ds:[eax], al
0012F304     0000           add     byte ptr ds:[eax], al
0012F306     0000           add     byte ptr ds:[eax], al
0012F308     0000           add     byte ptr ds:[eax], al
0012F30A     0000           add     byte ptr ds:[eax], al
0012F30C     2A26           sub     ah, byte ptr ds:[esi]
0012F30E     807CF9 15 91   cmp     byte ptr ds:[edi*8+ecx+15], 91
0012F313     7C 30          jl      short 0012F345
0012F315     F3:1200        rep adc al, byte ptr ds:[eax]                            ; Superfluous REPxx prefix
0012F318     28C2           sub     dl, al
0012F31A     007E 00        add     byte ptr ds:[esi], bh
0012F31D     001400         add     byte ptr ds:[eax+eax], dl
0012F320     BE 94417E0D    mov     esi, 0D7E4194
0012F325     8E42 7E        mov     es, dword ptr ds:[edx+7E]                        ; Modification of segment register
0012F328     A2 02050083    mov     byte ptr ds:[83000502], al
0012F32D     0000           add     byte ptr ds:[eax], al
0012F32F     0000           add     byte ptr ds:[eax], al
0012F331     0000           add     byte ptr ds:[eax], al
0012F333     00D4           add     ah, dl
0012F335     F612           not     byte ptr ds:[edx]
0012F337     0000           add     byte ptr ds:[eax], al
0012F339     0000           add     byte ptr ds:[eax], al
0012F33B     009E 02000001  add     byte ptr ds:[esi+1000002], bl
0012F341     0000           add     byte ptr ds:[eax], al
0012F343     003CF4         add     byte ptr ss:[esi*8+esp], bh
0012F346     1200           adc     al, byte ptr ds:[eax]
0012F348   ^ 7E C1          jle     short 0012F30B
0012F34A     42             inc     edx
0012F34B     7E 00          jle     short 0012F34D
0012F34D     0000           add     byte ptr ds:[eax], al
0012F34F     0000           add     byte ptr ds:[eax], al
0012F351     0000           add     byte ptr ds:[eax], al
0012F353     00BE 94417E0D  add     byte ptr ds:[esi+0D7E4194], bh
0012F359     8E42 7E        mov     es, dword ptr ds:[edx+7E]                        ; Modification of segment register
0012F35C     A0 020200B3    mov     al, byte ptr ds:[B3000202]
0012F361     0216           add     dl, byte ptr ds:[esi]
0012F363     00AA CF467E17  add     byte ptr ds:[edx+177E46CF], ch
0012F369     BA 467EB302    mov     edx, 2B37E46
0012F36E     16             push    ss
0012F36F     008CF3 120028  add     byte ptr ds:[esi*8+ebx+C2280012], cl
0012F376     42             inc     edx
0012F377   ^ 7E A2          jle     short 0012F31B
0012F379     0205 00830000  add     al, byte ptr ds:[8300]
0012F37F     0000           add     byte ptr ds:[eax], al
0012F381     0000           add     byte ptr ds:[eax], al
0012F383     00D4           add     ah, dl
0012F385     F612           not     byte ptr ds:[edx]
0012F387     0001           add     byte ptr ds:[ecx], al
0012F389     0000           add     byte ptr ds:[eax], al
0012F38B     00D4           add     ah, dl
0012F38D     F3:1200        rep adc al, byte ptr ds:[eax]                            ; Superfluous REPxx prefix
0012F390     D5 C1          aad     0C1
0012F392     42             inc     edx
0012F393   ^ 7E A2          jle     short 0012F337
0012F395     0205 00830000  add     al, byte ptr ds:[8300]
0012F39B     0000           add     byte ptr ds:[eax], al
0012F39D     0000           add     byte ptr ds:[eax], al
0012F39F     00E9           add     cl, ch
0012F3A1     C142 7E 3C     rol     dword ptr ds:[edx+7E], 3C                        ; Shift out of range
0012F3A5     F4             hlt                                                      ; Privileged instruction
0012F3A6     1200           adc     al, byte ptr ds:[eax]
0012F3A8   ^ 7E C1          jle     short 0012F36B
0012F3AA     42             inc     edx
0012F3AB     7E 00          jle     short 0012F3AD
0012F3AD     0000           add     byte ptr ds:[eax], al
0012F3AF     0000           add     byte ptr ds:[eax], al
0012F3B1     0000           add     byte ptr ds:[eax], al
0012F3B3     007E C1        add     byte ptr ds:[esi-3F], bh
0012F3B6     42             inc     edx
0012F3B7     7E 00          jle     short 0012F3B9
0012F3B9     0000           add     byte ptr ds:[eax], al
0012F3BB     00A4F3 120050  add     byte ptr ds:[esi*8+ebx+F4500012], ah
0012F3C2     1200           adc     al, byte ptr ds:[eax]
0012F3C4     58             pop     eax
0012F3C5     F4             hlt                                                      ; Privileged instruction
0012F3C6     1200           adc     al, byte ptr ds:[eax]
0012F3C8     8F0444         pop     dword ptr ss:[eax*2+esp]
0012F3CB   ^ 7E F0          jle     short 0012F3BD
0012F3CD     C142 7E FF     rol     dword ptr ds:[edx+7E], 0FF                       ; Shift out of range
0012F3D1     FF             db FF                                                    ; Unknown command
0012F3D2     FF             db FF                                                    ; Unknown command
0012F3D3     FFE9           jmp     ecx                                              ; Illegal use of register
0012F3D5     C142 7E 34     rol     dword ptr ds:[edx+7E], 34                        ; Shift out of range
0012F3D9     8741 7E        xchg    dword ptr ds:[ecx+7E], eax
0012F3DC     A2 02050083    mov     byte ptr ds:[83000502], al
0012F3E1     0000           add     byte ptr ds:[eax], al
0012F3E3     00C4           add     ah, al
0012F3E5     39EA           cmp     edx, ebp
0012F3E7     73 70          jae     short 0012F459
0012F3E9     F4             hlt                                                      ; Privileged instruction
0012F3EA     1200           adc     al, byte ptr ds:[eax]
0012F3EC     68 5033005D    push    5D003350
0012F3F1     2040 00        and     byte ptr ds:[eax], al
0012F3F4   ^ 70 F4          jo      short 0012F3EA
0012F3F6     1200           adc     al, byte ptr ds:[eax]
0012F3F8     F8             clc
0012F3F9     1D DD732A09    sbb     eax, 92A73DD
0012F3FE     0000           add     byte ptr ds:[eax], al
0012F400     68 50330068    push    68003350
0012F405     50             push    eax
0012F406     3300           xor     eax, dword ptr ds:[eax]
0012F408     48             dec     eax
0012F409     2E:14 00       adc     al, 0                                            ; Superfluous segment override prefix
0012F40C     68 F412005A    push    5A0012F4
0012F411     8841 7E        mov     byte ptr ds:[ecx+7E], al
0012F414     28F4           sub     ah, dh
0012F416     1200           adc     al, byte ptr ds:[eax]
0012F418     2A88 417E8300  sub     cl, byte ptr ds:[eax+837E41]
0012F41E     0000           add     byte ptr ds:[eax], al
0012F420   ^ 7E C1          jle     short 0012F3E3
0012F422     42             inc     edx
0012F423     7E 48          jle     short 0012F46D
0012F425     2E:14 00       adc     al, 0                                            ; Superfluous segment override prefix
0012F428     14 00          adc     al, 0
0012F42A     0000           add     byte ptr ds:[eax], al
0012F42C     0100           add     dword ptr ds:[eax], eax
0012F42E     0000           add     byte ptr ds:[eax], al
0012F430     0000           add     byte ptr ds:[eax], al
0012F432     0000           add     byte ptr ds:[eax], al
0012F434     0000           add     byte ptr ds:[eax], al
0012F436     0000           add     byte ptr ds:[eax], al
0012F438     1000           adc     byte ptr ds:[eax], al
0012F43A     0000           add     byte ptr ds:[eax], al
0012F43C     0000           add     byte ptr ds:[eax], al
0012F43E     0000           add     byte ptr ds:[eax], al
0012F440     A0 02020000    mov     al, byte ptr ds:[202]
0012F445     0000           add     byte ptr ds:[eax], al
0012F447     0000           add     byte ptr ds:[eax], al
0012F449     0000           add     byte ptr ds:[eax], al
0012F44B     0000           add     byte ptr ds:[eax], al
0012F44D     0000           add     byte ptr ds:[eax], al
0012F44F     001CF4         add     byte ptr ss:[esi*8+esp], bl
0012F452     1200           adc     al, byte ptr ds:[eax]
0012F454     19E4           sbb     esp, esp
0012F456     E5 73          in      eax, 73                                          ; I/O command
0012F458     48             dec     eax
0012F459     F5             cmc
0012F45A     1200           adc     al, byte ptr ds:[eax]
0012F45C     98             cwde
0012F45D     3940 00        cmp     dword ptr ds:[eax], eax
0012F460     0000           add     byte ptr ds:[eax], al
0012F462     0000           add     byte ptr ds:[eax], al
0012F464     E4 F4          in      al, 0F4                                          ; I/O command
0012F466     1200           adc     al, byte ptr ds:[eax]
0012F468     F0:42          lock inc edx                                             ; LOCK prefix is not allowed
0012F46A     E6 73          out     73, al                                           ; I/O command
0012F46C     FF             db FF                                                    ; Unknown command
0012F46D     FF             db FF                                                    ; Unknown command
0012F46E     FF             db FF                                                    ; Unknown command
0012F46F     FF90 F4120007  call    dword ptr ds:[eax+70012F4]
0012F475     1BDD           sbb     ebx, ebp
0012F477     73 01          jae     short 0012F47A
0012F479     0000           add     byte ptr ds:[eax], al
0012F47B     0000           add     byte ptr ds:[eax], al
0012F47D     0000           add     byte ptr ds:[eax], al
0012F47F     00A0 3940008C  add     byte ptr ds:[eax+8C004039], ah
0012F485     F4             hlt                                                      ; Privileged instruction
0012F486     1200           adc     al, byte ptr ds:[eax]
0012F488     0100           add     dword ptr ds:[eax], eax
0012F48A     0000           add     byte ptr ds:[eax], al
0012F48C     0000           add     byte ptr ds:[eax], al
0012F48E     0000           add     byte ptr ds:[eax], al
0012F490     F0:F4          lock hlt                                                 ; LOCK prefix is not allowed
0012F492     1200           adc     al, byte ptr ds:[eax]
0012F494     78 1A          js      short 0012F4B0
0012F496     DD73 01        fsave   ds:[ebx+1]
0012F499     0000           add     byte ptr ds:[eax], al
0012F49B     0000           add     byte ptr ds:[eax], al
0012F49D     0000           add     byte ptr ds:[eax], al
0012F49F     008CF6 1200A4  add     byte ptr ds:[esi*8+esi+F5A40012], cl
0012F4A6     1200           adc     al, byte ptr ds:[eax]
0012F4A8     A2 02050000    mov     byte ptr ds:[502], al
0012F4AD     0000           add     byte ptr ds:[eax], al
0012F4AF     0000           add     byte ptr ds:[eax], al
0012F4B1     0000           add     byte ptr ds:[eax], al
0012F4B3     0000           add     byte ptr ds:[eax], al
0012F4B5     0000           add     byte ptr ds:[eax], al
0012F4B7     0000           add     byte ptr ds:[eax], al
0012F4B9     0000           add     byte ptr ds:[eax], al
0012F4BB     0000           add     byte ptr ds:[eax], al
0012F4BD     0000           add     byte ptr ds:[eax], al
0012F4BF     0000           add     byte ptr ds:[eax], al
0012F4C1     0000           add     byte ptr ds:[eax], al
0012F4C3     0000           add     byte ptr ds:[eax], al
0012F4C5     0000           add     byte ptr ds:[eax], al
0012F4C7     0000           add     byte ptr ds:[eax], al
0012F4C9     0000           add     byte ptr ds:[eax], al
0012F4CB     00D6           add     dh, dl
0012F4CD     E2 E5          loop    short 0012F4B4
0012F4CF     73 03          jae     short 0012F4D4
0012F4D1     0000           add     byte ptr ds:[eax], al
0012F4D3     00A4F5 1200A2  add     byte ptr ss:[esi*8+ebp+2A20012], ah
0012F4DA     05 00482E14    add     eax, 142E4800
0012F4DF     00A4F4 120030  add     byte ptr ss:[esi*8+esp+F5300012], ah
0012F4E6     1200           adc     al, byte ptr ds:[eax]
0012F4E8     6A 42          push    42
0012F4EA     E6 73          out     73, al                                           ; I/O command
0012F4EC     0000           add     byte ptr ds:[eax], al
0012F4EE     0000           add     byte ptr ds:[eax], al
0012F4F0     10F5           adc     ch, dh
0012F4F2     1200           adc     al, byte ptr ds:[eax]
0012F4F4     D019           rcr     byte ptr ds:[ecx], 1
0012F4F6     DD73 68        fsave   ds:[ebx+68]
0012F4F9     50             push    eax
0012F4FA     3300           xor     eax, dword ptr ds:[eax]
0012F4FC     0000           add     byte ptr ds:[eax], al
0012F4FE     0000           add     byte ptr ds:[eax], al
0012F500     0100           add     dword ptr ds:[eax], eax
0012F502     0000           add     byte ptr ds:[eax], al
0012F504     0000           add     byte ptr ds:[eax], al
0012F506     0000           add     byte ptr ds:[eax], al
0012F508     8CF6           mov     esi, seg6:                                       ; Invalid segment register
0012F50A     1200           adc     al, byte ptr ds:[eax]
0012F50C     43             inc     ebx
0012F50D     E4 E5          in      al, 0E5                                          ; I/O command
0012F50F     73 3C          jae     short 0012F54D
0012F511     F5             cmc
0012F512     1200           adc     al, byte ptr ds:[eax]
0012F514   ^ 7C E4          jl      short 0012F4FA
0012F516     E5 73          in      eax, 73                                          ; I/O command
0012F518     A2 02050001    mov     byte ptr ds:[1000502], al
0012F51D     0000           add     byte ptr ds:[eax], al
0012F51F     0000           add     byte ptr ds:[eax], al
0012F521     0000           add     byte ptr ds:[eax], al
0012F523     008CF6 120000  add     byte ptr ds:[esi*8+esi+12], cl
0012F52A     0000           add     byte ptr ds:[eax], al
0012F52C     48             dec     eax
0012F52D     2E:14 00       adc     al, 0                                            ; Superfluous segment override prefix
0012F530     C0F5 12        sal     ch, 12                                           ; Shift out of range
0012F533     00EC           add     ah, ch
0012F535     41             inc     ecx
0012F536     E6 73          out     73, al                                           ; I/O command
0012F538     0000           add     byte ptr ds:[eax], al
0012F53A     0000           add     byte ptr ds:[eax], al
0012F53C     68 F5120034    push    340012F5
0012F541     8741 7E        xchg    dword ptr ds:[ecx+7E], eax
0012F544     A2 02050001    mov     byte ptr ds:[1000502], al
0012F549     0000           add     byte ptr ds:[eax], al
0012F54B     0000           add     byte ptr ds:[eax], al
0012F54D     0000           add     byte ptr ds:[eax], al
0012F54F     008CF6 120043  add     byte ptr ds:[esi*8+esi+E4430012], cl
0012F556     E5 73          in      eax, 73                                          ; I/O command
0012F558     CD AB          int     0AB
0012F55A     BA DC000000    mov     edx, 0DC
0012F55F     00A4F5 120043  add     byte ptr ss:[esi*8+ebp+E4430012], ah
0012F566     E5 73          in      eax, 73                                          ; I/O command
0012F568     D0F5           sal     ch, 1                                            ; Undocumented instruction or encoding
0012F56A     1200           adc     al, byte ptr ds:[eax]
0012F56C     16             push    ss
0012F56D     8841 7E        mov     byte ptr ds:[ecx+7E], al
0012F570     43             inc     ebx
0012F571     E4 E5          in      al, 0E5                                          ; I/O command
0012F573   ^ 73 A2          jae     short 0012F517
0012F575     0205 00010000  add     al, byte ptr ds:[100]
0012F57B     0000           add     byte ptr ds:[eax], al
0012F57D     0000           add     byte ptr ds:[eax], al
0012F57F     008CF6 120000  add     byte ptr ds:[esi*8+esi+12], cl
0012F586     0000           add     byte ptr ds:[eax], al
0012F588     A2 02050000    mov     byte ptr ds:[502], al
0012F58D     0000           add     byte ptr ds:[eax], al
0012F58F     001400         add     byte ptr ds:[eax+eax], dl
0012F592     0000           add     byte ptr ds:[eax], al
0012F594     0100           add     dword ptr ds:[eax], eax
0012F596     0000           add     byte ptr ds:[eax], al
0012F598     0000           add     byte ptr ds:[eax], al
0012F59A     0000           add     byte ptr ds:[eax], al
0012F59C     0000           add     byte ptr ds:[eax], al
0012F59E     0000           add     byte ptr ds:[eax], al
0012F5A0     1000           adc     byte ptr ds:[eax], al
0012F5A2     0000           add     byte ptr ds:[eax], al
0012F5A4     0000           add     byte ptr ds:[eax], al
0012F5A6     0000           add     byte ptr ds:[eax], al
0012F5A8     A2 02050000    mov     byte ptr ds:[502], al
0012F5AD     0000           add     byte ptr ds:[eax], al
0012F5AF     0000           add     byte ptr ds:[eax], al
0012F5B1     0000           add     byte ptr ds:[eax], al
0012F5B3     0000           add     byte ptr ds:[eax], al
0012F5B5     0000           add     byte ptr ds:[eax], al
0012F5B7     0084F5 1200CD  add     byte ptr ss:[esi*8+ebp+ABCD0012], al
0012F5BE     BA DC14F612    mov     edx, 12F614DC
0012F5C3     008F 04447E30  add     byte ptr ds:[edi+307E4404], cl
0012F5C9     8841 7E        mov     byte ptr ds:[ecx+7E], al
0012F5CC     0000           add     byte ptr ds:[eax], al
0012F5CE     0000           add     byte ptr ds:[eax], al
0012F5D0     24 F6          and     al, F6
0012F5D2     1200           adc     al, byte ptr ds:[eax]
0012F5D4     A0 8E427E00    mov     al, byte ptr ds:[7E428E]
0012F5D9     0000           add     byte ptr ds:[eax], al
0012F5DB     0043 E4        add     byte ptr ds:[ebx-1C], al
0012F5DE     E5 73          in      eax, 73                                          ; I/O command
0012F5E0     A2 02050001    mov     byte ptr ds:[1000502], al
0012F5E5     0000           add     byte ptr ds:[eax], al
0012F5E7     0000           add     byte ptr ds:[eax], al
0012F5E9     0000           add     byte ptr ds:[eax], al
0012F5EB     008CF6 12005C  add     byte ptr ds:[esi*8+esi+375C0012], cl
0012F5F2     6200           bound   eax, qword ptr ds:[eax]
0012F5F4     0100           add     dword ptr ds:[eax], eax
0012F5F6     0000           add     byte ptr ds:[eax], al
0012F5F8     0000           add     byte ptr ds:[eax], al
0012F5FA     0000           add     byte ptr ds:[eax], al
0012F5FC     64:F612        not     byte ptr fs:[edx]
0012F5FF     0000           add     byte ptr ds:[eax], al
0012F601     0000           add     byte ptr ds:[eax], al
0012F603     0010           add     byte ptr ds:[eax], dl
0012F605     0000           add     byte ptr ds:[eax], al
0012F607     0000           add     byte ptr ds:[eax], al
0012F609     0000           add     byte ptr ds:[eax], al
0012F60B     00F8           add     al, bh
0012F60D     F5             cmc
0012F60E     1200           adc     al, byte ptr ds:[eax]
0012F610     0000           add     byte ptr ds:[eax], al
0012F612     0000           add     byte ptr ds:[eax], al
0012F614     50             push    eax
0012F615     FD             std
0012F616     1200           adc     al, byte ptr ds:[eax]
0012F618     8F0444         pop     dword ptr ss:[eax*2+esp]
0012F61B   ^ 7E B0          jle     short 0012F5CD
0012F61D     8E42 7E        mov     es, dword ptr ds:[edx+7E]                        ; Modification of segment register
0012F620     FF             db FF                                                    ; Unknown command
0012F621     FF             db FF                                                    ; Unknown command
0012F622     FF             db FF                                                    ; Unknown command
0012F623     FF54F6 12      call    dword ptr ds:[esi*8+esi+12]
0012F627     007CCE 42      add     byte ptr ds:[ecx*8+esi+42], bh
0012F62B     7E 48          jle     short 0012F675
0012F62D     37             aaa
0012F62E     6200           bound   eax, qword ptr ds:[eax]
0012F630     0100           add     dword ptr ds:[eax], eax
0012F632     0000           add     byte ptr ds:[eax], al
0012F634     0000           add     byte ptr ds:[eax], al
0012F636     0000           add     byte ptr ds:[eax], al
0012F638     8CF6           mov     esi, seg6:                                       ; Invalid segment register
0012F63A     1200           adc     al, byte ptr ds:[eax]
0012F63C     43             inc     ebx
0012F63D     E4 E5          in      al, 0E5                                          ; I/O command
0012F63F     73 00          jae     short 0012F641
0012F641     00FF           add     bh, bh
0012F643     FF08           dec     dword ptr ds:[eax]
0012F645     FC             cld
0012F646     1200           adc     al, byte ptr ds:[eax]
0012F648     8300 00        add     dword ptr ds:[eax], 0
0012F64B     0000           add     byte ptr ds:[eax], al
0012F64D     0000           add     byte ptr ds:[eax], al
0012F64F     0000           add     byte ptr ds:[eax], al
0012F651     0000           add     byte ptr ds:[eax], al
0012F653     0084FB 120073  add     byte ptr ds:[edi*8+ebx+E4730012], al
0012F65A     90             nop
0012F65B     7C 64          jl      short 0012F6C1
0012F65D     F612           not     byte ptr ds:[edx]
0012F65F     0080 00000080  add     byte ptr ds:[eax+80000000], al
0012F665     0000           add     byte ptr ds:[eax], al
0012F667     0017           add     byte ptr ds:[edi], dl
0012F669     0000           add     byte ptr ds:[eax], al
0012F66B     0002           add     byte ptr ds:[edx], al
0012F66D     0000           add     byte ptr ds:[eax], al
0012F66F     0030           add     byte ptr ds:[eax], dh
0012F671     E9 F4B66000    jmp     0073AD6A
0012F676     0000           add     byte ptr ds:[eax], al
0012F678     0000           add     byte ptr ds:[eax], al
0012F67A     0000           add     byte ptr ds:[eax], al
0012F67C     48             dec     eax
0012F67D     37             aaa
0012F67E     6200           bound   eax, qword ptr ds:[eax]
0012F680     0100           add     dword ptr ds:[eax], eax
0012F682     0000           add     byte ptr ds:[eax], al
0012F684     0000           add     byte ptr ds:[eax], al
0012F686     0000           add     byte ptr ds:[eax], al
0012F688     CC             int3
0012F689   ^ EB F4          jmp     short 0012F67F
0012F68B     B6 7C          mov     dh, 7C
0012F68D     FD             std
0012F68E     1200           adc     al, byte ptr ds:[eax]
0012F690     0000           add     byte ptr ds:[eax], al
0012F692     40             inc     eax
0012F693     008D 010E0000  add     byte ptr ss:[ebp+0E01], cl
0012F699     0000           add     byte ptr ds:[eax], al
0012F69B     0000           add     byte ptr ds:[eax], al
0012F69D     0000           add     byte ptr ds:[eax], al
0012F69F     8000 00        add     byte ptr ds:[eax], 0
0012F6A2     0080 32000000  add     byte ptr ds:[eax+32], al
0012F6A8     16             push    ss
0012F6A9     0000           add     byte ptr ds:[eax], al
0012F6AB     0000           add     byte ptr ds:[eax], al
0012F6AD     C0CF 00        ror     bh, 0                                            ; Shift out of range
0012F6B0     CC             int3
0012F6B1     F612           not     byte ptr ds:[edx]
0012F6B3     00D0           add     al, dl
0012F6B5     F612           not     byte ptr ds:[edx]
0012F6B7     0000           add     byte ptr ds:[eax], al
0012F6B9     0300           add     eax, dword ptr ds:[eax]
0012F6BB     0043 E4        add     byte ptr ds:[ebx-1C], al
0012F6BE     E5 73          in      eax, 73                                          ; I/O command
0012F6C0     53             push    ebx
0012F6C1     8E42 7E        mov     es, dword ptr ds:[edx+7E]                        ; Modification of segment register
0012F6C4     4C             dec     esp
0012F6C5     0000           add     byte ptr ds:[eax], al
0012F6C7     0050 00        add     byte ptr ds:[eax], dl
0012F6CA     0000           add     byte ptr ds:[eax], al
0012F6CC     0039           add     byte ptr ds:[ecx], bh
0012F6CE     6200           bound   eax, qword ptr ds:[eax]
0012F6D0     41             inc     ecx
0012F6D1   ^ 66:78 46       js      short 0F71A                                      ; 16-bit jump or call
0012F6D4     72 61          jb      short 0012F737
0012F6D6     6D             ins     dword ptr es:[edi], dx                           ; I/O command
0012F6D7     65:4F          dec     edi                                              ; Superfluous segment override prefix
0012F6D9     72 56          jb      short 0012F731
0012F6DB     6965 77 34320  imul    esp, dword ptr ss:[ebp+77], -71FFCDCC
0012F6E2     42             inc     edx
0012F6E3   ^ 7E 89          jle     short 0012F66E
0012F6E5     E3 42          jecxz   short 0012F729
0012F6E7     7E 4F          jle     short 0012F738
0012F6E9     E3 42          jecxz   short 0012F72D
0012F6EB     7E 00          jle     short 0012F6ED
0012F6ED     0200           add     al, byte ptr ds:[eax]
0012F6EF     8008 FC        or      byte ptr ds:[eax], FC
0012F6F2     1200           adc     al, byte ptr ds:[eax]
0012F6F4     34 F7          xor     al, F7
0012F6F6     1200           adc     al, byte ptr ds:[eax]
0012F6F8     1C FC          sbb     al, 0FC
0012F6FA     1200           adc     al, byte ptr ds:[eax]
0012F6FC     00C0           add     al, al
0012F6FE     CF             iretd                                                    ; Far jump or call
0012F6FF     0000           add     byte ptr ds:[eax], al
0012F701     0000           add     byte ptr ds:[eax], al
0012F703     8000 00        add     byte ptr ds:[eax], 0
0012F706     0080 00000080  add     byte ptr ds:[eax+80000000], al
0012F70C     0000           add     byte ptr ds:[eax], al
0012F70E     0080 00000000  add     byte ptr ds:[eax], al
0012F714     8D01           lea     eax, [ecx]
0012F716     0E             push    cs
0012F717     0000           add     byte ptr ds:[eax], al
0012F719     0040 00        add     byte ptr ds:[eax], al
0012F71C   ^ 7C FD          jl      short 0012F71B
0012F71E     1200           adc     al, byte ptr ds:[eax]
0012F720     000400         add     byte ptr ds:[eax+eax], al
0012F723     40             inc     eax
0012F724     0000           add     byte ptr ds:[eax], al
0012F726     0000           add     byte ptr ds:[eax], al
0012F728     08FC           or      ah, bh
0012F72A     1200           adc     al, byte ptr ds:[eax]
0012F72C     10C7           adc     bh, al
0012F72E     E9 73000400    jmp     0016F7A6
0012F733     40             inc     eax
0012F734     2000           and     byte ptr ds:[eax], al
0012F736     0000           add     byte ptr ds:[eax], al
0012F738     2200           and     al, byte ptr ds:[eax]
0012F73A     0000           add     byte ptr ds:[eax], al
0012F73C     D850 14        fcom    dword ptr ds:[eax+14]
0012F73F     0008           add     byte ptr ds:[eax], cl
0012F741     FC             cld
0012F742     1200           adc     al, byte ptr ds:[eax]
0012F744     0000           add     byte ptr ds:[eax], al
0012F746     0000           add     byte ptr ds:[eax], al
0012F748     0010           add     byte ptr ds:[eax], dl
0012F74A     0000           add     byte ptr ds:[eax], al
0012F74C     0000           add     byte ptr ds:[eax], al
0012F74E     3300           xor     eax, dword ptr ds:[eax]
0012F750     0000           add     byte ptr ds:[eax], al
0012F752     40             inc     eax
0012F753     001CFC         add     byte ptr ss:[edi*8+esp], bl
0012F756     1200           adc     al, byte ptr ds:[eax]
0012F758     0000           add     byte ptr ds:[eax], al
0012F75A     0000           add     byte ptr ds:[eax], al
0012F75C   ^ 7C FD          jl      short 0012F75B
0012F75E     1200           adc     al, byte ptr ds:[eax]
0012F760     0000           add     byte ptr ds:[eax], al
0012F762     0040 8D        add     byte ptr ds:[eax-73], al
0012F765     010E           add     dword ptr ds:[esi], ecx
0012F767     0000           add     byte ptr ds:[eax], al
0012F769     0000           add     byte ptr ds:[eax], al
0012F76B     0000           add     byte ptr ds:[eax], al
0012F76D     0000           add     byte ptr ds:[eax], al
0012F76F     0000           add     byte ptr ds:[eax], al
0012F771     0000           add     byte ptr ds:[eax], al
0012F773     0000           add     byte ptr ds:[eax], al
0012F775     0000           add     byte ptr ds:[eax], al
0012F777     0034F7         add     byte ptr ds:[esi*8+edi], dh
0012F77A     1200           adc     al, byte ptr ds:[eax]
0012F77C     0000           add     byte ptr ds:[eax], al
0012F77E     0000           add     byte ptr ds:[eax], al
0012F780     6C             ins     byte ptr es:[edi], dx                            ; I/O command
0012F781     F8             clc
0012F782     1200           adc     al, byte ptr ds:[eax]
0012F784     0000           add     byte ptr ds:[eax], al
0012F786     0000           add     byte ptr ds:[eax], al
0012F788     6C             ins     byte ptr es:[edi], dx                            ; I/O command
0012F789     F8             clc
0012F78A     1200           adc     al, byte ptr ds:[eax]
0012F78C     51             push    ecx
0012F78D     A3 917C0000    mov     dword ptr ds:[7C91], eax
0012F792     14 00          adc     al, 0
0012F794     CB             retf                                                     ; Far jump or call
0012F795     A3 917C1051    mov     dword ptr ds:[51107C91], eax
0012F79A     14 00          adc     al, 0
0012F79C     0000           add     byte ptr ds:[eax], al
0012F79E     14 00          adc     al, 0
0012F7A0     1851 14        sbb     byte ptr ds:[ecx+14], dl
0012F7A3     0000           add     byte ptr ds:[eax], al
0012F7A5     0000           add     byte ptr ds:[eax], al
0012F7A7     0078 01        add     byte ptr ds:[eax+1], bh
0012F7AA     3300           xor     eax, dword ptr ds:[eax]
0012F7AC     F8             clc
0012F7AD     0100           add     dword ptr ds:[eax], eax
0012F7AF     0001           add     byte ptr ds:[ecx], al
0012F7B1     0000           add     byte ptr ds:[eax], al
0012F7B3     00D8           add     al, bl
0012F7B5     50             push    eax
0012F7B6     14 00          adc     al, 0
0012F7B8     D850 14        fcom    dword ptr ds:[eax+14]
0012F7BB     0040 F8        add     byte ptr ds:[eax-8], al
0012F7BE     1200           adc     al, byte ptr ds:[eax]
0012F7C0     0000           add     byte ptr ds:[eax], al
0012F7C2     14 00          adc     al, 0
0012F7C4     CB             retf                                                     ; Far jump or call
0012F7C5     A3 917CFCF7    mov     dword ptr ds:[F7FC7C91], eax
0012F7CA     1200           adc     al, byte ptr ds:[eax]
0012F7CC     D7             xlat    byte ptr ds:[ebx+al]
0012F7CD     F2:96          repne xchg eax, esi                                      ; Superfluous REPxx prefix
0012F7CF     7C 00          jl      short 0012F7D1
0012F7D1     001400         add     byte ptr ds:[eax+eax], dl
0012F7D4     0000           add     byte ptr ds:[eax], al
0012F7D6     0000           add     byte ptr ds:[eax], al
0012F7D8     0100           add     dword ptr ds:[eax], eax
0012F7DA     0000           add     byte ptr ds:[eax], al
0012F7DC     0000           add     byte ptr ds:[eax], al
0012F7DE     14 00          adc     al, 0
0012F7E0     D850 14        fcom    dword ptr ds:[eax+14]
0012F7E3     00F8           add     al, bh
0012F7E5     F712           not     dword ptr ds:[edx]
0012F7E7     005CF8 12      add     byte ptr ds:[edi*8+eax+12], bl
0012F7EB     0020           add     byte ptr ds:[eax], ah
0012F7ED     E9 907C0000    jmp     00137482
0012F7F2     0000           add     byte ptr ds:[eax], al
0012F7F4     78 01          js      short 0012F7F7
0012F7F6     14 00          adc     al, 0
0012F7F8     0000           add     byte ptr ds:[eax], al
0012F7FA     0000           add     byte ptr ds:[eax], al
0012F7FC     D050 14        rcl     byte ptr ds:[eax+14], 1
0012F7FF     0040 00        add     byte ptr ds:[eax], al
0012F802     0000           add     byte ptr ds:[eax], al
0012F804     78 01          js      short 0012F807
0012F806     14 00          adc     al, 0
0012F808     C405 977C0100  les     eax, fword ptr ds:[17C97]                        ; Modification of segment register
0012F80E     0000           add     byte ptr ds:[eax], al
0012F810     78 01          js      short 0012F813
0012F812     14 00          adc     al, 0
0012F814     60             pushad
0012F815     0000           add     byte ptr ds:[eax], al
0012F817     40             inc     eax
0012F818     50             push    eax
0012F819     52             push    edx
0012F81A     3300           xor     eax, dword ptr ds:[eax]
0012F81C     60             pushad
0012F81D     50             push    eax
0012F81E     3300           xor     eax, dword ptr ds:[eax]
0012F820     0000           add     byte ptr ds:[eax], al
0012F822     0000           add     byte ptr ds:[eax], al
0012F824     0000           add     byte ptr ds:[eax], al
0012F826     0000           add     byte ptr ds:[eax], al
0012F828     0000           add     byte ptr ds:[eax], al
0012F82A     14 00          adc     al, 0
0012F82C     28F6           sub     dh, dh
0012F82E     1200           adc     al, byte ptr ds:[eax]
0012F830     0000           add     byte ptr ds:[eax], al
0012F832     14 00          adc     al, 0
0012F834     0000           add     byte ptr ds:[eax], al
0012F836     14 00          adc     al, 0
0012F838     CB             retf                                                     ; Far jump or call
0012F839     A3 917C70F8    mov     dword ptr ds:[F8707C91], eax
0012F83E     1200           adc     al, byte ptr ds:[eax]
0012F840     D7             xlat    byte ptr ds:[ebx+al]
0012F841     F2:96          repne xchg eax, esi                                      ; Superfluous REPxx prefix
0012F843     7C 00          jl      short 0012F845
0012F845     001400         add     byte ptr ds:[eax+eax], dl
0012F848     0000           add     byte ptr ds:[eax], al
0012F84A     0000           add     byte ptr ds:[eax], al
0012F84C     1051 14        adc     byte ptr ds:[ecx+14], dl
0012F84F     0000           add     byte ptr ds:[eax], al
0012F851     001400         add     byte ptr ds:[eax+eax], dl
0012F854     1851 14        sbb     byte ptr ds:[ecx+14], dl
0012F857     0023           add     byte ptr ds:[ebx], ah
0012F859     0391 7CA0F912  add     edx, dword ptr ds:[ecx+12F9A07C]
0012F85F     0000           add     byte ptr ds:[eax], al
0012F861     0000           add     byte ptr ds:[eax], al
0012F863     0000           add     byte ptr ds:[eax], al
0012F865     0040 00        add     byte ptr ds:[eax], al
0012F868     F8             clc
0012F869     0040 00        add     byte ptr ds:[eax], al
0012F86C     5C             pop     esp
0012F86D     F8             clc
0012F86E     1200           adc     al, byte ptr ds:[eax]
0012F870     0000           add     byte ptr ds:[eax], al
0012F872     0000           add     byte ptr ds:[eax], al
0012F874     94             xchg    eax, esp
0012F875     F8             clc
0012F876     1200           adc     al, byte ptr ds:[eax]
0012F878     8503           test    dword ptr ds:[ebx], eax
0012F87A     91             xchg    eax, ecx
0012F87B     7C 00          jl      short 0012F87D
0012F87D     0040 00        add     byte ptr ds:[eax], al
0012F880     0100           add     dword ptr ds:[eax], eax
0012F882     0000           add     byte ptr ds:[eax], al
0012F884     0200           add     al, byte ptr ds:[eax]
0012F886     0000           add     byte ptr ds:[eax], al
0012F888     34 F9          xor     al, F9
0012F88A     1200           adc     al, byte ptr ds:[eax]
0012F88C     A0 F9120030    mov     al, byte ptr ds:[300012F9]
0012F891     60             pushad
0012F892     40             inc     eax
0012F893     0000           add     byte ptr ds:[eax], al
0012F895     60             pushad
0012F896     40             inc     eax
0012F897     0060 F9        add     byte ptr ds:[eax-7], ah
0012F89A     1200           adc     al, byte ptr ds:[eax]
0012F89C     58             pop     eax
0012F89D     1891 7C160000  sbb     byte ptr ds:[ecx+167C], dl
0012F8A3     0000           add     byte ptr ds:[eax], al
0012F8A5     60             pushad
0012F8A6     40             inc     eax
0012F8A7     003F           add     byte ptr ds:[edi], bh
0012F8A9     1A91 7C200000  sbb     dl, byte ptr ds:[ecx+207C]
0012F8AF     0000           add     byte ptr ds:[eax], al
0012F8B1     0000           add     byte ptr ds:[eax], al
0012F8B3     0003           add     byte ptr ds:[ebx], al
0012F8B5     0000           add     byte ptr ds:[eax], al
0012F8B7     0000           add     byte ptr ds:[eax], al
0012F8B9     001400         add     byte ptr ds:[eax+eax], dl
0012F8BC     D050 14        rcl     byte ptr ds:[eax+14], 1
0012F8BF     0000           add     byte ptr ds:[eax], al
0012F8C1     001400         add     byte ptr ds:[eax+eax], dl
0012F8C4     D850 01        fcom    dword ptr ds:[eax+1]
0012F8C7     0180 F8120000  add     dword ptr ds:[eax+12F8], eax
0012F8CD     0000           add     byte ptr ds:[eax], al
0012F8CF     00B8 F9120020  add     byte ptr ds:[eax+200012F9], bh
0012F8D5     E9 907CE805    jmp     05FB756A
0012F8DA     97             xchg    eax, edi
0012F8DB     7C FF          jl      short 0012F8DC
0012F8DD     FF             db FF                                                    ; Unknown command
0012F8DE     FF             db FF                                                    ; Unknown command
0012F8DF     FFC4           inc     esp
0012F8E1     05 977CFCBA    add     eax, BAFC7C97
0012F8E6     94             xchg    eax, esp
0012F8E7     7C 25          jl      short 0012F90E
0012F8E9     FF             db FF                                                    ; Unknown command
0012F8EA     FF             db FF                                                    ; Unknown command
0012F8EB     FF00           inc     dword ptr ds:[eax]
0012F8ED     0000           add     byte ptr ds:[eax], al
0012F8EF     0030           add     byte ptr ds:[eax], dh
0012F8F1     60             pushad
0012F8F2     40             inc     eax
0012F8F3     0030           add     byte ptr ds:[eax], dh
0012F8F5     60             pushad
0012F8F6     40             inc     eax
0012F8F7     0003           add     byte ptr ds:[ebx], al
0012F8F9     0000           add     byte ptr ds:[eax], al
0012F8FB     0000           add     byte ptr ds:[eax], al
0012F8FD     0000           add     byte ptr ds:[eax], al
0012F8FF     00A0 F9120000  add     byte ptr ds:[eax+12F9], ah
0012F905     0000           add     byte ptr ds:[eax], al
0012F907     0000           add     byte ptr ds:[eax], al
0012F909     0000           add     byte ptr ds:[eax], al
0012F90B     0000           add     byte ptr ds:[eax], al
0012F90D     0000           add     byte ptr ds:[eax], al
0012F90F     0000           add     byte ptr ds:[eax], al
0012F911     60             pushad
0012F912     40             inc     eax
0012F913     0001           add     byte ptr ds:[ecx], al
0012F915     0000           add     byte ptr ds:[eax], al
0012F917     0000           add     byte ptr ds:[eax], al
0012F919     0000           add     byte ptr ds:[eax], al
0012F91B     0000           add     byte ptr ds:[eax], al
0012F91D     001400         add     byte ptr ds:[eax+eax], dl
0012F920     40             inc     eax
0012F921     0000           add     byte ptr ds:[eax], al
0012F923     00D0           add     al, dl
0012F925     50             push    eax
0012F926     14 00          adc     al, 0
0012F928     0000           add     byte ptr ds:[eax], al
0012F92A     0000           add     byte ptr ds:[eax], al
0012F92C     8A00           mov     al, byte ptr ds:[eax]
0012F92E     00C0           add     al, al
0012F930     99             cdq
0012F931     51             push    ecx
0012F932     0000           add     byte ptr ds:[eax], al
0012F934     B0 09          mov     al, 9
0012F936     0001           add     byte ptr ds:[ecx], al
0012F938     F4             hlt                                                      ; Privileged instruction
0012F939     0013           add     byte ptr ds:[ebx], dl
0012F93B     0000           add     byte ptr ds:[eax], al
0012F93D     001400         add     byte ptr ds:[eax+eax], dl
0012F940     3C F7          cmp     al, 0F7
0012F942     1200           adc     al, byte ptr ds:[eax]
0012F944     2000           and     byte ptr ds:[eax], al
0012F946     0000           add     byte ptr ds:[eax], al
0012F948   ^ 7C FB          jl      short 0012F945
0012F94A     1200           adc     al, byte ptr ds:[eax]
0012F94C     20E9           and     cl, ch
0012F94E     90             nop
0012F94F     7C 00          jl      short 0012F951
0012F951     A0 917CFFFF    mov     al, byte ptr ds:[FFFF7C91]
0012F956     FF             db FF                                                    ; Unknown command
0012F957     FF             db FF                                                    ; Unknown command
0012F958     FA             cli
0012F959     9F             lahf
0012F95A     91             xchg    eax, ecx
0012F95B     7C 0C          jl      short 0012F969
0012F95D     9C             pushfd
0012F95E     91             xchg    eax, ecx
0012F95F     7C 00          jl      short 0012F961
0012F961     001400         add     byte ptr ds:[eax+eax], dl
0012F964     60             pushad
0012F965     0000           add     byte ptr ds:[eax], al
0012F967     40             inc     eax
0012F968     DB01           fild    dword ptr ds:[ecx]
0012F96A     91             xchg    eax, ecx
0012F96B     7C FF          jl      short 0012F96C
0012F96D     FF             db FF                                                    ; Unknown command
0012F96E     FF             db FF                                                    ; Unknown command
0012F96F     7F 08          jg      short 0012F979
0012F971     FC             cld
0012F972     1200           adc     al, byte ptr ds:[eax]
0012F974     1100           adc     dword ptr ds:[eax], eax
0012F976     0000           add     byte ptr ds:[eax], al
0012F978     88F9           mov     cl, bh
0012F97A     1200           adc     al, byte ptr ds:[eax]
0012F97C     309480 7C1507  xor     byte ptr ds:[eax*4+eax+7157C], dl
0012F983     0000           add     byte ptr ds:[eax], al
0012F985     0000           add     byte ptr ds:[eax], al
0012F987     00D0           add     al, dl
0012F989     F9             stc
0012F98A     1200           adc     al, byte ptr ds:[eax]
0012F98C     8409           test    byte ptr ds:[ecx], cl
0012F98E     837CB3 AD 80   cmp     dword ptr ds:[esi*4+ebx-53], -80
0012F993     7C 20          jl      short 0012F9B5
0012F995     0000           add     byte ptr ds:[eax], al
0012F997     0000           add     byte ptr ds:[eax], al
0012F999     0040 00        add     byte ptr ds:[eax], al
0012F99C     0300           add     eax, dword ptr ds:[eax]
0012F99E     0000           add     byte ptr ds:[eax], al
0012F9A0     16             push    ss
0012F9A1     0000           add     byte ptr ds:[eax], al
0012F9A3     0080 00000000  add     byte ptr ds:[eax], al
0012F9A9     0000           add     byte ptr ds:[eax], al
0012F9AB     0021           add     byte ptr ds:[ecx], ah
0012F9AD     2291 7C000000  and     dl, byte ptr ds:[ecx+7C]
0012F9B3     008A 0000C094  add     byte ptr ds:[edx+94C00000], cl
0012F9B9     F9             stc
0012F9BA     1200           adc     al, byte ptr ds:[eax]
0012F9BC     0802           or      byte ptr ds:[edx], al
0012F9BE     0000           add     byte ptr ds:[eax], al
0012F9C0     50             push    eax
0012F9C1     FD             std
0012F9C2     1200           adc     al, byte ptr ds:[eax]
0012F9C4     48             dec     eax
0012F9C5     9B             wait
0012F9C6     837CB8 AD 80   cmp     dword ptr ds:[edi*4+eax-53], -80
0012F9CB     7C FF          jl      short 0012F9CC
0012F9CD     FF             db FF                                                    ; Unknown command
0012F9CE     FF             db FF                                                    ; Unknown command
0012F9CF     FFB3 AD807C2D  push    dword ptr ds:[ebx+2D7C80AD]
0012F9D5     C141 7E 00     rol     dword ptr ds:[ecx+7E], 0                         ; Shift out of range
0012F9D9     0040 00        add     byte ptr ds:[eax], al
0012F9DC     16             push    ss
0012F9DD     0000           add     byte ptr ds:[eax], al
0012F9DF     0080 00000000  add     byte ptr ds:[eax], al
0012F9E5     0000           add     byte ptr ds:[eax], al
0012F9E7     000CFA         add     byte ptr ds:[edi*8+edx], cl
0012F9EA     1200           adc     al, byte ptr ds:[eax]
0012F9EC     F2:C041 7E 00  repne rol byte ptr ds:[ecx+7E], 0                        ; Superfluous REPxx prefix
0012F9F1     0040 00        add     byte ptr ds:[eax], al
0012F9F4     8000 00        add     byte ptr ds:[eax], 0
0012F9F7     0016           add     byte ptr ds:[esi], dl
0012F9F9     0000           add     byte ptr ds:[eax], al
0012F9FB     0007           add     byte ptr ds:[edi], al
0012F9FD     8242 7E F2     add     byte ptr ds:[edx+7E], 0F2
0012FA01     8142 7E 00000  add     dword ptr ds:[edx+7E], 0
0012FA08     1C FA          sbb     al, 0FA
0012FA0A     1200           adc     al, byte ptr ds:[eax]
0012FA0C     04 01          add     al, 1
0012FA0E     0000           add     byte ptr ds:[eax], al
0012FA10     05 000000A9    add     eax, A9000000
0012FA15     49             dec     ecx
0012FA16     DD73 02        fsave   ds:[ebx+2]
0012FA19     0000           add     byte ptr ds:[eax], al
0012FA1B     0000           add     byte ptr ds:[eax], al
0012FA1D     0000           add     byte ptr ds:[eax], al
0012FA1F     0000           add     byte ptr ds:[eax], al
0012FA21     0000           add     byte ptr ds:[eax], al
0012FA23     001CFA         add     byte ptr ds:[edi*8+edx], bl
0012FA26     1200           adc     al, byte ptr ds:[eax]
0012FA28     0000           add     byte ptr ds:[eax], al
0012FA2A     0000           add     byte ptr ds:[eax], al
0012FA2C     60             pushad
0012FA2D     FC             cld
0012FA2E     1200           adc     al, byte ptr ds:[eax]
0012FA30     AC             lods    byte ptr ds:[esi]
0012FA31     8142 7E 00000  add     dword ptr ds:[edx+7E], 0
0012FA38     0000           add     byte ptr ds:[eax], al
0012FA3A     0000           add     byte ptr ds:[eax], al
0012FA3C     04 01          add     al, 1
0012FA3E     0000           add     byte ptr ds:[eax], al
0012FA40     05 000000A9    add     eax, A9000000
0012FA45     49             dec     ecx
0012FA46     DD73 02        fsave   ds:[ebx+2]
0012FA49     0000           add     byte ptr ds:[eax], al
0012FA4B     0068 50        add     byte ptr ds:[eax+50], ch
0012FA4E     3300           xor     eax, dword ptr ds:[eax]
0012FA50     B6 81          mov     dh, 81
0012FA52     42             inc     edx
0012FA53     7E 00          jle     short 0012FA55
0012FA55     0000           add     byte ptr ds:[eax], al
0012FA57     0040 80        add     byte ptr ds:[eax-80], al
0012FA5A     0000           add     byte ptr ds:[eax], al
0012FA5C     68 50330080    push    80003350
0012FA61     0000           add     byte ptr ds:[eax], al
0012FA63     0060 9D        add     byte ptr ds:[eax-63], ah
0012FA66     41             inc     ecx
0012FA67     7E 00          jle     short 0012FA69
0012FA69     0000           add     byte ptr ds:[eax], al
0012FA6B     0003           add     byte ptr ds:[ebx], al
0012FA6D     0000           add     byte ptr ds:[eax], al
0012FA6F     0020           add     byte ptr ds:[eax], ah
0012FA71     0000           add     byte ptr ds:[eax], al
0012FA73     0020           add     byte ptr ds:[eax], ah
0012FA75     0000           add     byte ptr ds:[eax], al
0012FA77     0000           add     byte ptr ds:[eax], al
0012FA79     0000           add     byte ptr ds:[eax], al
0012FA7B     0088 FA120080  add     byte ptr ds:[eax+800012FA], cl
0012FA81     0000           add     byte ptr ds:[eax], al
0012FA83     0000           add     byte ptr ds:[eax], al
0012FA85     0040 00        add     byte ptr ds:[eax], al
0012FA88     43             inc     ebx
0012FA89     003A           add     byte ptr ds:[edx], bh
0012FA8B     005C00 44      add     byte ptr ds:[eax+eax+44], bl
0012FA8F     006F 00        add     byte ptr ds:[edi], ch
0012FA92     6300           arpl    word ptr ds:[eax], ax
0012FA94     75 00          jne     short 0012FA96
0012FA96     6D             ins     dword ptr es:[edi], dx                           ; I/O command
0012FA97     0065 00        add     byte ptr ss:[ebp], ah
0012FA9A     6E             outs    dx, byte ptr ds:[esi]                            ; I/O command
0012FA9B     007400 73      add     byte ptr ds:[eax+eax+73], dh
0012FA9F     0020           add     byte ptr ds:[eax], ah
0012FAA1     0061 00        add     byte ptr ds:[ecx], ah
0012FAA4     6E             outs    dx, byte ptr ds:[esi]                            ; I/O command
0012FAA5     006400 20      add     byte ptr ds:[eax+eax+20], ah
0012FAA9     0053 00        add     byte ptr ds:[ebx], dl
0012FAAC     65:007400 74   add     byte ptr gs:[eax+eax+74], dh
0012FAB1     0069 00        add     byte ptr ds:[ecx], ch
0012FAB4     6E             outs    dx, byte ptr ds:[esi]                            ; I/O command
0012FAB5     0067 00        add     byte ptr ds:[edi], ah
0012FAB8     73 00          jae     short 0012FABA
0012FABA     5C             pop     esp
0012FABB     004A 00        add     byte ptr ds:[edx], cl
0012FABE     61             popad
0012FABF     006D 00        add     byte ptr ss:[ebp], ch
0012FAC2     65:0073 00     add     byte ptr gs:[ebx], dh
0012FAC6     5C             pop     esp
0012FAC7     004400 65      add     byte ptr ds:[eax+eax+65], al
0012FACB     0073 00        add     byte ptr ds:[ebx], dh
0012FACE     6B00 74        imul    eax, dword ptr ds:[eax], 74
0012FAD1     006F 00        add     byte ptr ds:[edi], ch
0012FAD4     70 00          jo      short 0012FAD6
0012FAD6     5C             pop     esp
0012FAD7     004D 00        add     byte ptr ss:[ebp], cl
0012FADA     61             popad
0012FADB     006C00 77      add     byte ptr ds:[eax+eax+77], ch
0012FADF     0061 00        add     byte ptr ds:[ecx], ah
0012FAE2     72 00          jb      short 0012FAE4
0012FAE4     65:005C00 5A   add     byte ptr gs:[eax+eax+5A], bl
0012FAE9     0065 00        add     byte ptr ss:[ebp], ah
0012FAEC     6E             outs    dx, byte ptr ds:[esi]                            ; I/O command
0012FAED     006400 65      add     byte ptr ds:[eax+eax+65], ah
0012FAF1     0072 00        add     byte ptr ds:[edx], dh
0012FAF4     5C             pop     esp
0012FAF5     0043 00        add     byte ptr ds:[ebx], al
0012FAF8     6F             outs    dx, dword ptr ds:[esi]                           ; I/O command
0012FAF9     0070 00        add     byte ptr ds:[eax], dh
0012FAFC     79 00          jns     short 0012FAFE
0012FAFE     2000           and     byte ptr ds:[eax], al
0012FB00     6F             outs    dx, dword ptr ds:[esi]                           ; I/O command
0012FB01     0066 00        add     byte ptr ds:[esi], ah
0012FB04     2000           and     byte ptr ds:[eax], al
0012FB06     7A 00          jpe     short 0012FB08
0012FB08     65:006E 00     add     byte ptr gs:[esi], ch
0012FB0C     64:0065 00     add     byte ptr fs:[ebp], ah
0012FB10     72 00          jb      short 0012FB12
0012FB12     3100           xor     dword ptr ds:[eax], eax
0012FB14     2E:0065 00     add     byte ptr cs:[ebp], ah
0012FB18     78 00          js      short 0012FB1A
0012FB1A     65:0000        add     byte ptr gs:[eax], al
0012FB1D     001400         add     byte ptr ds:[eax+eax], dl
0012FB20     18FB           sbb     bl, bh
0012FB22     1200           adc     al, byte ptr ds:[eax]
0012FB24     0100           add     dword ptr ds:[eax], eax
0012FB26     0000           add     byte ptr ds:[eax], al
0012FB28     6BC1 00        imul    eax, ecx, 0
0012FB2B     0023           add     byte ptr ds:[ebx], ah
0012FB2D     0391 7C74FC12  add     edx, dword ptr ds:[ecx+12FC747C]
0012FB33     0000           add     byte ptr ds:[eax], al
0012FB35     0000           add     byte ptr ds:[eax], al
0012FB37     0000           add     byte ptr ds:[eax], al
0012FB39     00DD           add     ch, bl
0012FB3B     73 18          jae     short 0012FB55
0012FB3D     01DD           add     ebp, ebx
0012FB3F     73 30          jae     short 0012FB71
0012FB41     FB             sti
0012FB42     1200           adc     al, byte ptr ds:[eax]
0012FB44     0000           add     byte ptr ds:[eax], al
0012FB46     0000           add     byte ptr ds:[eax], al
0012FB48     68 FB120085    push    850012FB
0012FB4D     0391 7C0000DD  add     edx, dword ptr ds:[ecx+DD00007C]
0012FB53     73 23          jae     short 0012FB78
0012FB55     0391 7C000000  add     edx, dword ptr ds:[ecx+7C]
0012FB5B     0000           add     byte ptr ds:[eax], al
0012FB5D     0000           add     byte ptr ds:[eax], al
0012FB5F     0003           add     byte ptr ds:[ebx], al
0012FB61     0000           add     byte ptr ds:[eax], al
0012FB63     00F8           add     al, bh
0012FB65     0040 00        add     byte ptr ds:[eax], al
0012FB68     58             pop     eax
0012FB69     FB             sti
0012FB6A     1200           adc     al, byte ptr ds:[eax]
0012FB6C     B0 FC          mov     al, 0FC
0012FB6E     0000           add     byte ptr ds:[eax], al
0012FB70     0000           add     byte ptr ds:[eax], al
0012FB72     14 00          adc     al, 0
0012FB74     2000           and     byte ptr ds:[eax], al
0012FB76     0000           add     byte ptr ds:[eax], al
0012FB78     FF             db FF                                                    ; Unknown command
0012FB79     FF             db FF                                                    ; Unknown command
0012FB7A     FF             db FF                                                    ; Unknown command
0012FB7B     7F 08          jg      short 0012FB85
0012FB7D     FC             cld
0012FB7E     1200           adc     al, byte ptr ds:[eax]
0012FB80     E7 E6          out     0E6, eax                                         ; I/O command
0012FB82     0000           add     byte ptr ds:[eax], al
0012FB84     30FC           xor     ah, bh
0012FB86     1200           adc     al, byte ptr ds:[eax]
0012FB88     42             inc     edx
0012FB89     E4 42          in      al, 42                                           ; I/O command
0012FB8B     7E 00          jle     short 0012FB8D
0012FB8D     0200           add     al, byte ptr ds:[eax]
0012FB8F     8008 FC        or      byte ptr ds:[eax], FC
0012FB92     1200           adc     al, byte ptr ds:[eax]
0012FB94     1C FC          sbb     al, 0FC
0012FB96     1200           adc     al, byte ptr ds:[eax]
0012FB98     00C0           add     al, al
0012FB9A     CF             iretd                                                    ; Far jump or call
0012FB9B     0000           add     byte ptr ds:[eax], al
0012FB9D     0000           add     byte ptr ds:[eax], al
0012FB9F     8000 00        add     byte ptr ds:[eax], 0
0012FBA2     0080 00000080  add     byte ptr ds:[eax+80000000], al
0012FBA8     0000           add     byte ptr ds:[eax], al
0012FBAA     0080 00000000  add     byte ptr ds:[eax], al
0012FBB0     8D01           lea     eax, [ecx]
0012FBB2     0E             push    cs
0012FBB3     0000           add     byte ptr ds:[eax], al
0012FBB5     0040 00        add     byte ptr ds:[eax], al
0012FBB8   ^ 7C FD          jl      short 0012FBB7
0012FBBA     1200           adc     al, byte ptr ds:[eax]
0012FBBC     000400         add     byte ptr ds:[eax+eax], al
0012FBBF     40             inc     eax
0012FBC0     0000           add     byte ptr ds:[eax], al
0012FBC2     0080 68503300  add     byte ptr ds:[eax+335068], al
0012FBC8     8D01           lea     eax, [ecx]
0012FBCA     0E             push    cs
0012FBCB     0000           add     byte ptr ds:[eax], al
0012FBCD     0040 00        add     byte ptr ds:[eax], al
0012FBD0     0100           add     dword ptr ds:[eax], eax
0012FBD2     0000           add     byte ptr ds:[eax], al
0012FBD4     0200           add     al, byte ptr ds:[eax]
0012FBD6     0000           add     byte ptr ds:[eax], al
0012FBD8     0C FC          or      al, FC
0012FBDA     1200           adc     al, byte ptr ds:[eax]
0012FBDC     F8             clc
0012FBDD     0040 00        add     byte ptr ds:[eax], al
0012FBE0     0000           add     byte ptr ds:[eax], al
0012FBE2     40             inc     eax
0012FBE3     0044FC 12      add     byte ptr ss:[edi*8+esp+12], al
0012FBE7     007D 1A        add     byte ptr ss:[ebp+1A], bh
0012FBEA     91             xchg    eax, ecx
0012FBEB     7C 00          jl      short 0012FBED
0012FBED     0040 00        add     byte ptr ds:[eax], al
0012FBF0     0100           add     dword ptr ds:[eax], eax
0012FBF2     0000           add     byte ptr ds:[eax], al
0012FBF4     0200           add     al, byte ptr ds:[eax]
0012FBF6     0000           add     byte ptr ds:[eax], al
0012FBF8     CB             retf                                                     ; Far jump or call
0012FBF9     CE             into
0012FBFA     42             inc     edx
0012FBFB   ^ 7E 8D          jle     short 0012FB8A
0012FBFD     ED             in      eax, dx                                          ; I/O command
0012FBFE     42             inc     edx
0012FBFF   ^ 7E C7          jle     short 0012FBC8
0012FC01     02FF           add     bh, bh
0012FC03     00FF           add     bh, bh
0012FC05     FF             db FF                                                    ; Unknown command
0012FC06     FF             db FF                                                    ; Unknown command
0012FC07     FF20           jmp     dword ptr ds:[eax]
0012FC09     0000           add     byte ptr ds:[eax], al
0012FC0B     0022           add     byte ptr ds:[edx], ah
0012FC0D     0000           add     byte ptr ds:[eax], al
0012FC0F     00D8           add     al, bl
0012FC11     50             push    eax
0012FC12     14 00          adc     al, 0
0012FC14     08FC           or      ah, bh
0012FC16     1200           adc     al, byte ptr ds:[eax]
0012FC18     0100           add     dword ptr ds:[eax], eax
0012FC1A     0000           add     byte ptr ds:[eax], al
0012FC1C     0000           add     byte ptr ds:[eax], al
0012FC1E     0000           add     byte ptr ds:[eax], al
0012FC20     0100           add     dword ptr ds:[eax], eax
0012FC22     0080 10C7E973  add     byte ptr ds:[eax+MFC42.73E9C710], al
0012FC28     0000           add     byte ptr ds:[eax], al
0012FC2A     0000           add     byte ptr ds:[eax], al
0012FC2C     000400         add     byte ptr ds:[eax+eax], al
0012FC2F     006CFC 12      add     byte ptr ss:[edi*8+esp+12], ch
0012FC33     00DC           add     ah, bl
0012FC35     E4 42          in      al, 42                                           ; I/O command
0012FC37     7E 00          jle     short 0012FC39
0012FC39     0200           add     al, byte ptr ds:[eax]
0012FC3B     80A8 B5E6731C  sub     byte ptr ds:[eax+1C73E6B5], 0FC
0012FC42     1200           adc     al, byte ptr ds:[eax]
0012FC44     00C0           add     al, al
0012FC46     CF             iretd                                                    ; Far jump or call
0012FC47     0000           add     byte ptr ds:[eax], al
0012FC49     0000           add     byte ptr ds:[eax], al
0012FC4B     8000 00        add     byte ptr ds:[eax], 0
0012FC4E     0080 00000080  add     byte ptr ds:[eax+80000000], al
0012FC54     0000           add     byte ptr ds:[eax], al
0012FC56     0080 00000000  add     byte ptr ds:[eax], al
0012FC5C     8D01           lea     eax, [ecx]
0012FC5E     0E             push    cs
0012FC5F     0000           add     byte ptr ds:[eax], al
0012FC61     0040 00        add     byte ptr ds:[eax], al
0012FC64   ^ 7C FD          jl      short 0012FC63
0012FC66     1200           adc     al, byte ptr ds:[eax]
0012FC68     0100           add     dword ptr ds:[eax], eax
0012FC6A     0040 DC        add     byte ptr ds:[eax-24], al
0012FC6D     FC             cld
0012FC6E     1200           adc     al, byte ptr ds:[eax]
0012FC70     96             xchg    eax, esi
0012FC71     AF             scas    dword ptr es:[edi]
0012FC72     DD73 00        fsave   ds:[ebx]
0012FC75     0200           add     al, byte ptr ds:[eax]
0012FC77     00A8 B5E67310  add     byte ptr ds:[eax+1073E6B5], ch
0012FC7D     C7             db C7                                                    ; Unknown command
0012FC7E     E9 7300C0CF    jmp     CFD2FCF6
0012FC83     0000           add     byte ptr ds:[eax], al
0012FC85     0000           add     byte ptr ds:[eax], al
0012FC87     8000 00        add     byte ptr ds:[eax], 0
0012FC8A     0080 00000080  add     byte ptr ds:[eax+80000000], al
0012FC90     0000           add     byte ptr ds:[eax], al
0012FC92     0080 00000000  add     byte ptr ds:[eax], al
0012FC98     8D01           lea     eax, [ecx]
0012FC9A     0E             push    cs
0012FC9B     0000           add     byte ptr ds:[eax], al
0012FC9D     0040 00        add     byte ptr ds:[eax], al
0012FCA0   ^ 7C FD          jl      short 0012FC9F
0012FCA2     1200           adc     al, byte ptr ds:[eax]
0012FCA4     0000           add     byte ptr ds:[eax], al
0012FCA6     0080 68503300  add     byte ptr ds:[eax+335068], al
0012FCAC   ^ 7C FD          jl      short 0012FCAB
0012FCAE     1200           adc     al, byte ptr ds:[eax]
0012FCB0     0000           add     byte ptr ds:[eax], al
0012FCB2     40             inc     eax
0012FCB3     008D 010E0000  add     byte ptr ss:[ebp+0E01], cl
0012FCB9     0000           add     byte ptr ds:[eax], al
0012FCBB     0000           add     byte ptr ds:[eax], al
0012FCBD     0000           add     byte ptr ds:[eax], al
0012FCBF     8000 00        add     byte ptr ds:[eax], 0
0012FCC2     0080 00000080  add     byte ptr ds:[eax+80000000], al
0012FCC8     0000           add     byte ptr ds:[eax], al
0012FCCA     0080 00C0CF00  add     byte ptr ds:[eax+0CFC000], al
0012FCD0     10C7           adc     bh, al
0012FCD2     E9 73A8B5E6    jmp     E6C8A54A
0012FCD7     73 00          jae     short 0012FCD9
0012FCD9     0200           add     al, byte ptr ds:[eax]
0012FCDB     001CFD 120035  add     byte ptr ds:[edi*8+CB350012], bl
0012FCE2     DD73 00        fsave   ds:[ebx]
0012FCE5     0000           add     byte ptr ds:[eax], al
0012FCE7     0000           add     byte ptr ds:[eax], al
0012FCE9     0000           add     byte ptr ds:[eax], al
0012FCEB     0010           add     byte ptr ds:[eax], dl
0012FCED     C7             db C7                                                    ; Unknown command
0012FCEE     E9 730080CF    jmp     CF92FD66
0012FCF3     0000           add     byte ptr ds:[eax], al
0012FCF5     0000           add     byte ptr ds:[eax], al
0012FCF7     8000 00        add     byte ptr ds:[eax], 0
0012FCFA     0080 00000080  add     byte ptr ds:[eax+80000000], al
0012FD00     0000           add     byte ptr ds:[eax], al
0012FD02     0080 00000000  add     byte ptr ds:[eax], al
0012FD08     8D01           lea     eax, [ecx]
0012FD0A     0E             push    cs
0012FD0B     007CFD 12      add     byte ptr ss:[edi*8+ebp+12], bh
0012FD0F     0080 00000068  add     byte ptr ds:[eax+68000000], al
0012FD15     50             push    eax
0012FD16     3300           xor     eax, dword ptr ds:[eax]
0012FD18     0000           add     byte ptr ds:[eax], al
0012FD1A     0000           add     byte ptr ds:[eax], al
0012FD1C     5C             pop     esp
0012FD1D     FD             std
0012FD1E     1200           adc     al, byte ptr ds:[eax]
0012FD20     28C9           sub     cl, cl
0012FD22     DD73 00        fsave   ds:[ebx]
0012FD25     0000           add     byte ptr ds:[eax], al
0012FD27     0010           add     byte ptr ds:[eax], dl
0012FD29     C7             db C7                                                    ; Unknown command
0012FD2A     E9 730080CF    jmp     CF92FDA2
0012FD2F     001CC9         add     byte ptr ds:[ecx*8+ecx], bl
0012FD32     E9 73000000    jmp     0012FDAA
0012FD37     0080 00000000  add     byte ptr ds:[eax], al
0012FD3D     0000           add     byte ptr ds:[eax], al
0012FD3F     007CFD 12      add     byte ptr ss:[edi*8+ebp+12], bh
0012FD43     0068 50        add     byte ptr ds:[eax+50], ch
0012FD46     3300           xor     eax, dword ptr ds:[eax]
0012FD48     A0 4E330001    mov     al, byte ptr ds:[100334E]
0012FD4D     0000           add     byte ptr ds:[eax], al
0012FD4F     00B8 FD120028  add     byte ptr ds:[eax+280012FD], bh
0012FD55     43             inc     ebx
0012FD56     E6 73          out     73, al                                           ; I/O command
0012FD58     0000           add     byte ptr ds:[eax], al
0012FD5A     0000           add     byte ptr ds:[eax], al
0012FD5C     90             nop
0012FD5D     FD             std
0012FD5E     1200           adc     al, byte ptr ds:[eax]
0012FD60     83C8 DD        or      eax, FFFFFFDD
0012FD63     73 10          jae     short 0012FD75
0012FD65     C7             db C7                                                    ; Unknown command
0012FD66     E9 730080CF    jmp     CF92FDDE
0012FD6B     0000           add     byte ptr ds:[eax], al
0012FD6D     0000           add     byte ptr ds:[eax], al
0012FD6F     007CFD 12      add     byte ptr ss:[edi*8+ebp+12], bh
0012FD73     00A0 4E3300F8  add     byte ptr ds:[eax+F800334E], ah
0012FD79     4F             dec     edi
0012FD7A     3300           xor     eax, dword ptr ds:[eax]
0012FD7C     1037           adc     byte ptr ds:[edi], dh
0012FD7E     40             inc     eax
0012FD7F     00F8           add     al, bh
0012FD81     4F             dec     edi
0012FD82     3300           xor     eax, dword ptr ds:[eax]
0012FD84     A0 4E330000    mov     al, byte ptr ds:[334E]
0012FD89     0000           add     byte ptr ds:[eax], al
0012FD8B     0000           add     byte ptr ds:[eax], al
0012FD8D     0000           add     byte ptr ds:[eax], al
0012FD8F     00C4           add     ah, al
0012FD91     FD             std
0012FD92     1200           adc     al, byte ptr ds:[eax]
0012FD94     6D             ins     dword ptr es:[edi], dx                           ; I/O command
0012FD95     E5 DD          in      eax, 0DD                                         ; I/O command
0012FD97   ^ 73 F8          jae     short 0012FD91
0012FD99     4F             dec     edi
0012FD9A     3300           xor     eax, dword ptr ds:[eax]
0012FD9C     0000           add     byte ptr ds:[eax], al
0012FD9E     0000           add     byte ptr ds:[eax], al
0012FDA0     8856 40        mov     byte ptr ds:[esi+40], dl
0012FDA3     00A0 4E330001  add     byte ptr ds:[eax+100334E], ah
0012FDA9     0000           add     byte ptr ds:[eax], al
0012FDAB     0030           add     byte ptr ds:[eax], dh
0012FDAD     FE             db FE                                                    ; Unknown command
0012FDAE     1200           adc     al, byte ptr ds:[eax]
0012FDB0     0100           add     dword ptr ds:[eax], eax
0012FDB2     0000           add     byte ptr ds:[eax], al
0012FDB4     0000           add     byte ptr ds:[eax], al
0012FDB6     0000           add     byte ptr ds:[eax], al
0012FDB8     40             inc     eax
0012FDB9     FE             db FE                                                    ; Unknown command
0012FDBA     1200           adc     al, byte ptr ds:[eax]
0012FDBC     98             cwde
0012FDBD     4E             dec     esi
0012FDBE     E6 73          out     73, al                                           ; I/O command
0012FDC0     FF             db FF                                                    ; Unknown command
0012FDC1     FF             db FF                                                    ; Unknown command
0012FDC2     FF             db FF                                                    ; Unknown command
0012FDC3     FF4CFE 12      dec     dword ptr ds:[edi*8+esi+12]
0012FDC7     0025 19DE7300  add     byte ptr ds:[73DE19], ah
0012FDCD     0000           add     byte ptr ds:[eax], al
0012FDCF     0001           add     byte ptr ds:[ecx], al
0012FDD1     0000           add     byte ptr ds:[eax], al
0012FDD3     00F0           add     al, dh
0012FDD5     3340 00        xor     eax, dword ptr ds:[eax]
0012FDD8     D0FB           sar     bl, 1
0012FDDA     1200           adc     al, byte ptr ds:[eax]
0012FDDC     AC             lods    byte ptr ds:[esi]
0012FDDD     04 91          add     al, 91
0012FDDF     7C 20          jl      short 0012FE01
0012FDE1     FE             db FE                                                    ; Unknown command
0012FDE2     1200           adc     al, byte ptr ds:[eax]
0012FDE4     20E9           and     cl, ch
0012FDE6     90             nop
0012FDE7   ^ 7C E0          jl      short 0012FDC9
0012FDE9     0191 7CFFFFFF  add     dword ptr ds:[ecx-84], edx
0012FDEF     FFDB           call    ebx                                              ; Illegal use of register
0012FDF1     0191 7CC9C3C2  add     dword ptr ds:[ecx+C2C3C97C], edx
0012FDF7     77 00          ja      short 0012FDF9
0012FDF9     0033           add     byte ptr ds:[ebx], dh
0012FDFB     0060 00        add     byte ptr ds:[eax], ah
0012FDFE     0040 CE        add     byte ptr ds:[eax-32], al
0012FE01     C3             retn
0012FE02     C2 7707        retn    777
0012FE05     C4C2           les     eax, edx                                         ; Illegal use of register
0012FE07     77 2C          ja      short 0012FE35
0012FE09     4F             dec     edi
0012FE0A     3300           xor     eax, dword ptr ds:[eax]
0012FE0C     FF             db FF                                                    ; Unknown command
0012FE0D     FF             db FF                                                    ; Unknown command
0012FE0E     FF             db FF                                                    ; Unknown command
0012FE0F     FF00           inc     dword ptr ds:[eax]
0012FE11     0033           add     byte ptr ds:[ebx], dh
0012FE13     000CFC         add     byte ptr ss:[edi*8+esp], cl
0012FE16     1200           adc     al, byte ptr ds:[eax]
0012FE18     04 FE          add     al, 0FE
0012FE1A     1200           adc     al, byte ptr ds:[eax]
0012FE1C     5C             pop     esp
0012FE1D     FE             db FE                                                    ; Unknown command
0012FE1E     1200           adc     al, byte ptr ds:[eax]
0012FE20     B4 FE          mov     ah, 0FE
0012FE22     1200           adc     al, byte ptr ds:[eax]
0012FE24     94             xchg    eax, esp
0012FE25     5C             pop     esp
0012FE26     C3             retn
0012FE27   ^ 77 88          ja      short 0012FDB1
0012FE29     20C1           and     cl, al
0012FE2B     77 FF          ja      short 0012FE2C
0012FE2D     FF             db FF                                                    ; Unknown command
0012FE2E     FF             db FF                                                    ; Unknown command
0012FE2F     FFCE           dec     esi
0012FE31     C3             retn
0012FE32     C2 77E7        retn    0E777
0012FE35     C3             retn
0012FE36     C2 777C        retn    7C77
0012FE39     0000           add     byte ptr ds:[eax], al
0012FE3B     00BF 18DE73B4  add     byte ptr ds:[edi+B473DE18], bh
0012FE41     FE             db FE                                                    ; Unknown command
0012FE42     1200           adc     al, byte ptr ds:[eax]
0012FE44     6350 E6        arpl    word ptr ds:[eax-1A], dx
0012FE47     73 FF          jae     short 0012FE48
0012FE49     FF             db FF                                                    ; Unknown command
0012FE4A     FF             db FF                                                    ; Unknown command
0012FE4B     FF5CFE 12      call    far fword ptr ds:[edi*8+esi+12]                  ; Far jump or call
0012FE4F     00EB           add     bl, ch
0012FE51     23DD           and     ebx, ebp
0012FE53   ^ 73 F0          jae     short 0012FE45
0012FE55     3340 00        xor     eax, dword ptr ds:[eax]
0012FE58     1101           adc     dword ptr ds:[ecx], eax
0012FE5A     0000           add     byte ptr ds:[eax], al
0012FE5C     8CFE           mov     esi, seg7:                                       ; Invalid segment register
0012FE5E     1200           adc     al, byte ptr ds:[eax]
0012FE60     FD             std
0012FE61     22DD           and     bl, ch
0012FE63   ^ 73 88          jae     short 0012FDED
0012FE65     56             push    esi
0012FE66     40             inc     eax
0012FE67     0000           add     byte ptr ds:[eax], al
0012FE69     E1 00          loopz   short 0012FE6B
0012FE6B     0000           add     byte ptr ds:[eax], al
0012FE6D     0000           add     byte ptr ds:[eax], al
0012FE6F     007C22 40      add     byte ptr ds:[edx+40], bh
0012FE73     0000           add     byte ptr ds:[eax], al
0012FE75     0000           add     byte ptr ds:[eax], al
0012FE77     000C00         add     byte ptr ds:[eax+eax], cl
0012FE7A     0000           add     byte ptr ds:[eax], al
0012FE7C     0000           add     byte ptr ds:[eax], al
0012FE7E     0000           add     byte ptr ds:[eax], al
0012FE80     8856 40        mov     byte ptr ds:[esi+40], dl
0012FE83     0000           add     byte ptr ds:[eax], al
0012FE85     0000           add     byte ptr ds:[eax], al
0012FE87     00D4           add     ah, dl
0012FE89     FE             db FE                                                    ; Unknown command
0012FE8A     1200           adc     al, byte ptr ds:[eax]
0012FE8C     C0FE 12        sar     dh, 12                                           ; Shift out of range
0012FE8F     0008           add     byte ptr ds:[eax], cl
0012FE91     0D E67300E1    or      eax, E10073E6
0012FE96     0000           add     byte ptr ds:[eax], al
0012FE98     0000           add     byte ptr ds:[eax], al
0012FE9A     0000           add     byte ptr ds:[eax], al
0012FE9C     0000           add     byte ptr ds:[eax], al
0012FE9E     0000           add     byte ptr ds:[eax], al
0012FEA0     0000           add     byte ptr ds:[eax], al
0012FEA2     0000           add     byte ptr ds:[eax], al
0012FEA4     8856 40        mov     byte ptr ds:[esi+40], dl
0012FEA7     0088 564000FF  add     byte ptr ds:[eax+FF004056], cl
0012FEAD     FF             db FF                                                    ; Unknown command
0012FEAE     FF             db FF                                                    ; Unknown command
0012FEAF     FF01           inc     dword ptr ds:[ecx]
0012FEB1     0000           add     byte ptr ds:[eax], al
0012FEB3     00F8           add     al, bh
0012FEB5     FE             db FE                                                    ; Unknown command
0012FEB6     1200           adc     al, byte ptr ds:[eax]
0012FEB8     71 55          jno     short 0012FF0F
0012FEBA     E6 73          out     73, al                                           ; I/O command
0012FEBC     FF             db FF                                                    ; Unknown command
0012FEBD     FF             db FF                                                    ; Unknown command
0012FEBE     FF             db FF                                                    ; Unknown command
0012FEBF     FFC0           inc     eax
0012FEC1     FF12           call    dword ptr ds:[edx]
0012FEC3     00E3           add     bl, ah
0012FEC5     1140 00        adc     dword ptr ds:[eax], eax
0012FEC8     D4 FE          aam     0FE
0012FECA     1200           adc     al, byte ptr ds:[eax]
0012FECC     8856 40        mov     byte ptr ds:[esi+40], dl
0012FECF     00A0 4E3300E4  add     byte ptr ds:[eax+E400334E], ah
0012FED5     28E7           sub     bh, ah
0012FED7     73 01          jae     short 0012FEDA
0012FED9     0000           add     byte ptr ds:[eax], al
0012FEDB     0000           add     byte ptr ds:[eax], al
0012FEDD     0000           add     byte ptr ds:[eax], al
0012FEDF     0000           add     byte ptr ds:[eax], al
0012FEE1     0000           add     byte ptr ds:[eax], al
0012FEE3     0000           add     byte ptr ds:[eax], al
0012FEE5     0000           add     byte ptr ds:[eax], al
0012FEE7     0010           add     byte ptr ds:[eax], dl
0012FEE9     C7             db C7                                                    ; Unknown command
0012FEEA     E9 7310C7E9    jmp     E9DA0F62
0012FEEF     73 10          jae     short 0012FF01
0012FEF1     C7             db C7                                                    ; Unknown command
0012FEF2     E9 7310C7E9    jmp     E9DA0F6A
0012FEF7   ^ 73 B0          jae     short 0012FEA9
0012FEF9     FF12           call    dword ptr ds:[edx]
0012FEFB     0052 29        add     byte ptr ds:[edx+29], dl
0012FEFE     40             inc     eax
0012FEFF     0001           add     byte ptr ds:[ecx], al
0012FF01     0000           add     byte ptr ds:[eax], al
0012FF03     00CF           add     bh, cl
0012FF05     C1DD 73        rcr     ebp, 73                                          ; Shift out of range
0012FF08     B4 99          mov     ah, 99
0012FF0A     1200           adc     al, byte ptr ds:[eax]
0012FF0C     2C 1F          sub     al, 1F
0012FF0E     14 00          adc     al, 0
0012FF10     0000           add     byte ptr ds:[eax], al
0012FF12     0000           add     byte ptr ds:[eax], al
0012FF14     E9 28400000    jmp     00133F41
0012FF19     0040 00        add     byte ptr ds:[eax], al
0012FF1C     0000           add     byte ptr ds:[eax], al
0012FF1E     0000           add     byte ptr ds:[eax], al
0012FF20     60             pushad
0012FF21     9D             popfd
0012FF22     C3             retn
0012FF23     77 0A          ja      short 0012FF2F
0012FF25     0000           add     byte ptr ds:[eax], al
0012FF27     00F4           add     ah, dh
0012FF29     27             daa
0012FF2A     40             inc     eax
0012FF2B     0000           add     byte ptr ds:[eax], al
0012FF2D     0040 00        add     byte ptr ds:[eax], al
0012FF30     0000           add     byte ptr ds:[eax], al
0012FF32     0000           add     byte ptr ds:[eax], al
0012FF34     2C 1F          sub     al, 1F
0012FF36     14 00          adc     al, 0
0012FF38     0A00           or      al, byte ptr ds:[eax]
0012FF3A     0000           add     byte ptr ds:[eax], al
0012FF3C     B4 99          mov     ah, 99
0012FF3E     1200           adc     al, byte ptr ds:[eax]
0012FF40     0000           add     byte ptr ds:[eax], al
0012FF42     14 00          adc     al, 0
0012FF44     00A0 FD7F44FC  add     byte ptr ds:[eax+FC447FFD], ah
0012FF4A     A3 B62C1F14    mov     dword ptr ds:[141F2CB6], eax
0012FF4F     0080 26330000  add     byte ptr ds:[eax+3326], al
0012FF55     0000           add     byte ptr ds:[eax], al
0012FF57     0008           add     byte ptr ds:[eax], cl
0012FF59     0000           add     byte ptr ds:[eax], al
0012FF5B     0030           add     byte ptr ds:[eax], dh
0012FF5D     2A33           sub     dh, byte ptr ds:[ebx]
0012FF5F     0001           add     byte ptr ds:[ecx], al
0012FF61     0000           add     byte ptr ds:[eax], al
0012FF63     004400 00      add     byte ptr ds:[eax+eax], al
0012FF67     0050 2A        add     byte ptr ds:[eax+2A], dl
0012FF6A     14 00          adc     al, 0
0012FF6C     70 2A          jo      short 0012FF98
0012FF6E     14 00          adc     al, 0
0012FF70     98             cwde
0012FF71     2A1400         sub     dl, byte ptr ds:[eax+eax]
0012FF74     0000           add     byte ptr ds:[eax], al
0012FF76     0000           add     byte ptr ds:[eax], al
0012FF78     0000           add     byte ptr ds:[eax], al
0012FF7A     0000           add     byte ptr ds:[eax], al
0012FF7C     0000           add     byte ptr ds:[eax], al
0012FF7E     0000           add     byte ptr ds:[eax], al
0012FF80     0000           add     byte ptr ds:[eax], al
0012FF82     0000           add     byte ptr ds:[eax], al
0012FF84     0000           add     byte ptr ds:[eax], al
0012FF86     0000           add     byte ptr ds:[eax], al
0012FF88     0000           add     byte ptr ds:[eax], al
0012FF8A     0000           add     byte ptr ds:[eax], al
0012FF8C     0000           add     byte ptr ds:[eax], al
0012FF8E     0000           add     byte ptr ds:[eax], al
0012FF90     8100 00000A00  add     dword ptr ds:[eax], 0A0000
0012FF96     0000           add     byte ptr ds:[eax], al
0012FF98     0000           add     byte ptr ds:[eax], al
0012FF9A     0000           add     byte ptr ds:[eax], al
0012FF9C     FF             db FF                                                    ; Unknown command
0012FF9D     FF             db FF                                                    ; Unknown command
0012FF9E     FF             db FF                                                    ; Unknown command
0012FF9F     FF             db FF                                                    ; Unknown command
0012FFA0     FF             db FF                                                    ; Unknown command
0012FFA1     FF             db FF                                                    ; Unknown command
0012FFA2     FF             db FF                                                    ; Unknown command
0012FFA3     FF             db FF                                                    ; Unknown command
0012FFA4     FF             db FF                                                    ; Unknown command
0012FFA5     FF             db FF                                                    ; Unknown command
0012FFA6     FF             db FF                                                    ; Unknown command
0012FFA7     FF             db FF                                                    ; Unknown command
0012FFA8     3C FF          cmp     al, 0FF
0012FFAA     1200           adc     al, byte ptr ds:[eax]
0012FFAC     4C             dec     esp
0012FFAD     A0 E689E0FF    mov     al, byte ptr ds:[FFE089E6]
0012FFB2     1200           adc     al, byte ptr ds:[eax]
0012FFB4     C2 2840        retn    4028
0012FFB7     00E0           add     al, ah
0012FFB9     3A40 00        cmp     al, byte ptr ds:[eax]
0012FFBC     0000           add     byte ptr ds:[eax], al
0012FFBE     0000           add     byte ptr ds:[eax], al
0012FFC0     F0:FF12        lock call dword ptr ds:[edx]                             ; LOCK prefix is not allowed
0012FFC3     0037           add     byte ptr ds:[edi], dh
0012FFC5     60             pushad
0012FFC6     817CB4 99 120  cmp     dword ptr ss:[esi*4+esp-67], 12
0012FFCE     14 00          adc     al, 0
0012FFD0     00A0 FD7FFD4D  add     byte ptr ds:[eax+4DFD7FFD], ah
0012FFD6     54             push    esp
0012FFD7     80C8 FF        or      al, FF
0012FFDA     1200           adc     al, byte ptr ds:[eax]
0012FFDC     200B           and     byte ptr ds:[ebx], cl
0012FFDE     8389 FFFFFFFF  or      dword ptr ds:[ecx-1], 00000048
0012FFE5     9B             wait
0012FFE6     837C40 60 81   cmp     dword ptr ds:[eax*2+eax+60], -7F
0012FFEB     7C 00          jl      short 0012FFED
0012FFED     0000           add     byte ptr ds:[eax], al
0012FFEF     0000           add     byte ptr ds:[eax], al
0012FFF1     0000           add     byte ptr ds:[eax], al
0012FFF3     0000           add     byte ptr ds:[eax], al
0012FFF5     0000           add     byte ptr ds:[eax], al
0012FFF7     00C0           add     al, al
0012FFF9     26:40          inc     eax                                              ; Superfluous segment override prefix
0012FFFB     0000           add     byte ptr ds:[eax], al
0012FFFD     0000           add     byte ptr ds:[eax], al
0012FFFF     00             ???                                                      ; Command crosses end of memory block
